 win32

 Timestamp is 6095ab6e (Fri May  7 17:04:46 2021)

 Preferred load address is 0000000140000000

 Start         Length     Name                   Class
 0001:00000000 00041720H .text$mn                CODE
 0001:00041720 00000040H .text$mn$00             CODE
 0001:00041760 0000069dH .text$x                 CODE
 0002:00000000 000002e8H .idata$5                DATA
 0002:000002e8 00000028H .00cfg                  DATA
 0002:00000310 00000008H .CRT$XCA                DATA
 0002:00000318 00000008H .CRT$XCAA               DATA
 0002:00000320 00000008H .CRT$XCZ                DATA
 0002:00000328 00000008H .CRT$XIA                DATA
 0002:00000330 00000008H .CRT$XIAA               DATA
 0002:00000338 00000008H .CRT$XIAC               DATA
 0002:00000340 00000020H .CRT$XIC                DATA
 0002:00000360 00000008H .CRT$XIZ                DATA
 0002:00000368 00000008H .CRT$XPA                DATA
 0002:00000370 00000010H .CRT$XPX                DATA
 0002:00000380 00000008H .CRT$XPXA               DATA
 0002:00000388 00000008H .CRT$XPZ                DATA
 0002:00000390 00000008H .CRT$XTA                DATA
 0002:00000398 00000008H .CRT$XTZ                DATA
 0002:000003a0 00000000H .gehcont$y              DATA
 0002:000003a0 00000000H .gfids$y                DATA
 0002:000003a0 00014a60H .rdata                  DATA
 0002:00014e00 00000000H .rdata$CastGuardVftablesA DATA
 0002:00014e00 00000000H .rdata$CastGuardVftablesC DATA
 0002:00014e00 0000016cH .rdata$r                DATA
 0002:00014f6c 0000033cH .rdata$zzzdbg           DATA
 0002:000152a8 00000008H .rtc$IAA                DATA
 0002:000152b0 00000008H .rtc$IZZ                DATA
 0002:000152b8 00000008H .rtc$TAA                DATA
 0002:000152c0 00000010H .rtc$TZZ                DATA
 0002:000152d0 000011c8H .xdata                  DATA
 0002:00016498 00000084H .xdata$x                DATA
 0002:0001651c 00000000H .edata                  DATA
 0002:0001651c 00000050H .idata$2                DATA
 0002:0001656c 00000014H .idata$3                DATA
 0002:00016580 000002e8H .idata$4                DATA
 0002:00016868 000006b8H .idata$6                DATA
 0003:00000000 00000ae0H .data                   DATA
 0003:00000ae0 00000050H .data$r                 DATA
 0003:00000b30 00000020H .data$rs                DATA
 0003:00000b50 00001888H .bss                    DATA
 0004:00000000 000032acH .pdata                  DATA
 0005:00000000 000000f4H _RDATA                  DATA

  Address         Publics by Value              Rva+Base               Lib:Object

 0000:00000000       __arm64x_redirection_metadata 0000000000000000     <absolute>
 0000:00000000       __guard_iat_table          0000000000000000     <absolute>
 0000:00000000       ___safe_se_handler_table   0000000000000000     <absolute>
 0000:00000000       __guard_iat_count          0000000000000000     <absolute>
 0000:00000000       __guard_longjmp_count      0000000000000000     <absolute>
 0000:00000000       __dynamic_value_reloc_table 0000000000000000     <absolute>
 0000:00000000       __guard_longjmp_table      0000000000000000     <absolute>
 0000:00000000       __hybrid_auxiliary_iat     0000000000000000     <absolute>
 0000:00000000       __hybrid_auxiliary_iat_copy 0000000000000000     <absolute>
 0000:00000000       __x64_code_ranges_to_entry_points 0000000000000000     <absolute>
 0000:00000000       __x64_code_ranges_to_entry_points_count 0000000000000000     <absolute>
 0000:00000000       __guard_fids_count         0000000000000000     <absolute>
 0000:00000000       __arm64x_extra_rfe_table   0000000000000000     <absolute>
 0000:00000000       __AbsoluteZero             0000000000000000     <absolute>
 0000:00000000       __hybrid_code_map          0000000000000000     <absolute>
 0000:00000000       __guard_check_icall_a64n_fptr 0000000000000000     <absolute>
 0000:00000000       __volatile_metadata        0000000000000000     <absolute>
 0000:00000000       __arm64x_extra_rfe_table_size 0000000000000000     <absolute>
 0000:00000000       ___safe_se_handler_count   0000000000000000     <absolute>
 0000:00000000       __guard_fids_table         0000000000000000     <absolute>
 0000:00000000       __guard_eh_cont_count      0000000000000000     <absolute>
 0000:00000000       __arm64x_redirection_metadata_count 0000000000000000     <absolute>
 0000:00000000       __enclave_config           0000000000000000     <absolute>
 0000:00000000       __guard_eh_cont_table      0000000000000000     <absolute>
 0000:00000000       __arm64x_native_entrypoint 0000000000000000     <absolute>
 0000:00000000       __hybrid_code_map_count    0000000000000000     <absolute>
 0000:00000100       __guard_flags              0000000000000100     <absolute>
 0000:00000000       __ImageBase                0000000140000000     <linker-defined>
 0001:00000000       WinMain                    0000000140001000 f   win32.obj
 0001:00001eb0       ?WindowProc@@YA_JPEAUHWND__@@I_K_J@Z 0000000140002eb0 f   win32.obj
 0001:00001f50       HRESULT_FROM_WIN32         0000000140002f50 f i win32.obj
 0001:00001f85       D3D11CreateDevice          0000000140002f85 f   d3d11:d3d11.dll
 0001:00001f8b       D3DCompileFromFile         0000000140002f8b f   d3dcompiler:D3DCOMPILER_47.dll
 0001:00001fa0       __GSHandlerCheck           0000000140002fa0 f   LIBCMTD:gshandler.obj
 0001:00001fe0       __GSHandlerCheckCommon     0000000140002fe0 f   LIBCMTD:gshandler.obj
 0001:000020f0       __security_check_cookie    00000001400030f0 f   LIBCMTD:amdsecgs.obj
 0001:000023d0       ?configure_argv@__scrt_narrow_argv_policy@@SAHXZ 00000001400033d0 f i LIBCMTD:exe_winmain.obj
 0001:000023f0       ?initialize_environment@__scrt_narrow_environment_policy@@SAHXZ 00000001400033f0 f i LIBCMTD:exe_winmain.obj
 0001:00002440       ?set_app_type@__scrt_winmain_policy@@SAXXZ 0000000140003440 f i LIBCMTD:exe_winmain.obj
 0001:00002460       ?set_commode@__scrt_file_policy@@SAXXZ 0000000140003460 f i LIBCMTD:exe_winmain.obj
 0001:00002480       ?set_fmode@__scrt_file_policy@@SAXXZ 0000000140003480 f i LIBCMTD:exe_winmain.obj
 0001:000024a0       WinMainCRTStartup          00000001400034a0 f   LIBCMTD:exe_winmain.obj
 0001:000024c0       __raise_securityfailure    00000001400034c0 f   LIBCMTD:gs_report.obj
 0001:00002500       __report_gsfailure         0000000140003500 f   LIBCMTD:gs_report.obj
 0001:000025e0       __report_rangecheckfailure 00000001400035e0 f   LIBCMTD:gs_report.obj
 0001:00002600       __report_securityfailure   0000000140003600 f   LIBCMTD:gs_report.obj
 0001:00002960       NtCurrentTeb               0000000140003960 f i LIBCMTD:utility.obj
 0001:00002970       __scrt_acquire_startup_lock 0000000140003970 f   LIBCMTD:utility.obj
 0001:000029e0       __scrt_initialize_crt      00000001400039e0 f   LIBCMTD:utility.obj
 0001:00002a30       __scrt_initialize_onexit_tables 0000000140003a30 f   LIBCMTD:utility.obj
 0001:00002b40       __scrt_is_nonwritable_in_current_image 0000000140003b40 f   LIBCMTD:utility.obj
 0001:00002bd0       __scrt_release_startup_lock 0000000140003bd0 f   LIBCMTD:utility.obj
 0001:00002c00       __scrt_uninitialize_crt    0000000140003c00 f   LIBCMTD:utility.obj
 0001:00002c40       _onexit                    0000000140003c40 f   LIBCMTD:utility.obj
 0001:00002cc0       atexit                     0000000140003cc0 f   LIBCMTD:utility.obj
 0001:00002dc0       __security_init_cookie     0000000140003dc0 f   LIBCMTD:gs_support.obj
 0001:00002e40       _matherr                   0000000140003e40 f   LIBCMTD:matherr.obj
 0001:00002e40       ?get_current_state_index@__crt_state_management@@YA_KAEBV__crt_scoped_get_last_error_reset@@@Z 0000000140003e40 f   libucrtd:per_thread_data.obj
 0001:00002e50       _get_startup_argv_mode     0000000140003e50 f   LIBCMTD:argv_mode.obj
 0001:00002e60       __scrt_stub_for_initialize_mta 0000000140003e60 f   LIBCMTD:utility_desktop.obj
 0001:00002e60       __scrt_exe_initialize_mta  0000000140003e60 f   LIBCMTD:utility_desktop.obj
 0001:00002e60       _get_startup_commit_mode   0000000140003e60 f   LIBCMTD:commit_mode.obj
 0001:00002e60       _get_startup_new_mode      0000000140003e60 f   LIBCMTD:new_mode.obj
 0001:00002e60       ?get_current_state_index@__crt_state_management@@YA_KXZ 0000000140003e60 f   libucrtd:matherr.obj
 0001:00002e60       ?get_invalid_value@__crt_hmodule_traits@@SAPEAUHINSTANCE__@@XZ 0000000140003e60 f   libucrtd:exit.obj
 0001:00002e60       _get_startup_thread_locale_mode 0000000140003e60 f   LIBCMTD:thread_locale.obj
 0001:00002e60       __scrt_initialize_winrt    0000000140003e60 f   LIBCMTD:utility_desktop.obj
 0001:00002e70       _get_startup_file_mode     0000000140003e70 f   LIBCMTD:file_mode.obj
 0001:00002e80       ?__scrt_initialize_type_info@@YAXXZ 0000000140003e80 f   LIBCMTD:tncleanup.obj
 0001:00002ea0       _should_initialize_environment 0000000140003ea0 f   LIBCMTD:env_mode.obj
 0001:00002eb0       _initialize_denormal_control 0000000140003eb0 f   LIBCMTD:denormal_control.obj
 0001:00002eb0       _initialize_invalid_parameter_handler 0000000140003eb0 f   LIBCMTD:invalid_parameter_handler.obj
 0001:00002ec0       __local_stdio_printf_options 0000000140003ec0 f i LIBCMTD:default_local_stdio_options.obj
 0001:00002ed0       __local_stdio_scanf_options 0000000140003ed0 f i LIBCMTD:default_local_stdio_options.obj
 0001:00002ee0       __scrt_initialize_default_local_stdio_options 0000000140003ee0 f   LIBCMTD:default_local_stdio_options.obj
 0001:00002f30       __scrt_is_user_matherr_present 0000000140003f30 f   LIBCMTD:matherr_detection.obj
 0001:00002f60       __scrt_get_dyn_tls_init_callback 0000000140003f60 f   LIBCMTD:dyn_tls_init.obj
 0001:00002f70       __scrt_get_dyn_tls_dtor_callback 0000000140003f70 f   LIBCMTD:dyn_tls_dtor.obj
 0001:00002f80       __crt_debugger_hook        0000000140003f80 f   LIBCMTD:utility_desktop.obj
 0001:00002f90       __scrt_fastfail            0000000140003f90 f   LIBCMTD:utility_desktop.obj
 0001:00003130       __scrt_get_show_window_mode 0000000140004130 f   LIBCMTD:utility_desktop.obj
 0001:00003190       __scrt_initialize_mta      0000000140004190 f   LIBCMTD:utility_desktop.obj
 0001:000031a0       __scrt_is_managed_app      00000001400041a0 f   LIBCMTD:utility_desktop.obj
 0001:00003250       __scrt_set_unhandled_exception_filter 0000000140004250 f   LIBCMTD:utility_desktop.obj
 0001:00003270       __scrt_unhandled_exception_filter 0000000140004270 f   LIBCMTD:utility_desktop.obj
 0001:00003310       _RTC_Initialize            0000000140004310 f   LIBCMTD:initsect.obj
 0001:00003360       _RTC_Terminate             0000000140004360 f   LIBCMTD:initsect.obj
 0001:000033b0       ??1?$__crt_simd_cleanup_guard@$0A@@@QEAA@XZ 00000001400043b0 f i libucrtd:strnlen.obj
 0001:000033b0       ??1scoped_global_state_reset@__crt_state_management@@QEAA@XZ 00000001400043b0 f i libucrtd:onexit.obj
 0001:000033b0       _guard_check_icall_nop     00000001400043b0 f i LIBCMTD:guard_support.obj
 0001:000033c0       ReadNoFence64              00000001400043c0 f i LIBCMTD:guard_support.obj
 0001:000033c0       ?__crt_interlocked_read_64@@YA_JPED_J@Z 00000001400043c0 f i libvcruntimed:std_type_info.obj
 0001:000033e0       ??$__crt_interlocked_read_pointer@UHINSTANCE__@@@@YAPEAUHINSTANCE__@@PEDSEAU0@@Z 00000001400043e0 f i libvcruntimed:winapi_downlevel.obj
 0001:000033e0       ??$__crt_interlocked_read_pointer@X@@YAPEAXPEDSEAX@Z 00000001400043e0 f i libvcruntimed:winapi_downlevel.obj
 0001:000033e0       ReadPointerNoFence         00000001400043e0 f i LIBCMTD:guard_support.obj
 0001:00003400       _guard_icall_checks_enforced 0000000140004400 f i LIBCMTD:guard_support.obj
 0001:00003440       __isa_available_init       0000000140004440 f   LIBCMTD:cpu_disp.obj
 0001:000037e0       __scrt_is_ucrt_dll_in_use  00000001400047e0 f   LIBCMTD:ucrt_detection.obj
 0001:00003810       __C_specific_handler       0000000140004810 f   libvcruntimed:riscchandler.obj
 0001:00003c80       __vcrt_initialize          0000000140004c80 f   libvcruntimed:initialization.obj
 0001:00003cc0       __vcrt_uninitialize        0000000140004cc0 f   libvcruntimed:initialization.obj
 0001:00003ce0       ??$?RU__crt_multibyte_data@@@__crt_internal_free_policy@@QEBAXQEBU__crt_multibyte_data@@@Z 0000000140004ce0 f i libucrtd:wsetlocale.obj
 0001:00003ce0       ??$?RU__vcrt_ptd@@@__crt_internal_free_policy@@QEBAXQEBU__vcrt_ptd@@@Z 0000000140004ce0 f i libvcruntimed:per_thread_data.obj
 0001:00003ce0       ??$?RP6AXXZ@__crt_internal_free_policy@@QEBAXQEBQ6AXXZ@Z 0000000140004ce0 f i libucrtd:onexit.obj
 0001:00003ce0       ??$?RPEAD@__crt_internal_free_policy@@QEBAXQEBQEAD@Z 0000000140004ce0 f i libucrtd:argv_parsing.obj
 0001:00003ce0       ??$?RD@__crt_internal_free_policy@@QEBAXQEBD@Z 0000000140004ce0 f i libvcruntimed:std_type_info.obj
 0001:00003ce0       ??$?RPEAU__crt_stdio_stream_data@@@__crt_internal_free_policy@@QEBAXQEBQEAU__crt_stdio_stream_data@@@Z 0000000140004ce0 f i libucrtd:_file.obj
 0001:00003ce0       ??$?RU__acrt_ptd@@@__crt_internal_free_policy@@QEBAXQEBU__acrt_ptd@@@Z 0000000140004ce0 f i libucrtd:per_thread_data.obj
 0001:00003ce0       ??$?RU__crt_lowio_handle_data@@@__crt_internal_free_policy@@QEBAXQEBU__crt_lowio_handle_data@@@Z 0000000140004ce0 f i libucrtd:osfinfo.obj
 0001:00003ce0       ??$?RE@__crt_internal_free_policy@@QEBAXQEBE@Z 0000000140004ce0 f i libucrtd:argv_parsing.obj
 0001:00003d10       ??0?$__crt_unique_heap_ptr@U__crt_multibyte_data@@U__crt_internal_free_policy@@@@QEAA@QEAU__crt_multibyte_data@@@Z 0000000140004d10 f i libucrtd:wsetlocale.obj
 0001:00003d10       ??0?$__crt_unique_heap_ptr@P6AXXZU__crt_internal_free_policy@@@@QEAA@QEAP6AXXZ@Z 0000000140004d10 f i libucrtd:onexit.obj
 0001:00003d10       ??0?$__crt_unique_heap_ptr@PEAU__crt_stdio_stream_data@@U__crt_internal_free_policy@@@@QEAA@QEAPEAU__crt_stdio_stream_data@@@Z 0000000140004d10 f i libucrtd:_file.obj
 0001:00003d10       ??0?$__crt_unique_heap_ptr@DU__crt_public_free_policy@@@@QEAA@QEAD@Z 0000000140004d10 f i libvcruntimed:std_exception.obj
 0001:00003d10       ??0?$__crt_unique_heap_ptr@PEADU__crt_internal_free_policy@@@@QEAA@QEAPEAD@Z 0000000140004d10 f i libucrtd:argv_parsing.obj
 0001:00003d10       ??0?$__crt_unique_heap_ptr@DU__crt_internal_free_policy@@@@QEAA@QEAD@Z 0000000140004d10 f i libvcruntimed:std_type_info.obj
 0001:00003d10       ??0?$__crt_scoped_stack_ptr@_W@@QEAA@U?$__crt_scoped_stack_ptr_tag@_W@@@Z 0000000140004d10 f i libucrtd:getstringtypea.obj
 0001:00003d10       ??0?$__crt_unique_heap_ptr@U__vcrt_ptd@@U__crt_internal_free_policy@@@@QEAA@QEAU__vcrt_ptd@@@Z 0000000140004d10 f i libvcruntimed:per_thread_data.obj
 0001:00003d10       ??0?$__crt_unique_handle_t@U__crt_hmodule_traits@@@@QEAA@QEAUHINSTANCE__@@@Z 0000000140004d10 f i libucrtd:exit.obj
 0001:00003d10       ??0?$__crt_unique_heap_ptr@U__acrt_ptd@@U__crt_internal_free_policy@@@@QEAA@QEAU__acrt_ptd@@@Z 0000000140004d10 f i libucrtd:per_thread_data.obj
 0001:00003d10       ??0?$__crt_unique_heap_ptr@U__crt_lowio_handle_data@@U__crt_internal_free_policy@@@@QEAA@QEAU__crt_lowio_handle_data@@@Z 0000000140004d10 f i libucrtd:osfinfo.obj
 0001:00003d10       ??0?$__crt_scoped_stack_ptr_tag@_W@@QEAA@QEA_W@Z 0000000140004d10 f i libucrtd:getstringtypea.obj
 0001:00003d10       ??0?$string_output_adapter@D@__crt_stdio_output@@QEAA@QEAU?$string_output_adapter_context@D@1@@Z 0000000140004d10 f i libucrtd:output.obj
 0001:00003d10       ??0?$__crt_unique_handle_t@U__crt_findfile_traits@@@@QEAA@QEAX@Z 0000000140004d10 f i libucrtd:argv_wildcards.obj
 0001:00003d10       ??0?$string_output_adapter@_W@__crt_stdio_output@@QEAA@QEAU?$string_output_adapter_context@_W@1@@Z 0000000140004d10 f i libucrtd:output.obj
 0001:00003d10       ??0?$__crt_unique_heap_ptr@EU__crt_internal_free_policy@@@@QEAA@QEAE@Z 0000000140004d10 f i libucrtd:argv_parsing.obj
 0001:00003d10       ??0__crt_stdio_stream@@QEAA@QEAU_iobuf@@@Z 0000000140004d10 f i libucrtd:assert.obj
 0001:00003d10       ??0__crt_stdio_stream@@QEAA@QEAU__crt_stdio_stream_data@@@Z 0000000140004d10 f i libucrtd:fflush.obj
 0001:00003d30       ??1?$__crt_unique_heap_ptr@DU__crt_internal_free_policy@@@@QEAA@XZ 0000000140004d30 f i libvcruntimed:std_type_info.obj
 0001:00003d30       ??1?$__crt_unique_heap_ptr@PEADU__crt_internal_free_policy@@@@QEAA@XZ 0000000140004d30 f i libucrtd:argv_parsing.obj
 0001:00003d30       ??1?$__crt_unique_heap_ptr@U__crt_multibyte_data@@U__crt_internal_free_policy@@@@QEAA@XZ 0000000140004d30 f i libucrtd:wsetlocale.obj
 0001:00003d30       ??1?$__crt_unique_heap_ptr@U__vcrt_ptd@@U__crt_internal_free_policy@@@@QEAA@XZ 0000000140004d30 f i libvcruntimed:per_thread_data.obj
 0001:00003d30       ??1?$__crt_unique_heap_ptr@U__acrt_ptd@@U__crt_internal_free_policy@@@@QEAA@XZ 0000000140004d30 f i libucrtd:per_thread_data.obj
 0001:00003d30       ??1?$__crt_unique_heap_ptr@EU__crt_internal_free_policy@@@@QEAA@XZ 0000000140004d30 f i libucrtd:argv_parsing.obj
 0001:00003d30       ??1?$__crt_unique_heap_ptr@PEAU__crt_stdio_stream_data@@U__crt_internal_free_policy@@@@QEAA@XZ 0000000140004d30 f i libucrtd:_file.obj
 0001:00003d30       ??1?$__crt_unique_heap_ptr@U__crt_lowio_handle_data@@U__crt_internal_free_policy@@@@QEAA@XZ 0000000140004d30 f i libucrtd:osfinfo.obj
 0001:00003d30       ??1?$__crt_unique_heap_ptr@P6AXXZU__crt_internal_free_policy@@@@QEAA@XZ 0000000140004d30 f i libucrtd:onexit.obj
 0001:00003d50       ??B?$__crt_unique_heap_ptr@U__crt_lowio_handle_data@@U__crt_internal_free_policy@@@@QEBA_NXZ 0000000140004d50 f i libucrtd:osfinfo.obj
 0001:00003d50       ??B?$__crt_unique_heap_ptr@EU__crt_internal_free_policy@@@@QEBA_NXZ 0000000140004d50 f i libucrtd:argv_parsing.obj
 0001:00003d50       ??B?$__crt_unique_heap_ptr@U__crt_multibyte_data@@U__crt_internal_free_policy@@@@QEBA_NXZ 0000000140004d50 f i libucrtd:wsetlocale.obj
 0001:00003d50       ??B?$__crt_unique_heap_ptr@U__acrt_ptd@@U__crt_internal_free_policy@@@@QEBA_NXZ 0000000140004d50 f i libucrtd:per_thread_data.obj
 0001:00003d50       ??B?$__crt_unique_heap_ptr@U__vcrt_ptd@@U__crt_internal_free_policy@@@@QEBA_NXZ 0000000140004d50 f i libvcruntimed:per_thread_data.obj
 0001:00003d50       ??B?$__crt_unique_heap_ptr@DU__crt_internal_free_policy@@@@QEBA_NXZ 0000000140004d50 f i libvcruntimed:std_type_info.obj
 0001:00003d50       ??B?$__crt_unique_heap_ptr@DU__crt_public_free_policy@@@@QEBA_NXZ 0000000140004d50 f i libvcruntimed:std_exception.obj
 0001:00003d70       ?get@?$__crt_unique_handle_t@U__crt_findfile_traits@@@@QEBAPEAXXZ 0000000140004d70 f i libucrtd:argv_wildcards.obj
 0001:00003d70       ?get@?$__crt_unique_heap_ptr@U__vcrt_ptd@@U__crt_internal_free_policy@@@@QEBAPEAU__vcrt_ptd@@XZ 0000000140004d70 f i libvcruntimed:per_thread_data.obj
 0001:00003d70       ?get@?$__crt_unique_heap_ptr@EU__crt_internal_free_policy@@@@QEBAPEAEXZ 0000000140004d70 f i libucrtd:argv_parsing.obj
 0001:00003d70       ?get@?$__crt_unique_heap_ptr@U__acrt_ptd@@U__crt_internal_free_policy@@@@QEBAPEAU__acrt_ptd@@XZ 0000000140004d70 f i libucrtd:per_thread_data.obj
 0001:00003d70       ?save_state@?$c_string_character_source@D@__crt_strtox@@QEBAPEBDXZ 0000000140004d70 f i libucrtd:atox.obj
 0001:00003d70       ?get@?$__crt_unique_heap_ptr@U__crt_lowio_handle_data@@U__crt_internal_free_policy@@@@QEBAPEAU__crt_lowio_handle_data@@XZ 0000000140004d70 f i libucrtd:osfinfo.obj
 0001:00003d70       ?get@?$__crt_unique_heap_ptr@U__crt_multibyte_data@@U__crt_internal_free_policy@@@@QEBAPEAU__crt_multibyte_data@@XZ 0000000140004d70 f i libucrtd:wsetlocale.obj
 0001:00003d70       ?get@?$__crt_unique_heap_ptr@DU__crt_internal_free_policy@@@@QEBAPEADXZ 0000000140004d70 f i libvcruntimed:std_type_info.obj
 0001:00003d70       ??C__crt_stdio_stream@@QEBAPEAU__crt_stdio_stream_data@@XZ 0000000140004d70 f i libucrtd:output.obj
 0001:00003d70       ?get@?$__crt_scoped_stack_ptr@_W@@QEBAPEA_WXZ 0000000140004d70 f i libucrtd:getstringtypea.obj
 0001:00003d70       ?public_stream@__crt_stdio_stream@@QEBAPEAU_iobuf@@XZ 0000000140004d70 f i libucrtd:output.obj
 0001:00003d70       ?get@?$__crt_unique_heap_ptr@DU__crt_public_free_policy@@@@QEBAPEADXZ 0000000140004d70 f i libvcruntimed:std_exception.obj
 0001:00003d70       ?save_state@?$c_string_character_source@_W@__crt_strtox@@QEBAPEB_WXZ 0000000140004d70 f i libucrtd:atox.obj
 0001:00003d70       ?get@?$__crt_unique_heap_ptr@PEADU__crt_internal_free_policy@@@@QEBAPEAPEADXZ 0000000140004d70 f i libucrtd:argv_parsing.obj
 0001:00003d70       ?get@?$__crt_unique_handle_t@U__crt_hmodule_traits@@@@QEBAPEAUHINSTANCE__@@XZ 0000000140004d70 f i libucrtd:exit.obj
 0001:00003d80       ?is_valid@?$__crt_unique_heap_ptr@U__vcrt_ptd@@U__crt_internal_free_policy@@@@QEBA_NXZ 0000000140004d80 f i libvcruntimed:per_thread_data.obj
 0001:00003d80       ?is_valid@?$__crt_unique_heap_ptr@U__crt_multibyte_data@@U__crt_internal_free_policy@@@@QEBA_NXZ 0000000140004d80 f i libucrtd:wsetlocale.obj
 0001:00003d80       ?is_valid@?$__crt_unique_heap_ptr@EU__crt_internal_free_policy@@@@QEBA_NXZ 0000000140004d80 f i libucrtd:argv_parsing.obj
 0001:00003d80       ?is_valid@?$__crt_unique_heap_ptr@DU__crt_internal_free_policy@@@@QEBA_NXZ 0000000140004d80 f i libvcruntimed:std_type_info.obj
 0001:00003d80       ?valid@__crt_stdio_stream@@QEBA_NXZ 0000000140004d80 f i libucrtd:output.obj
 0001:00003d80       ??B?$__crt_scoped_stack_ptr@_W@@QEBA_NXZ 0000000140004d80 f i libucrtd:lcmapstringa.obj
 0001:00003d80       ?is_valid@?$__crt_unique_heap_ptr@U__crt_lowio_handle_data@@U__crt_internal_free_policy@@@@QEBA_NXZ 0000000140004d80 f i libucrtd:osfinfo.obj
 0001:00003d80       ?is_valid@?$__crt_unique_heap_ptr@U__acrt_ptd@@U__crt_internal_free_policy@@@@QEBA_NXZ 0000000140004d80 f i libucrtd:per_thread_data.obj
 0001:00003d80       ?is_valid@?$__crt_unique_heap_ptr@DU__crt_public_free_policy@@@@QEBA_NXZ 0000000140004d80 f i libvcruntimed:std_exception.obj
 0001:00003db0       ?release@?$__crt_unique_heap_ptr@U__crt_lowio_handle_data@@U__crt_internal_free_policy@@@@QEAAXXZ 0000000140004db0 f i libucrtd:osfinfo.obj
 0001:00003db0       ?release@?$__crt_unique_heap_ptr@PEAU__crt_stdio_stream_data@@U__crt_internal_free_policy@@@@QEAAXXZ 0000000140004db0 f i libucrtd:_file.obj
 0001:00003db0       ?release@?$__crt_unique_heap_ptr@EU__crt_internal_free_policy@@@@QEAAXXZ 0000000140004db0 f i libucrtd:argv_parsing.obj
 0001:00003db0       ?release@?$__crt_unique_heap_ptr@P6AXXZU__crt_internal_free_policy@@@@QEAAXXZ 0000000140004db0 f i libucrtd:onexit.obj
 0001:00003db0       ?release@?$__crt_unique_heap_ptr@U__acrt_ptd@@U__crt_internal_free_policy@@@@QEAAXXZ 0000000140004db0 f i libucrtd:per_thread_data.obj
 0001:00003db0       ?release@?$__crt_unique_heap_ptr@PEADU__crt_internal_free_policy@@@@QEAAXXZ 0000000140004db0 f i libucrtd:argv_parsing.obj
 0001:00003db0       ?release@?$__crt_unique_heap_ptr@U__vcrt_ptd@@U__crt_internal_free_policy@@@@QEAAXXZ 0000000140004db0 f i libvcruntimed:per_thread_data.obj
 0001:00003db0       ?release@?$__crt_unique_heap_ptr@DU__crt_internal_free_policy@@@@QEAAXXZ 0000000140004db0 f i libvcruntimed:std_type_info.obj
 0001:00003db0       ?release@?$__crt_unique_heap_ptr@U__crt_multibyte_data@@U__crt_internal_free_policy@@@@QEAAXXZ 0000000140004db0 f i libucrtd:wsetlocale.obj
 0001:00003de0       __std_type_info_compare    0000000140004de0 f   libvcruntimed:std_type_info.obj
 0001:00003e20       __DestructExceptionObject  0000000140004e20 f   libvcruntimed:ehhelpers.obj
 0001:00003f20       ?_CallMemberFunction0@@YAXQEAX0@Z 0000000140004f20 f i libvcruntimed:ehhelpers.obj
 0001:00003ff0       _IsExceptionObjectToBeDestroyed 0000000140004ff0 f   libvcruntimed:ehhelpers.obj
 0001:00004040       __AdjustPointer            0000000140005040 f   libvcruntimed:ehhelpers.obj
 0001:000040c0       __FrameUnwindFilter        00000001400050c0 f   libvcruntimed:ehhelpers.obj
 0001:00004170       __current_exception        0000000140005170 f   libvcruntimed:ehhelpers.obj
 0001:00004190       __current_exception_context 0000000140005190 f   libvcruntimed:ehhelpers.obj
 0001:000041c0       _NLG_Notify                00000001400051c0 f   libvcruntimed:notify.obj
 0001:000041e0       __NLG_Dispatch2            00000001400051e0 f   libvcruntimed:notify.obj
 0001:000041f0       __NLG_Return2              00000001400051f0 f   libvcruntimed:notify.obj
 0001:00004200       __except_validate_context_record 0000000140005200 f   libvcruntimed:jbcxrval.obj
 0001:000042a0       ?detach@?$__crt_unique_heap_ptr@U__vcrt_ptd@@U__crt_internal_free_policy@@@@QEAAPEAU__vcrt_ptd@@XZ 00000001400052a0 f i libvcruntimed:per_thread_data.obj
 0001:000042a0       ?detach@?$__crt_unique_heap_ptr@U__acrt_ptd@@U__crt_internal_free_policy@@@@QEAAPEAU__acrt_ptd@@XZ 00000001400052a0 f i libucrtd:per_thread_data.obj
 0001:000042a0       ?detach@?$__crt_unique_heap_ptr@PEAU__crt_stdio_stream_data@@U__crt_internal_free_policy@@@@QEAAPEAPEAU__crt_stdio_stream_data@@XZ 00000001400052a0 f i libucrtd:_file.obj
 0001:000042a0       ?detach@?$__crt_unique_heap_ptr@P6AXXZU__crt_internal_free_policy@@@@QEAAPEAP6AXXZXZ 00000001400052a0 f i libucrtd:onexit.obj
 0001:000042a0       ?detach@?$__crt_unique_heap_ptr@U__crt_multibyte_data@@U__crt_internal_free_policy@@@@QEAAPEAU__crt_multibyte_data@@XZ 00000001400052a0 f i libucrtd:wsetlocale.obj
 0001:000042a0       ?detach@?$__crt_unique_heap_ptr@PEADU__crt_internal_free_policy@@@@QEAAPEAPEADXZ 00000001400052a0 f i libucrtd:argv_parsing.obj
 0001:000042a0       ?detach@?$__crt_unique_heap_ptr@U__crt_lowio_handle_data@@U__crt_internal_free_policy@@@@QEAAPEAU__crt_lowio_handle_data@@XZ 00000001400052a0 f i libucrtd:osfinfo.obj
 0001:000042a0       ?detach@?$__crt_unique_heap_ptr@EU__crt_internal_free_policy@@@@QEAAPEAEXZ 00000001400052a0 f i libucrtd:argv_parsing.obj
 0001:000042a0       ?detach@?$__crt_unique_heap_ptr@DU__crt_public_free_policy@@@@QEAAPEADXZ 00000001400052a0 f i libvcruntimed:std_exception.obj
 0001:00004310       __vcrt_freefls             0000000140005310 f   libvcruntimed:per_thread_data.obj
 0001:00004350       __vcrt_getptd              0000000140005350 f   libvcruntimed:per_thread_data.obj
 0001:00004380       __vcrt_getptd_noexit       0000000140005380 f   libvcruntimed:per_thread_data.obj
 0001:00004520       __vcrt_initialize_ptd      0000000140005520 f   libvcruntimed:per_thread_data.obj
 0001:00004570       __vcrt_uninitialize_ptd    0000000140005570 f   libvcruntimed:per_thread_data.obj
 0001:000045a0       __vcrt_initialize_locks    00000001400055a0 f   libvcruntimed:locks.obj
 0001:00004610       __vcrt_uninitialize_locks  0000000140005610 f   libvcruntimed:locks.obj
 0001:00004670       _vsprintf_s_l              0000000140005670 f i libvcruntimed:undname.obj
 0001:000046e0       sprintf_s                  00000001400056e0 f i libvcruntimed:undname.obj
 0001:00004740       ??$__crt_interlocked_exchange_pointer@UHINSTANCE__@@PEAU1@@@YAPEAUHINSTANCE__@@PEDSEAU0@QEAU0@@Z 0000000140005740 f i libvcruntimed:winapi_downlevel.obj
 0001:00004740       ??$__crt_interlocked_exchange_pointer@UHINSTANCE__@@PEAX@@YAPEAUHINSTANCE__@@PEDSEAU0@QEAX@Z 0000000140005740 f i libvcruntimed:winapi_downlevel.obj
 0001:00004740       ??$__crt_interlocked_exchange_pointer@XPEAX@@YAPEAXPEDSEAXQEAX@Z 0000000140005740 f i libvcruntimed:winapi_downlevel.obj
 0001:00004760       ?get_invalid_value@__crt_findfile_traits@@SAPEAXXZ 0000000140005760 f   libucrtd:argv_wildcards.obj
 0001:00004c50       __vcrt_FlsAlloc            0000000140005c50 f   libvcruntimed:winapi_downlevel.obj
 0001:00004ca0       __vcrt_FlsFree             0000000140005ca0 f   libvcruntimed:winapi_downlevel.obj
 0001:00004cf0       __vcrt_FlsGetValue         0000000140005cf0 f   libvcruntimed:winapi_downlevel.obj
 0001:00004d40       __vcrt_FlsSetValue         0000000140005d40 f   libvcruntimed:winapi_downlevel.obj
 0001:00004da0       __vcrt_InitializeCriticalSectionEx 0000000140005da0 f   libvcruntimed:winapi_downlevel.obj
 0001:00004e20       memcpy_repmovs             0000000140005e20 f   libvcruntimed:memcpy.obj
 0001:00004e40       memcpy                     0000000140005e40 f   libvcruntimed:memcpy.obj
 0001:00004e40       memmove                    0000000140005e40 f   libvcruntimed:memcpy.obj
 0001:000054c0       ??$?0AEAViterator@TryBlockMap@__FrameHandler3@@AEAV012@$0A@@?$pair@Viterator@TryBlockMap@__FrameHandler3@@V123@@std@@QEAA@AEAViterator@TryBlockMap@__FrameHandler3@@0@Z 00000001400064c0 f i libvcruntimed:risctrnsctrl.obj
 0001:000055d0       ??$_CallSETranslator@V__FrameHandler3@@@@YAHPEAUEHExceptionRecord@@PEA_KPEAU_CONTEXT@@PEAU_xDISPATCHER_CONTEXT@@PEBU_s_FuncInfo@@K1H@Z 00000001400065d0 f i libvcruntimed:risctrnsctrl.obj
 0001:00005660       ?debug_info@?$__crt_win32_buffer@_WU__crt_win32_buffer_internal_dynamic_resizing@@@@QEBAAEBV__crt_win32_buffer_empty_debug_info@@XZ 0000000140006660 f i libucrtd:argv_wildcards.obj
 0001:00005660       ?debug_info@?$__crt_win32_buffer@DU__crt_win32_buffer_no_resizing@@@@QEBAAEBV__crt_win32_buffer_empty_debug_info@@XZ 0000000140006660 f i libucrtd:getmodulefilenamea.obj
 0001:00005660       ?dangerous_get_state_array@?$dual_state_global@P6AXPEB_W00I_K@Z@__crt_state_management@@QEAAPEAP6AXPEB_W00I_K@ZXZ 0000000140006660 f i libucrtd:invalid_parameter.obj
 0001:00005660       ?get_address_of@?$__crt_unique_heap_ptr@PEADU__crt_internal_free_policy@@@@QEAAPEAPEAPEADXZ 0000000140006660 f i libucrtd:argv_parsing.obj
 0001:00005660       ?dangerous_get_state_array@?$dual_state_global@H@__crt_state_management@@QEAAPEAHXZ 0000000140006660 f i libucrtd:txtmode.obj
 0001:00005660       ?dangerous_get_state_array@?$dual_state_global@PEAU__crt_locale_data@@@__crt_state_management@@QEAAPEAPEAU__crt_locale_data@@XZ 0000000140006660 f i libucrtd:per_thread_data.obj
 0001:00005660       ?dangerous_get_state_array@?$dual_state_global@PEAE@__crt_state_management@@QEAAPEAPEAEXZ 0000000140006660 f i libucrtd:mbctype.obj
 0001:00005660       ??$forward@AEAViterator@TryBlockMap@__FrameHandler3@@@std@@YAAEAViterator@TryBlockMap@__FrameHandler3@@AEAV123@@Z 0000000140006660 f i libvcruntimed:risctrnsctrl.obj
 0001:00005660       ?debug_info@?$__crt_win32_buffer@DU__crt_win32_buffer_internal_dynamic_resizing@@@@QEBAAEBV__crt_win32_buffer_empty_debug_info@@XZ 0000000140006660 f i libucrtd:argv_wildcards.obj
 0001:00005660       ?dangerous_get_state_array@?$dual_state_global@PEAU__crt_multibyte_data@@@__crt_state_management@@QEAAPEAPEAU__crt_multibyte_data@@XZ 0000000140006660 f i libucrtd:mbctype.obj
 0001:00005660       ?get_address_of@?$__crt_unique_handle_t@U__crt_hmodule_traits@@@@QEAAPEAPEAUHINSTANCE__@@XZ 0000000140006660 f i libucrtd:exit.obj
 0001:00005670       ??0iterator@HandlerMap@__FrameHandler3@@QEAA@AEAV12@I@Z 0000000140006670 f i libvcruntimed:frame.obj
 0001:00005670       ??0iterator@TryBlockMap@__FrameHandler3@@QEAA@AEAV12@I@Z 0000000140006670 f i libvcruntimed:risctrnsctrl.obj
 0001:000056a0       ?CatchTryBlock@__FrameHandler3@@SAPEBU_s_TryBlockMapEntry@@PEBU_s_FuncInfo@@H@Z 00000001400066a0 f   libvcruntimed:risctrnsctrl.obj
 0001:00005730       ?ExecutionInCatch@__FrameHandler3@@SA_NPEAU_xDISPATCHER_CONTEXT@@PEBU_s_FuncInfo@@@Z 0000000140006730 f   libvcruntimed:risctrnsctrl.obj
 0001:00005780       ?FrameUnwindToEmptyState@__FrameHandler3@@SAXPEA_KPEAU_xDISPATCHER_CONTEXT@@PEBU_s_FuncInfo@@@Z 0000000140006780 f   libvcruntimed:risctrnsctrl.obj
 0001:00005820       ?GetEstablisherFrame@__FrameHandler3@@SAPEA_KPEA_KPEAU_xDISPATCHER_CONTEXT@@PEBU_s_FuncInfo@@0@Z 0000000140006820 f   libvcruntimed:risctrnsctrl.obj
 0001:00005990       ?GetRangeOfTrysToCheck@__FrameHandler3@@SA?AU?$pair@Viterator@TryBlockMap@__FrameHandler3@@V123@@std@@AEAVTryBlockMap@1@HPEAU_xDISPATCHER_CONTEXT@@PEBU_s_FuncInfo@@H@Z 0000000140006990 f   libvcruntimed:risctrnsctrl.obj
 0001:00005bd0       ?UnwindNestedFrames@__FrameHandler3@@SAXPEA_KPEAUEHExceptionRecord@@PEAU_CONTEXT@@0PEAXPEBU_s_FuncInfo@@HHPEBU_s_HandlerType@@PEAU_xDISPATCHER_CONTEXT@@E@Z 0000000140006bd0 f   libvcruntimed:risctrnsctrl.obj
 0001:00005d40       _CreateFrameInfo           0000000140006d40 f   libvcruntimed:risctrnsctrl.obj
 0001:00005db0       _FindAndUnlinkFrame        0000000140006db0 f   libvcruntimed:risctrnsctrl.obj
 0001:00005e30       _GetImageBase              0000000140006e30 f   libvcruntimed:risctrnsctrl.obj
 0001:00005e50       _GetThrowImageBase         0000000140006e50 f   libvcruntimed:risctrnsctrl.obj
 0001:00005e70       _SetImageBase              0000000140006e70 f   libvcruntimed:risctrnsctrl.obj
 0001:00005e90       _SetThrowImageBase         0000000140006e90 f   libvcruntimed:risctrnsctrl.obj
 0001:00005eb0       __CxxFrameHandler3         0000000140006eb0 f   libvcruntimed:risctrnsctrl.obj
 0001:00005f90       ?GetCurrentState@__FrameHandler3@@SAHPEA_KPEAU_xDISPATCHER_CONTEXT@@PEBU_s_FuncInfo@@@Z 0000000140006f90 f   libvcruntimed:ehstate.obj
 0001:00005ff0       ?GetUnwindTryBlock@__FrameHandler3@@SAHPEA_KPEAU_xDISPATCHER_CONTEXT@@PEBU_s_FuncInfo@@@Z 0000000140006ff0 f   libvcruntimed:ehstate.obj
 0001:00006040       ?SetState@__FrameHandler3@@SAXPEA_KPEBU_s_FuncInfo@@H@Z 0000000140007040 f   libvcruntimed:ehstate.obj
 0001:00006070       ?SetUnwindTryBlock@__FrameHandler3@@SAXPEA_KPEAU_xDISPATCHER_CONTEXT@@PEBU_s_FuncInfo@@H@Z 0000000140007070 f   libvcruntimed:ehstate.obj
 0001:000060e0       ?StateFromControlPc@__FrameHandler3@@SAHPEBU_s_FuncInfo@@PEAU_xDISPATCHER_CONTEXT@@@Z 00000001400070e0 f   libvcruntimed:ehstate.obj
 0001:00006120       ?StateFromIp@__FrameHandler3@@SAHPEBU_s_FuncInfo@@PEAU_xDISPATCHER_CONTEXT@@_K@Z 0000000140007120 f   libvcruntimed:ehstate.obj
 0001:00006210       ?__RVAtoRealOffset@@YA_KPEAU_xDISPATCHER_CONTEXT@@H@Z 0000000140007210 f i libvcruntimed:ehstate.obj
 0001:000073e0       ??$TypeMatchHelper@V__FrameHandler3@@@@YAHPEBU_s_HandlerType@@PEBU_s_CatchableType@@PEBU_s_ThrowInfo@@@Z 00000001400083e0 f i libvcruntimed:frame.obj
 0001:000075e0       ??$__InternalCxxFrameHandler@V__FrameHandler3@@@@YA?AW4_EXCEPTION_DISPOSITION@@PEAUEHExceptionRecord@@PEA_KPEAU_CONTEXT@@PEAU_xDISPATCHER_CONTEXT@@PEBU_s_FuncInfo@@H1E@Z 00000001400085e0 f i libvcruntimed:frame.obj
 0001:00007a50       ??0HandlerMap@__FrameHandler3@@QEAA@PEBU_s_TryBlockMapEntry@@_KI@Z 0000000140008a50 f i libvcruntimed:frame.obj
 0001:00007aa0       ??0TryBlockMap@__FrameHandler3@@QEAA@PEBU_s_FuncInfo@@_K@Z 0000000140008aa0 f i libvcruntimed:frame.obj
 0001:00007ad0       ??0bad_exception@std@@QEAA@AEBV01@@Z 0000000140008ad0 f i libvcruntimed:frame.obj
 0001:00007b10       ??0bad_exception@std@@QEAA@XZ 0000000140008b10 f i libvcruntimed:frame.obj
 0001:00007b50       ??0exception@std@@QEAA@AEBV01@@Z 0000000140008b50 f i libvcruntimed:frame.obj
 0001:00007bb0       ??0exception@std@@QEAA@QEBDH@Z 0000000140008bb0 f i libvcruntimed:frame.obj
 0001:00007c00       ??1bad_exception@std@@UEAA@XZ 0000000140008c00 f i libvcruntimed:frame.obj
 0001:00007c20       ??1exception@std@@UEAA@XZ  0000000140008c20 f i libvcruntimed:frame.obj
 0001:00007c50       ??8iterator@HandlerMap@__FrameHandler3@@QEBA_NAEBV012@@Z 0000000140008c50 f i libvcruntimed:frame.obj
 0001:00007c90       ??8type_info@@QEBA_NAEBV0@@Z 0000000140008c90 f i libvcruntimed:frame.obj
 0001:00007ce0       ??9iterator@HandlerMap@__FrameHandler3@@QEBA_NAEBV012@@Z 0000000140008ce0 f i libvcruntimed:frame.obj
 0001:00007d20       ??Diterator@HandlerMap@__FrameHandler3@@QEAA?BU_s_HandlerType@@XZ 0000000140008d20 f i libvcruntimed:frame.obj
 0001:00007d60       ??Diterator@TryBlockMap@__FrameHandler3@@QEAA?BU_s_TryBlockMapEntry@@XZ 0000000140008d60 f i libvcruntimed:frame.obj
 0001:00007db0       ??Eiterator@TryBlockMap@__FrameHandler3@@QEAAAEAV012@XZ 0000000140008db0 f i libvcruntimed:frame.obj
 0001:00007db0       ??Eiterator@HandlerMap@__FrameHandler3@@QEAAAEAV012@XZ 0000000140008db0 f i libvcruntimed:frame.obj
 0001:00007dd0       ??Miterator@TryBlockMap@__FrameHandler3@@QEBA_NAEBV012@@Z 0000000140008dd0 f i libvcruntimed:frame.obj
 0001:00007e10       ??_Gbad_exception@std@@UEAAPEAXI@Z 0000000140008e10 f i libvcruntimed:frame.obj
 0001:00007e10       ??_Ebad_exception@std@@UEAAPEAXI@Z 0000000140008e10 f i libvcruntimed:frame.obj
 0001:00007e50       ??_Eexception@std@@UEAAPEAXI@Z 0000000140008e50 f i libvcruntimed:frame.obj
 0001:00007e50       ??_Gexception@std@@UEAAPEAXI@Z 0000000140008e50 f i libvcruntimed:frame.obj
 0001:00007e90       ?BuildCatchObject@__FrameHandler3@@SAXPEAUEHExceptionRecord@@PEAXPEBU_s_HandlerType@@PEBU_s_CatchableType@@@Z 0000000140008e90 f   libvcruntimed:frame.obj
 0001:00007ed0       ?CxxCallCatchBlock@__FrameHandler3@@SAPEAXPEAU_EXCEPTION_RECORD@@@Z 0000000140008ed0 f   libvcruntimed:frame.obj
 0001:00008230       ?FrameUnwindToState@__FrameHandler3@@SAXPEA_KPEAU_xDISPATCHER_CONTEXT@@PEBU_s_FuncInfo@@H@Z 0000000140009230 f   libvcruntimed:frame.obj
 0001:00008480       ?GetHandlerSearchState@__FrameHandler3@@SAHPEA_KPEAU_xDISPATCHER_CONTEXT@@PEBU_s_FuncInfo@@@Z 0000000140009480 f i libvcruntimed:frame.obj
 0001:00008530       ?GetMaxState@__FrameHandler3@@SAHPEAU_xDISPATCHER_CONTEXT@@PEBU_s_FuncInfo@@@Z 0000000140009530 f i libvcruntimed:frame.obj
 0001:00008730       ?TypeMatch@__FrameHandler3@@SAHPEBU_s_HandlerType@@PEBU_s_CatchableType@@PEBU_s_ThrowInfo@@@Z 0000000140009730 f   libvcruntimed:frame.obj
 0001:00008730       __TypeMatch                0000000140009730 f   libvcruntimed:frame.obj
 0001:00008760       ?_CallMemberFunction1@@YAXQEAX00@Z 0000000140009760 f i libvcruntimed:frame.obj
 0001:000087a0       ?_CallMemberFunction2@@YAXQEAX00H@Z 00000001400097a0 f i libvcruntimed:frame.obj
 0001:00008830       ?begin@HandlerMap@__FrameHandler3@@QEAA?AViterator@12@XZ 0000000140009830 f i libvcruntimed:frame.obj
 0001:00008860       ?end@HandlerMap@__FrameHandler3@@QEAA?AViterator@12@XZ 0000000140009860 f i libvcruntimed:frame.obj
 0001:00008890       ?getESTypes@__FrameHandler3@@SAPEBU_s_ESTypeList@@PEBU_s_FuncInfo@@@Z 0000000140009890 f i libvcruntimed:frame.obj
 0001:000088d0       ?getLastEntry@HandlerMap@__FrameHandler3@@QEAAPEBU_s_HandlerType@@XZ 00000001400098d0 f i libvcruntimed:frame.obj
 0001:000088f0       ?getMagicNum@__FrameHandler3@@SAIPEBU_s_FuncInfo@@@Z 00000001400098f0 f i libvcruntimed:frame.obj
 0001:00008910       ?getNumTryBlocks@TryBlockMap@__FrameHandler3@@QEAAIXZ 0000000140009910 f i libvcruntimed:frame.obj
 0001:00008930       ?isEHs@__FrameHandler3@@SA_NPEBU_s_FuncInfo@@@Z 0000000140009930 f i libvcruntimed:frame.obj
 0001:00008970       ?isNoExcept@__FrameHandler3@@SA_NPEBU_s_FuncInfo@@@Z 0000000140009970 f i libvcruntimed:frame.obj
 0001:000089b0       ?what@exception@std@@UEBAPEBDXZ 00000001400099b0 f i libvcruntimed:frame.obj
 0001:000089f0       __vcrt_EncodePointer       00000001400099f0 f i libvcruntimed:frame.obj
 0001:00008a20       memset_repmovs             0000000140009a20 f   libvcruntimed:memset.obj
 0001:00008a40       memset                     0000000140009a40 f   libvcruntimed:memset.obj
 0001:00008be0       _CallSettingFrame          0000000140009be0 f   libvcruntimed:handlers.obj
 0001:00008c30       _CallSettingFrame_LookupContinuationIndex 0000000140009c30 f   libvcruntimed:handlers.obj
 0001:00008c60       _CallSettingFrame_NotifyContinuationAddr 0000000140009c60 f   libvcruntimed:handlers.obj
 0001:00008c90       _CallSettingFrameEncoded   0000000140009c90 f   libvcruntimed:handlers.obj
 0001:00008ce0       ??$?RD@__crt_public_free_policy@@QEBAXQEBD@Z 0000000140009ce0 f i libvcruntimed:std_exception.obj
 0001:00008d00       ??1?$__crt_unique_heap_ptr@DU__crt_public_free_policy@@@@QEAA@XZ 0000000140009d00 f i libvcruntimed:std_exception.obj
 0001:00008d20       ?release@?$__crt_unique_heap_ptr@DU__crt_public_free_policy@@@@QEAAXXZ 0000000140009d20 f i libvcruntimed:std_exception.obj
 0001:00008d50       __std_exception_copy       0000000140009d50 f   libvcruntimed:std_exception.obj
 0001:00008e90       __std_exception_destroy    0000000140009e90 f   libvcruntimed:std_exception.obj
 0001:00008ed0       _CxxThrowException         0000000140009ed0 f   libvcruntimed:throw.obj
 0001:00009000       ??$__crt_interlocked_read@J@@YAJPEDJ@Z 000000014000a000 f i libucrtd:assert.obj
 0001:0000a090       ??$ftprintf@PEAU_iobuf@@PEB_WAEBQEB_WAEBQEB_WAEBI@?$__crt_char_traits@_W@@SAH$$QEAPEAU_iobuf@@$$QEAPEB_WAEBQEB_W2AEBI@Z 000000014000b090 f i libucrtd:assert.obj
 0001:0000a0e0       ??$get_module_file_name@AEAPEAUHINSTANCE__@@AEAY0BAF@DK@?$__crt_char_traits@D@@SAKAEAPEAUHINSTANCE__@@AEAY0BAF@D$$QEAK@Z 000000014000b0e0 f i libucrtd:assert.obj
 0001:0000a0e0       ??$get_module_file_name@$$TAEAY0BAF@DH@?$__crt_char_traits@D@@SAK$$QEA$$TAEAY0BAF@D$$QEAH@Z 000000014000b0e0 f i libucrtd:argv_parsing.obj
 0001:0000a120       ??$get_module_file_name@AEAPEAUHINSTANCE__@@AEAY0BAF@_WK@?$__crt_char_traits@_W@@SAKAEAPEAUHINSTANCE__@@AEAY0BAF@_W$$QEAK@Z 000000014000b120 f i libucrtd:assert.obj
 0001:0000a160       ??$itot_s@AEBIPEA_W_KH@?$__crt_char_traits@_W@@SAHAEBI$$QEAPEA_W$$QEA_K$$QEAH@Z 000000014000b160 f i libucrtd:assert.obj
 0001:0000a1b0       ??$show_message_box@AEAY0CEA@_WPEB_WJ@?$__crt_char_traits@_W@@SAHAEAY0CEA@_W$$QEAPEB_W$$QEAJ@Z 000000014000b1b0 f i libucrtd:assert.obj
 0001:0000a1f0       ??$tcscat_s@AEBQEA_WAEB_KAEAPEA_W@?$__crt_char_traits@_W@@SAHAEBQEA_WAEB_KAEAPEA_W@Z 000000014000b1f0 f i libucrtd:assert.obj
 0001:0000a1f0       ??$tcscat_s@AEBQEA_WAEB_KPEB_W@?$__crt_char_traits@_W@@SAHAEBQEA_WAEB_K$$QEAPEB_W@Z 000000014000b1f0 f i libucrtd:assert.obj
 0001:0000a1f0       ??$tcscat_s@AEBQEA_WAEB_KAEBQEB_W@?$__crt_char_traits@_W@@SAHAEBQEA_WAEB_KAEBQEB_W@Z 000000014000b1f0 f i libucrtd:assert.obj
 0001:0000a230       ??$tcscpy_s@AEAY0BAF@D_KPEBD@?$__crt_char_traits@D@@SAHAEAY0BAF@D$$QEA_K$$QEAPEBD@Z 000000014000b230 f i libucrtd:assert.obj
 0001:0000a270       ??$tcscpy_s@AEAY0BAF@_W_KPEB_W@?$__crt_char_traits@_W@@SAHAEAY0BAF@_W$$QEA_K$$QEAPEB_W@Z 000000014000b270 f i libucrtd:assert.obj
 0001:0000a2b0       ??$tcscpy_s@AEBQEA_WAEB_KPEB_W@?$__crt_char_traits@_W@@SAHAEBQEA_WAEB_K$$QEAPEB_W@Z 000000014000b2b0 f i libucrtd:assert.obj
 0001:0000a2f0       ??$tcslen@AEAY0BAF@D@?$__crt_char_traits@D@@SA_KAEAY0BAF@D@Z 000000014000b2f0 f i libucrtd:assert.obj
 0001:0000a310       ??$tcslen@AEAY0BAF@_W@?$__crt_char_traits@_W@@SA_KAEAY0BAF@_W@Z 000000014000b310 f i libucrtd:assert.obj
 0001:0000a330       ??$tcslen@AEBQEB_W@?$__crt_char_traits@_W@@SA_KAEBQEB_W@Z 000000014000b330 f i libucrtd:assert.obj
 0001:0000a330       ??$tcslen@AEBQEA_W@?$__crt_char_traits@_W@@SA_KAEBQEA_W@Z 000000014000b330 f i libucrtd:assert.obj
 0001:0000a350       ??$tcslen@AEBQEBD@?$__crt_char_traits@D@@SA_KAEBQEBD@Z 000000014000b350 f i libucrtd:assert.obj
 0001:0000a370       ??$tcsncat_s@AEBQEA_WAEB_KPEB_W_K@?$__crt_char_traits@_W@@SAHAEBQEA_WAEB_K$$QEAPEB_W$$QEA_K@Z 000000014000b370 f i libucrtd:assert.obj
 0001:0000a370       ??$tcsncat_s@AEBQEA_WAEB_KAEBQEB_WAEB_K@?$__crt_char_traits@_W@@SAHAEBQEA_WAEB_KAEBQEB_W1@Z 000000014000b370 f i libucrtd:assert.obj
 0001:0000a370       ??$tcsncat_s@AEBQEA_WAEB_KAEAPEB_W_K@?$__crt_char_traits@_W@@SAHAEBQEA_WAEB_KAEAPEB_W$$QEA_K@Z 000000014000b370 f i libucrtd:assert.obj
 0001:0000a3c0       ?__crt_interlocked_read_32@@YAHPEDH@Z 000000014000b3c0 f i libucrtd:assert.obj
 0001:0000a550       ?get_flags@__crt_stdio_stream@@QEBAJXZ 000000014000b550 f i libucrtd:assert.obj
 0001:0000a5e0       ?has_any_buffer@__crt_stdio_stream@@QEBA_NXZ 000000014000b5e0 f i libucrtd:assert.obj
 0001:0000a600       ?has_any_of@__crt_stdio_stream@@QEBA_NJ@Z 000000014000b600 f i libucrtd:assert.obj
 0001:0000a640       _invoke_watson_if_error    000000014000b640 f i libucrtd:assert.obj
 0001:0000a690       _vfwprintf_l               000000014000b690 f i libucrtd:assert.obj
 0001:0000a6e0       _vswprintf_c_l             000000014000b6e0 f i libucrtd:assert.obj
 0001:0000a750       _wassert                   000000014000b750 f   libucrtd:assert.obj
 0001:0000a790       fwprintf                   000000014000b790 f i libucrtd:assert.obj
 0001:0000a920       swprintf                   000000014000b920 f i libucrtd:assert.obj
 0001:0000a980       sinf                       000000014000b980 f   libucrtd:sinf.obj
 0001:0000b0f0       _seh_filter_exe            000000014000c0f0 f   libucrtd:exception_filter.obj
 0001:0000b560       __acrt_report_runtime_error 000000014000c560 f   libucrtd:report_runtime_error.obj
 0001:0000b7e0       _query_app_type            000000014000c7e0 f   libucrtd:report_runtime_error.obj
 0001:0000b7f0       _set_app_type              000000014000c7f0 f   libucrtd:report_runtime_error.obj
 0001:0000b800       ??$__crt_fast_decode_pointer@P6AXH@Z@@YAP6AXH@ZQ6AXH@Z@Z 000000014000c800 f i libucrtd:signal.obj
 0001:0000b800       ??$__crt_fast_decode_pointer@PEAP6AXXZ@@YAPEAP6AXXZQEAP6AXXZ@Z 000000014000c800 f i libucrtd:onexit.obj
 0001:0000b800       ??$__crt_fast_decode_pointer@P6AHPEAU_exception@@@Z@@YAP6AHPEAU_exception@@@ZQ6AH0@Z@Z 000000014000c800 f i libucrtd:matherr.obj
 0001:0000b800       ??$__crt_fast_decode_pointer@PEAX@@YAPEAXQEAX@Z 000000014000c800 f i libucrtd:winapi_thunks.obj
 0001:0000b800       ??$__crt_fast_decode_pointer@P6AH_K@Z@@YAP6AH_K@ZQ6AH0@Z@Z 000000014000c800 f i libucrtd:new_handler.obj
 0001:0000b800       ??$__crt_fast_decode_pointer@P6AXPEAXK0@Z@@YAP6AXPEAXK0@ZQ6AX0K0@Z@Z 000000014000c800 f i libucrtd:exit.obj
 0001:0000b800       ??$__crt_fast_decode_pointer@P6AXPEB_W00I_K@Z@@YAP6AXPEB_W00I_K@ZQ6AX000I1@Z@Z 000000014000c800 f i libucrtd:invalid_parameter.obj
 0001:0000b800       ??$__crt_fast_decode_pointer@P6AXXZ@@YAP6AXXZQ6AXXZ@Z 000000014000c800 f i libucrtd:onexit.obj
 0001:0000b840       ??$__crt_fast_encode_pointer@PEAX@@YAPEAXQEAX@Z 000000014000c840 f i libucrtd:initialization.obj
 0001:0000b840       ??$__crt_fast_encode_pointer@P6AHXZ@@YAP6AHXZQ6AHXZ@Z 000000014000c840 f i libucrtd:onexit.obj
 0001:0000b840       ??$__crt_fast_encode_pointer@PEAP6AXXZ@@YAPEAP6AXXZQEAP6AXXZ@Z 000000014000c840 f i libucrtd:onexit.obj
 0001:0000b840       ??$__crt_fast_encode_pointer@P6AXH@Z@@YAP6AXH@ZQ6AXH@Z@Z 000000014000c840 f i libucrtd:signal.obj
 0001:0000b840       ??$__crt_fast_encode_pointer@P6AHPEAU_exception@@@Z@@YAP6AHPEAU_exception@@@ZQ6AH0@Z@Z 000000014000c840 f i libucrtd:matherr.obj
 0001:0000b840       ??$__crt_fast_encode_pointer@P6AXXZ@@YAP6AXXZQ6AXXZ@Z 000000014000c840 f i libucrtd:onexit.obj
 0001:0000b840       ??$__crt_fast_encode_pointer@P6AXPEAXK0@Z@@YAP6AXPEAXK0@ZQ6AX0K0@Z@Z 000000014000c840 f i libucrtd:exit.obj
 0001:0000b880       ?__crt_rotate_pointer_value@@YA_K_KH@Z 000000014000c880 f i libucrtd:matherr.obj
 0001:0000b8a0       ?initialize@?$dual_state_global@P6AH_K@Z@__crt_state_management@@QEAAXQ6AH_K@Z@Z 000000014000c8a0 f i libucrtd:new_handler.obj
 0001:0000b8a0       ?initialize@?$dual_state_global@PEAU__crt_multibyte_data@@@__crt_state_management@@QEAAXQEAU__crt_multibyte_data@@@Z 000000014000c8a0 f i libucrtd:mbctype.obj
 0001:0000b8a0       ?initialize@?$dual_state_global@P6AHPEAU_exception@@@Z@__crt_state_management@@QEAAXQ6AHPEAU_exception@@@Z@Z 000000014000c8a0 f i libucrtd:matherr.obj
 0001:0000b8a0       ?initialize@?$dual_state_global@PEAU__crt_locale_data@@@__crt_state_management@@QEAAXQEAU__crt_locale_data@@@Z 000000014000c8a0 f i libucrtd:initialization.obj
 0001:0000b8a0       ?initialize@?$dual_state_global@P6AXH@Z@__crt_state_management@@QEAAXQ6AXH@Z@Z 000000014000c8a0 f i libucrtd:signal.obj
 0001:0000b8f0       ?value@?$dual_state_global@PEAE@__crt_state_management@@QEAAAEAPEAEXZ 000000014000c8f0 f i libucrtd:mbctype.obj
 0001:0000b8f0       ?value@?$dual_state_global@P6AH_K@Z@__crt_state_management@@QEAAAEAP6AH_K@ZXZ 000000014000c8f0 f i libucrtd:new_handler.obj
 0001:0000b8f0       ?value@?$dual_state_global@PEAU__crt_multibyte_data@@@__crt_state_management@@QEAAAEAPEAU__crt_multibyte_data@@XZ 000000014000c8f0 f i libucrtd:mbctype.obj
 0001:0000b8f0       ?value@?$dual_state_global@PEAU__crt_locale_data@@@__crt_state_management@@QEAAAEAPEAU__crt_locale_data@@XZ 000000014000c8f0 f i libucrtd:wsetlocale.obj
 0001:0000b8f0       ?value@?$dual_state_global@P6AXH@Z@__crt_state_management@@QEAAAEAP6AXH@ZXZ 000000014000c8f0 f i libucrtd:signal.obj
 0001:0000b8f0       ?value@?$dual_state_global@P6AHPEAU_exception@@@Z@__crt_state_management@@QEAAAEAP6AHPEAU_exception@@@ZXZ 000000014000c8f0 f i libucrtd:matherr.obj
 0001:0000b8f0       ?value@?$dual_state_global@P6AXPEB_W00I_K@Z@__crt_state_management@@QEAAAEAP6AXPEB_W00I_K@ZXZ 000000014000c8f0 f i libucrtd:invalid_parameter.obj
 0001:0000b910       __acrt_has_user_matherr    000000014000c910 f   libucrtd:matherr.obj
 0001:0000b950       __acrt_initialize_user_matherr 000000014000c950 f   libucrtd:matherr.obj
 0001:0000b970       __acrt_invoke_user_matherr 000000014000c970 f   libucrtd:matherr.obj
 0001:0000b9c0       __setusermatherr           000000014000c9c0 f   libucrtd:matherr.obj
 0001:0000c220       ??$set_program_name@PEAD@?$__crt_char_traits@D@@SAX$$QEAPEAD@Z 000000014000d220 f i libucrtd:argv_parsing.obj
 0001:0000c350       __acrt_allocate_buffer_for_argv 000000014000d350 f   libucrtd:argv_parsing.obj
 0001:0000c470       _configure_narrow_argv     000000014000d470 f   libucrtd:argv_parsing.obj
 0001:0000c490       _set_pgmptr                000000014000d490 f i libucrtd:argv_parsing.obj
 0001:0000c6c0       ??$tcslen@AEAPEAD@?$__crt_char_traits@D@@SA_KAEAPEAD@Z 000000014000d6c0 f i libucrtd:environment_initialization.obj
 0001:0000c70c       ??B?$__crt_unique_heap_ptr@PEADU__crt_internal_free_policy@@@@QEBA_NXZ 000000014000d70c f i libucrtd:environment_initialization.obj
 0001:0000c714       ?detach@?$__crt_unique_heap_ptr@DU__crt_internal_free_policy@@@@QEAAPEADXZ 000000014000d714 f i libucrtd:environment_initialization.obj
 0001:0000c71c       __dcrt_uninitialize_environments_nolock 000000014000d71c f   libucrtd:environment_initialization.obj
 0001:0000c754       _initialize_narrow_environment 000000014000d754 f   libucrtd:environment_initialization.obj
 0001:0000c8a0       _get_narrow_winmain_command_line 000000014000d8a0 f   libucrtd:argv_winmain.obj
 0001:0000c8b0       _initterm                  000000014000d8b0 f   libucrtd:initterm.obj
 0001:0000c910       _initterm_e                000000014000d910 f   libucrtd:initterm.obj
 0001:0000c990       ??$?B$$A6AXPEAXK0@Z@__crt_fast_encoded_nullptr_t@@QEBAP6AXPEAXK0@ZXZ 000000014000d990 f i libucrtd:exit.obj
 0001:0000c990       ??$?BP6AXXZ@__crt_fast_encoded_nullptr_t@@QEBAPEAP6AXXZXZ 000000014000d990 f i libucrtd:onexit.obj
 0001:0000c990       ??$?B$$A6AXXZ@__crt_fast_encoded_nullptr_t@@QEBAP6AXXZXZ 000000014000d990 f i libucrtd:onexit.obj
 0001:0000c990       ??$?BX@__crt_fast_encoded_nullptr_t@@QEBAPEAXXZ 000000014000d990 f i libucrtd:initialization.obj
 0001:0000c990       ??$?B$$A6AXH@Z@__crt_fast_encoded_nullptr_t@@QEBAP6AXH@ZXZ 000000014000d990 f i libucrtd:signal.obj
 0001:0000ca40       ??$__crt_get_proc_address@P6AXI@Z@@YAP6AXI@ZQEAUHINSTANCE__@@QEBD@Z 000000014000da40 f i libucrtd:exit.obj
 0001:0000cae0       ??1?$__crt_unique_handle_t@U__crt_hmodule_traits@@@@QEAA@XZ 000000014000dae0 f i libucrtd:exit.obj
 0001:0000cc40       ?__acrt_select_exit_lock@@YA?AW4__acrt_lock_id@@XZ 000000014000dc40 f i libucrtd:exit.obj
 0001:0000cc50       ?__crt_fast_encode_pointer@@YA?AU__crt_fast_encoded_nullptr_t@@$$T@Z 000000014000dc50 f i libucrtd:exit.obj
 0001:0000cc90       ?close@?$__crt_unique_handle_t@U__crt_hmodule_traits@@@@QEAAXXZ 000000014000dc90 f i libucrtd:exit.obj
 0001:0000ccd0       ?close@__crt_hmodule_traits@@SA_NPEAUHINSTANCE__@@@Z 000000014000dcd0 f i libucrtd:exit.obj
 0001:0000cf90       __acrt_initialize_thread_local_exit_callback 000000014000df90 f   libucrtd:exit.obj
 0001:0000cfb0       _c_exit                    000000014000dfb0 f   libucrtd:exit.obj
 0001:0000cfd0       _cexit                     000000014000dfd0 f   libucrtd:exit.obj
 0001:0000cff0       _exit                      000000014000dff0 f   libucrtd:exit.obj
 0001:0000d010       _register_thread_local_exe_atexit_callback 000000014000e010 f   libucrtd:exit.obj
 0001:0000d060       exit                       000000014000e060 f   libucrtd:exit.obj
 0001:0000d080       ?value@?$dual_state_global@J@__crt_state_management@@QEAAAEAJXZ 000000014000e080 f i libucrtd:new_mode.obj
 0001:0000d080       ?value@?$dual_state_global@H@__crt_state_management@@QEAAAEAHXZ 000000014000e080 f i libucrtd:setmode.obj
 0001:0000d0a0       _set_fmode                 000000014000e0a0 f   libucrtd:setmode.obj
 0001:0000d2e0       __acrt_disable_global_locale_sync 000000014000e2e0 f i libucrtd:wsetlocale.obj
 0001:0000d310       __acrt_enable_global_locale_sync 000000014000e310 f i libucrtd:wsetlocale.obj
 0001:0000d340       __acrt_set_locale_changed  000000014000e340 f   libucrtd:wsetlocale.obj
 0001:0000d350       __acrt_uninitialize_locale 000000014000e350 f   libucrtd:wsetlocale.obj
 0001:0000d380       __ascii_tolower            000000014000e380 f i libucrtd:wsetlocale.obj
 0001:0000d3a0       __ascii_towlower           000000014000e3a0 f i libucrtd:wsetlocale.obj
 0001:0000d3c0       _configthreadlocale        000000014000e3c0 f   libucrtd:wsetlocale.obj
 0001:0000d520       _query_new_mode            000000014000e520 f   libucrtd:new_mode.obj
 0001:0000d540       _set_new_mode              000000014000e540 f   libucrtd:new_mode.obj
 0001:0000d610       __p__commode               000000014000e610 f   libucrtd:ncommode.obj
 0001:0000dca0       _crt_atexit                000000014000eca0 f   libucrtd:onexit.obj
 0001:0000dcc0       _execute_onexit_table      000000014000ecc0 f   libucrtd:onexit.obj
 0001:0000dd00       _initialize_onexit_table   000000014000ed00 f   libucrtd:onexit.obj
 0001:0000dd80       _register_onexit_function  000000014000ed80 f   libucrtd:onexit.obj
 0001:0000de10       __acrt_uninitialize_command_line 000000014000ee10 f   libucrtd:argv_data.obj
 0001:0000e070       __acrt_initialize          000000014000f070 f   libucrtd:initialization.obj
 0001:0000e0a0       __acrt_uninitialize        000000014000f0a0 f   libucrtd:initialization.obj
 0001:0000e0d0       terminate                  000000014000f0d0 f   libucrtd:terminate.obj
 0001:0000e110       ??0_LocaleUpdate@@QEAA@QEAU__crt_locale_pointers@@@Z 000000014000f110 f i libucrtd:debug_heap.obj
 0001:0000e230       ??1_LocaleUpdate@@QEAA@XZ  000000014000f230 f i libucrtd:debug_heap.obj
 0001:0000e260       ?GetLocaleT@_LocaleUpdate@@QEAAPEAU__crt_locale_pointers@@XZ 000000014000f260 f i libucrtd:debug_heap.obj
 0001:00010240       _CrtCheckMemory            0000000140011240 f   libucrtd:debug_heap.obj
 0001:000103d0       _CrtDumpMemoryLeaks        00000001400113d0 f   libucrtd:debug_heap.obj
 0001:00010490       _CrtIsValidHeapPointer     0000000140011490 f   libucrtd:debug_heap.obj
 0001:000104d0       _CrtIsValidPointer         00000001400114d0 f   libucrtd:debug_heap.obj
 0001:00010510       _CrtMemCheckpoint          0000000140011510 f   libucrtd:debug_heap.obj
 0001:00010790       _CrtMemDumpAllObjectsSince 0000000140011790 f   libucrtd:debug_heap.obj
 0001:000107f0       _CrtSetDbgFlag             00000001400117f0 f   libucrtd:debug_heap.obj
 0001:00010950       _CrtSetDumpClient          0000000140011950 f   libucrtd:debug_heap.obj
 0001:00010980       __acrt_get_locale_data_prefix 0000000140011980 f i libucrtd:debug_heap.obj
 0001:000109a0       __acrt_locale_changed      00000001400119a0 f i libucrtd:debug_heap.obj
 0001:000109d0       _calloc_dbg                00000001400119d0 f   libucrtd:debug_heap.obj
 0001:00010a70       _chvalidchk_l              0000000140011a70 f i libucrtd:debug_heap.obj
 0001:00010aa0       _free_dbg                  0000000140011aa0 f   libucrtd:debug_heap.obj
 0001:00010b10       _invoke_watson_if_oneof    0000000140011b10 f i libucrtd:debug_heap.obj
 0001:00010b70       _ischartype_l              0000000140011b70 f i libucrtd:debug_heap.obj
 0001:00010c00       _malloc_dbg                0000000140011c00 f   libucrtd:debug_heap.obj
 0001:00010c40       _msize_dbg                 0000000140011c40 f   libucrtd:debug_heap.obj
 0001:00010de0       _realloc_dbg               0000000140011de0 f   libucrtd:debug_heap.obj
 0001:00010e50       _recalloc_dbg              0000000140011e50 f   libucrtd:debug_heap.obj
 0001:00011420       strcpy_s                   0000000140012420 f   libucrtd:strcpy_s.obj
 0001:00011460       strcmp                     0000000140012460 f   libucrtd:strcmp.obj
 0001:000114e0       strlen                     00000001400124e0 f   libucrtd:strlen.obj
 0001:00011590       abort                      0000000140012590 f   libucrtd:abort.obj
 0001:00011610       ??$initialize_from_array@$$BY00Q6AXPEB_W00I_K@Z@?$dual_state_global@P6AXPEB_W00I_K@Z@__crt_state_management@@QEAAXAEAY00Q6AXPEB_W00I_K@Z@Z 0000000140012610 f i libucrtd:invalid_parameter.obj
 0001:00011670       __acrt_call_reportfault    0000000140012670 f   libucrtd:invalid_parameter.obj
 0001:000117a0       __acrt_initialize_invalid_parameter_handler 00000001400127a0 f   libucrtd:invalid_parameter.obj
 0001:000117d0       _invalid_parameter         00000001400127d0 f   libucrtd:invalid_parameter.obj
 0001:000118d0       _invalid_parameter_noinfo  00000001400128d0 f   libucrtd:invalid_parameter.obj
 0001:00011900       _invoke_watson             0000000140012900 f   libucrtd:invalid_parameter.obj
 0001:00011960       ??$?0AEBV?$stream_output_adapter@_W@__crt_stdio_output@@AEB_KAEBQEB_WAEBQEAU__crt_locale_pointers@@AEBQEAD@?$standard_base@_WV?$stream_output_adapter@_W@__crt_stdio_output@@@__crt_stdio_output@@IEAA@AEBV?$stream_output_adapter@_W@1@AEB_KAEBQEB_WAEBQEAU__crt_locale_pointers@@AEBQEAD@Z 0000000140012960 f i libucrtd:output.obj
 0001:00011960       ??$?0AEBV?$string_output_adapter@_W@__crt_stdio_output@@AEB_KAEBQEB_WAEBQEAU__crt_locale_pointers@@AEBQEAD@?$standard_base@_WV?$string_output_adapter@_W@__crt_stdio_output@@@__crt_stdio_output@@IEAA@AEBV?$string_output_adapter@_W@1@AEB_KAEBQEB_WAEBQEAU__crt_locale_pointers@@AEBQEAD@Z 0000000140012960 f i libucrtd:output.obj
 0001:000119d0       ??$?0AEBV?$string_output_adapter@D@__crt_stdio_output@@AEB_KAEBQEBDAEBQEAU__crt_locale_pointers@@AEBQEAD@?$format_validation_base@DV?$string_output_adapter@D@__crt_stdio_output@@@__crt_stdio_output@@IEAA@AEBV?$string_output_adapter@D@1@AEB_KAEBQEBDAEBQEAU__crt_locale_pointers@@AEBQEAD@Z 00000001400129d0 f i libucrtd:output.obj
 0001:00011a20       ??$?0AEBV?$string_output_adapter@D@__crt_stdio_output@@AEB_KAEBQEBDAEBQEAU__crt_locale_pointers@@AEBQEAD@?$standard_base@DV?$string_output_adapter@D@__crt_stdio_output@@@__crt_stdio_output@@IEAA@AEBV?$string_output_adapter@D@1@AEB_KAEBQEBDAEBQEAU__crt_locale_pointers@@AEBQEAD@Z 0000000140012a20 f i libucrtd:output.obj
 0001:00011a90       ??$?0AEBV?$string_output_adapter@_W@__crt_stdio_output@@AEB_KAEBQEB_WAEBQEAU__crt_locale_pointers@@AEBQEAD@?$format_validation_base@_WV?$string_output_adapter@_W@__crt_stdio_output@@@__crt_stdio_output@@IEAA@AEBV?$string_output_adapter@_W@1@AEB_KAEBQEB_WAEBQEAU__crt_locale_pointers@@AEBQEAD@Z 0000000140012a90 f i libucrtd:output.obj
 0001:00013b20       ??$count@D@formatting_buffer@__crt_stdio_output@@QEBA_KXZ 0000000140014b20 f i libucrtd:output.obj
 0001:00013b70       ??$count@_W@formatting_buffer@__crt_stdio_output@@QEBA_KXZ 0000000140014b70 f i libucrtd:output.obj
 0001:00013bc0       ??$data@_W@formatting_buffer@__crt_stdio_output@@QEAAPEA_WXZ 0000000140014bc0 f i libucrtd:output.obj
 0001:00013bc0       ??$data@D@formatting_buffer@__crt_stdio_output@@QEAAPEADXZ 0000000140014bc0 f i libucrtd:output.obj
 0001:00013c10       ??$ensure_buffer_is_big_enough@D@formatting_buffer@__crt_stdio_output@@QEAA_N_K@Z 0000000140014c10 f i libucrtd:output.obj
 0001:00013d40       ??$ensure_buffer_is_big_enough@_W@formatting_buffer@__crt_stdio_output@@QEAA_N_K@Z 0000000140014d40 f i libucrtd:output.obj
 0001:00013e70       ??$extract_argument_from_va_list@C_J@?$standard_base@_WV?$stream_output_adapter@_W@__crt_stdio_output@@@__crt_stdio_output@@IEAA_NAEA_J@Z 0000000140014e70 f i libucrtd:output.obj
 0001:00013e70       ??$extract_argument_from_va_list@C_J@?$standard_base@DV?$string_output_adapter@D@__crt_stdio_output@@@__crt_stdio_output@@IEAA_NAEA_J@Z 0000000140014e70 f i libucrtd:output.obj
 0001:00013e70       ??$extract_argument_from_va_list@C_J@?$standard_base@_WV?$string_output_adapter@_W@__crt_stdio_output@@@__crt_stdio_output@@IEAA_NAEA_J@Z 0000000140014e70 f i libucrtd:output.obj
 0001:00013eb0       ??$extract_argument_from_va_list@E_J@?$standard_base@_WV?$stream_output_adapter@_W@__crt_stdio_output@@@__crt_stdio_output@@IEAA_NAEA_J@Z 0000000140014eb0 f i libucrtd:output.obj
 0001:00013eb0       ??$extract_argument_from_va_list@E_J@?$standard_base@_WV?$string_output_adapter@_W@__crt_stdio_output@@@__crt_stdio_output@@IEAA_NAEA_J@Z 0000000140014eb0 f i libucrtd:output.obj
 0001:00013eb0       ??$extract_argument_from_va_list@E_J@?$standard_base@DV?$string_output_adapter@D@__crt_stdio_output@@@__crt_stdio_output@@IEAA_NAEA_J@Z 0000000140014eb0 f i libucrtd:output.obj
 0001:00013ef0       ??$extract_argument_from_va_list@F_J@?$standard_base@_WV?$stream_output_adapter@_W@__crt_stdio_output@@@__crt_stdio_output@@IEAA_NAEA_J@Z 0000000140014ef0 f i libucrtd:output.obj
 0001:00013ef0       ??$extract_argument_from_va_list@F_J@?$standard_base@_WV?$string_output_adapter@_W@__crt_stdio_output@@@__crt_stdio_output@@IEAA_NAEA_J@Z 0000000140014ef0 f i libucrtd:output.obj
 0001:00013ef0       ??$extract_argument_from_va_list@F_J@?$standard_base@DV?$string_output_adapter@D@__crt_stdio_output@@@__crt_stdio_output@@IEAA_NAEA_J@Z 0000000140014ef0 f i libucrtd:output.obj
 0001:00013f30       ??$extract_argument_from_va_list@GD@?$standard_base@DV?$string_output_adapter@D@__crt_stdio_output@@@__crt_stdio_output@@IEAA_NAEAD@Z 0000000140014f30 f i libucrtd:output.obj
 0001:00013f60       ??$extract_argument_from_va_list@G_J@?$standard_base@_WV?$stream_output_adapter@_W@__crt_stdio_output@@@__crt_stdio_output@@IEAA_NAEA_J@Z 0000000140014f60 f i libucrtd:output.obj
 0001:00013f60       ??$extract_argument_from_va_list@G_J@?$standard_base@_WV?$string_output_adapter@_W@__crt_stdio_output@@@__crt_stdio_output@@IEAA_NAEA_J@Z 0000000140014f60 f i libucrtd:output.obj
 0001:00013f60       ??$extract_argument_from_va_list@G_J@?$standard_base@DV?$string_output_adapter@D@__crt_stdio_output@@@__crt_stdio_output@@IEAA_NAEA_J@Z 0000000140014f60 f i libucrtd:output.obj
 0001:00013fa0       ??$extract_argument_from_va_list@H_J@?$standard_base@DV?$string_output_adapter@D@__crt_stdio_output@@@__crt_stdio_output@@IEAA_NAEA_J@Z 0000000140014fa0 f i libucrtd:output.obj
 0001:00013fa0       ??$extract_argument_from_va_list@H_J@?$standard_base@_WV?$string_output_adapter@_W@__crt_stdio_output@@@__crt_stdio_output@@IEAA_NAEA_J@Z 0000000140014fa0 f i libucrtd:output.obj
 0001:00013fa0       ??$extract_argument_from_va_list@H_J@?$standard_base@_WV?$stream_output_adapter@_W@__crt_stdio_output@@@__crt_stdio_output@@IEAA_NAEA_J@Z 0000000140014fa0 f i libucrtd:output.obj
 0001:00013fd0       ??$extract_argument_from_va_list@I_J@?$standard_base@_WV?$stream_output_adapter@_W@__crt_stdio_output@@@__crt_stdio_output@@IEAA_NAEA_J@Z 0000000140014fd0 f i libucrtd:output.obj
 0001:00013fd0       ??$extract_argument_from_va_list@I_J@?$standard_base@DV?$string_output_adapter@D@__crt_stdio_output@@@__crt_stdio_output@@IEAA_NAEA_J@Z 0000000140014fd0 f i libucrtd:output.obj
 0001:00013fd0       ??$extract_argument_from_va_list@I_J@?$standard_base@_WV?$string_output_adapter@_W@__crt_stdio_output@@@__crt_stdio_output@@IEAA_NAEA_J@Z 0000000140014fd0 f i libucrtd:output.obj
 0001:00014000       ??$extract_argument_from_va_list@PEAUansi_string@?1??type_case_Z@?$output_processor@_WV?$stream_output_adapter@_W@__crt_stdio_output@@V?$standard_base@_WV?$stream_output_adapter@_W@__crt_stdio_output@@@2@@__crt_stdio_output@@AEAA_NXZ@PEAU1?1??234@AEAA_NXZ@@?$standard_base@_WV?$stream_output_adapter@_W@__crt_stdio_output@@@__crt_stdio_output@@IEAA_NAEAPEAUansi_string@?1??type_case_Z@?$output_processor@_WV?$stream_output_adapter@_W@__crt_stdio_output@@V?$standard_base@_WV?$stream_output_adapter@_W@__crt_stdio_output@@@2@@1@AEAA_NXZ@@Z 0000000140015000 f i libucrtd:output.obj
 0001:00014000       ??$extract_argument_from_va_list@_J_J@?$standard_base@DV?$string_output_adapter@D@__crt_stdio_output@@@__crt_stdio_output@@IEAA_NAEA_J@Z 0000000140015000 f i libucrtd:output.obj
 0001:00014000       ??$extract_argument_from_va_list@PEADPEAD@?$standard_base@_WV?$string_output_adapter@_W@__crt_stdio_output@@@__crt_stdio_output@@IEAA_NAEAPEAD@Z 0000000140015000 f i libucrtd:output.obj
 0001:00014000       ??$extract_argument_from_va_list@_J_J@?$standard_base@_WV?$string_output_adapter@_W@__crt_stdio_output@@@__crt_stdio_output@@IEAA_NAEA_J@Z 0000000140015000 f i libucrtd:output.obj
 0001:00014000       ??$extract_argument_from_va_list@PEAUansi_string@?1??type_case_Z@?$output_processor@_WV?$string_output_adapter@_W@__crt_stdio_output@@V?$standard_base@_WV?$string_output_adapter@_W@__crt_stdio_output@@@2@@__crt_stdio_output@@AEAA_NXZ@PEAU1?1??234@AEAA_NXZ@@?$standard_base@_WV?$string_output_adapter@_W@__crt_stdio_output@@@__crt_stdio_output@@IEAA_NAEAPEAUansi_string@?1??type_case_Z@?$output_processor@_WV?$string_output_adapter@_W@__crt_stdio_output@@V?$standard_base@_WV?$string_output_adapter@_W@__crt_stdio_output@@@2@@1@AEAA_NXZ@@Z 0000000140015000 f i libucrtd:output.obj
 0001:00014000       ??$extract_argument_from_va_list@PEAXPEAX@?$standard_base@DV?$string_output_adapter@D@__crt_stdio_output@@@__crt_stdio_output@@IEAA_NAEAPEAX@Z 0000000140015000 f i libucrtd:output.obj
 0001:00014000       ??$extract_argument_from_va_list@PEADPEAD@?$standard_base@DV?$string_output_adapter@D@__crt_stdio_output@@@__crt_stdio_output@@IEAA_NAEAPEAD@Z 0000000140015000 f i libucrtd:output.obj
 0001:00014000       ??$extract_argument_from_va_list@_K_J@?$standard_base@_WV?$string_output_adapter@_W@__crt_stdio_output@@@__crt_stdio_output@@IEAA_NAEA_J@Z 0000000140015000 f i libucrtd:output.obj
 0001:00014000       ??$extract_argument_from_va_list@PEAXPEAX@?$standard_base@_WV?$string_output_adapter@_W@__crt_stdio_output@@@__crt_stdio_output@@IEAA_NAEAPEAX@Z 0000000140015000 f i libucrtd:output.obj
 0001:00014000       ??$extract_argument_from_va_list@_J_J@?$standard_base@_WV?$stream_output_adapter@_W@__crt_stdio_output@@@__crt_stdio_output@@IEAA_NAEA_J@Z 0000000140015000 f i libucrtd:output.obj
 0001:00014000       ??$extract_argument_from_va_list@_K_J@?$standard_base@DV?$string_output_adapter@D@__crt_stdio_output@@@__crt_stdio_output@@IEAA_NAEA_J@Z 0000000140015000 f i libucrtd:output.obj
 0001:00014000       ??$extract_argument_from_va_list@PEAUansi_string@?1??type_case_Z@?$output_processor@_WV?$string_output_adapter@_W@__crt_stdio_output@@V?$format_validation_base@_WV?$string_output_adapter@_W@__crt_stdio_output@@@2@@__crt_stdio_output@@AEAA_NXZ@PEAU1?1??234@AEAA_NXZ@@?$standard_base@_WV?$string_output_adapter@_W@__crt_stdio_output@@@__crt_stdio_output@@IEAA_NAEAPEAUansi_string@?1??type_case_Z@?$output_processor@_WV?$string_output_adapter@_W@__crt_stdio_output@@V?$format_validation_base@_WV?$string_output_adapter@_W@__crt_stdio_output@@@2@@1@AEAA_NXZ@@Z 0000000140015000 f i libucrtd:output.obj
 0001:00014000       ??$extract_argument_from_va_list@_K_J@?$standard_base@_WV?$stream_output_adapter@_W@__crt_stdio_output@@@__crt_stdio_output@@IEAA_NAEA_J@Z 0000000140015000 f i libucrtd:output.obj
 0001:00014000       ??$extract_argument_from_va_list@PEADPEAD@?$standard_base@_WV?$stream_output_adapter@_W@__crt_stdio_output@@@__crt_stdio_output@@IEAA_NAEAPEAD@Z 0000000140015000 f i libucrtd:output.obj
 0001:00014000       ??$extract_argument_from_va_list@PEAXPEAX@?$standard_base@_WV?$stream_output_adapter@_W@__crt_stdio_output@@@__crt_stdio_output@@IEAA_NAEAPEAX@Z 0000000140015000 f i libucrtd:output.obj
 0001:00014000       ??$extract_argument_from_va_list@PEAUansi_string@?1??type_case_Z@?$output_processor@DV?$string_output_adapter@D@__crt_stdio_output@@V?$format_validation_base@DV?$string_output_adapter@D@__crt_stdio_output@@@2@@__crt_stdio_output@@AEAA_NXZ@PEAU1?1??234@AEAA_NXZ@@?$standard_base@DV?$string_output_adapter@D@__crt_stdio_output@@@__crt_stdio_output@@IEAA_NAEAPEAUansi_string@?1??type_case_Z@?$output_processor@DV?$string_output_adapter@D@__crt_stdio_output@@V?$format_validation_base@DV?$string_output_adapter@D@__crt_stdio_output@@@2@@1@AEAA_NXZ@@Z 0000000140015000 f i libucrtd:output.obj
 0001:00014030       ??$extract_argument_from_va_list@U_CRT_DOUBLE@@U1@@?$standard_base@_WV?$stream_output_adapter@_W@__crt_stdio_output@@@__crt_stdio_output@@IEAA_NAEAU_CRT_DOUBLE@@@Z 0000000140015030 f i libucrtd:output.obj
 0001:00014030       ??$extract_argument_from_va_list@U_CRT_DOUBLE@@U1@@?$standard_base@DV?$string_output_adapter@D@__crt_stdio_output@@@__crt_stdio_output@@IEAA_NAEAU_CRT_DOUBLE@@@Z 0000000140015030 f i libucrtd:output.obj
 0001:00014030       ??$extract_argument_from_va_list@U_CRT_DOUBLE@@U1@@?$standard_base@_WV?$string_output_adapter@_W@__crt_stdio_output@@@__crt_stdio_output@@IEAA_NAEAU_CRT_DOUBLE@@@Z 0000000140015030 f i libucrtd:output.obj
 0001:00014080       ??$extract_argument_from_va_list@_W_W@?$standard_base@_WV?$string_output_adapter@_W@__crt_stdio_output@@@__crt_stdio_output@@IEAA_NAEA_W@Z 0000000140015080 f i libucrtd:output.obj
 0001:00014080       ??$extract_argument_from_va_list@_W_W@?$standard_base@_WV?$stream_output_adapter@_W@__crt_stdio_output@@@__crt_stdio_output@@IEAA_NAEA_W@Z 0000000140015080 f i libucrtd:output.obj
 0001:00014080       ??$extract_argument_from_va_list@_W_W@?$standard_base@DV?$string_output_adapter@D@__crt_stdio_output@@@__crt_stdio_output@@IEAA_NAEA_W@Z 0000000140015080 f i libucrtd:output.obj
 0001:000140b0       ??$is_wide_character_specifier@D@__crt_stdio_output@@YA_N_KDW4length_modifier@0@@Z 00000001400150b0 f i libucrtd:output.obj
 0001:00014150       ??$is_wide_character_specifier@_W@__crt_stdio_output@@YA_N_K_WW4length_modifier@0@@Z 0000000140015150 f i libucrtd:output.obj
 0001:00014220       ??$puttc_nolock@AEB_WPEAU_iobuf@@@?$__crt_char_traits@_W@@SAGAEB_W$$QEAPEAU_iobuf@@@Z 0000000140015220 f i libucrtd:output.obj
 0001:00014250       ??$read_va_arg@C@__crt_stdio_output@@YACAEAPEAD@Z 0000000140015250 f i libucrtd:output.obj
 0001:00014250       ??$read_va_arg@E@__crt_stdio_output@@YAEAEAPEAD@Z 0000000140015250 f i libucrtd:output.obj
 0001:000142c0       ??$read_va_arg@G@__crt_stdio_output@@YAGAEAPEAD@Z 00000001400152c0 f i libucrtd:output.obj
 0001:000142c0       ??$read_va_arg@F@__crt_stdio_output@@YAFAEAPEAD@Z 00000001400152c0 f i libucrtd:output.obj
 0001:000142c0       ??$read_va_arg@_W@__crt_stdio_output@@YA_WAEAPEAD@Z 00000001400152c0 f i libucrtd:output.obj
 0001:00014330       ??$read_va_arg@I@__crt_stdio_output@@YAIAEAPEAD@Z 0000000140015330 f i libucrtd:output.obj
 0001:00014330       ??$read_va_arg@H@__crt_stdio_output@@YAHAEAPEAD@Z 0000000140015330 f i libucrtd:output.obj
 0001:00014390       ??$read_va_arg@PEAUansi_string@?1??type_case_Z@?$output_processor@_WV?$stream_output_adapter@_W@__crt_stdio_output@@V?$standard_base@_WV?$stream_output_adapter@_W@__crt_stdio_output@@@2@@__crt_stdio_output@@AEAA_NXZ@@__crt_stdio_output@@YAPEAUansi_string@?1??type_case_Z@?$output_processor@_WV?$stream_output_adapter@_W@__crt_stdio_output@@V?$standard_base@_WV?$stream_output_adapter@_W@__crt_stdio_output@@@2@@0@AEAA_NXZ@AEAPEAD@Z 0000000140015390 f i libucrtd:output.obj
 0001:00014390       ??$read_va_arg@_K@__crt_stdio_output@@YA_KAEAPEAD@Z 0000000140015390 f i libucrtd:output.obj
 0001:00014390       ??$read_va_arg@PEAUansi_string@?1??type_case_Z@?$output_processor@_WV?$string_output_adapter@_W@__crt_stdio_output@@V?$format_validation_base@_WV?$string_output_adapter@_W@__crt_stdio_output@@@2@@__crt_stdio_output@@AEAA_NXZ@@__crt_stdio_output@@YAPEAUansi_string@?1??type_case_Z@?$output_processor@_WV?$string_output_adapter@_W@__crt_stdio_output@@V?$format_validation_base@_WV?$string_output_adapter@_W@__crt_stdio_output@@@2@@0@AEAA_NXZ@AEAPEAD@Z 0000000140015390 f i libucrtd:output.obj
 0001:00014390       ??$read_va_arg@PEAUansi_string@?1??type_case_Z@?$output_processor@DV?$string_output_adapter@D@__crt_stdio_output@@V?$format_validation_base@DV?$string_output_adapter@D@__crt_stdio_output@@@2@@__crt_stdio_output@@AEAA_NXZ@@__crt_stdio_output@@YAPEAUansi_string@?1??type_case_Z@?$output_processor@DV?$string_output_adapter@D@__crt_stdio_output@@V?$format_validation_base@DV?$string_output_adapter@D@__crt_stdio_output@@@2@@0@AEAA_NXZ@AEAPEAD@Z 0000000140015390 f i libucrtd:output.obj
 0001:00014390       ??$read_va_arg@U_CRT_DOUBLE@@@__crt_stdio_output@@YA?AU_CRT_DOUBLE@@AEAPEAD@Z 0000000140015390 f i libucrtd:output.obj
 0001:00014390       ??$read_va_arg@PEAUansi_string@?1??type_case_Z@?$output_processor@_WV?$string_output_adapter@_W@__crt_stdio_output@@V?$standard_base@_WV?$string_output_adapter@_W@__crt_stdio_output@@@2@@__crt_stdio_output@@AEAA_NXZ@@__crt_stdio_output@@YAPEAUansi_string@?1??type_case_Z@?$output_processor@_WV?$string_output_adapter@_W@__crt_stdio_output@@V?$standard_base@_WV?$string_output_adapter@_W@__crt_stdio_output@@@2@@0@AEAA_NXZ@AEAPEAD@Z 0000000140015390 f i libucrtd:output.obj
 0001:00014390       ??$read_va_arg@PEAX@__crt_stdio_output@@YAPEAXAEAPEAD@Z 0000000140015390 f i libucrtd:output.obj
 0001:00014390       ??$read_va_arg@PEAD@__crt_stdio_output@@YAPEADAEAPEAD@Z 0000000140015390 f i libucrtd:output.obj
 0001:00014390       ??$read_va_arg@_J@__crt_stdio_output@@YA_JAEAPEAD@Z 0000000140015390 f i libucrtd:output.obj
 0001:00014400       ??$scratch_count@D@formatting_buffer@__crt_stdio_output@@QEBA_KXZ 0000000140015400 f i libucrtd:output.obj
 0001:00014420       ??$scratch_data@D@formatting_buffer@__crt_stdio_output@@QEAAPEADXZ 0000000140015420 f i libucrtd:output.obj
 0001:00014490       ??$tcstol@PEBDPEAPEADH@?$__crt_char_traits@D@@SAJ$$QEAPEBD$$QEAPEAPEAD$$QEAH@Z 0000000140015490 f i libucrtd:output.obj
 0001:000144d0       ??$tcstol@PEB_WPEAPEA_WH@?$__crt_char_traits@_W@@SAJ$$QEAPEB_W$$QEAPEAPEA_W$$QEAH@Z 00000001400154d0 f i libucrtd:output.obj
 0001:00014510       ??$type_case_integer_parse_into_buffer@I@?$output_processor@DV?$string_output_adapter@D@__crt_stdio_output@@V?$format_validation_base@DV?$string_output_adapter@D@__crt_stdio_output@@@2@@__crt_stdio_output@@AEAAXII_N@Z 0000000140015510 f i libucrtd:output.obj
 0001:00014640       ??$type_case_integer_parse_into_buffer@I@?$output_processor@_WV?$string_output_adapter@_W@__crt_stdio_output@@V?$standard_base@_WV?$string_output_adapter@_W@__crt_stdio_output@@@2@@__crt_stdio_output@@AEAAXII_N@Z 0000000140015640 f i libucrtd:output.obj
 0001:00014640       ??$type_case_integer_parse_into_buffer@I@?$output_processor@_WV?$string_output_adapter@_W@__crt_stdio_output@@V?$format_validation_base@_WV?$string_output_adapter@_W@__crt_stdio_output@@@2@@__crt_stdio_output@@AEAAXII_N@Z 0000000140015640 f i libucrtd:output.obj
 0001:00014640       ??$type_case_integer_parse_into_buffer@I@?$output_processor@_WV?$stream_output_adapter@_W@__crt_stdio_output@@V?$standard_base@_WV?$stream_output_adapter@_W@__crt_stdio_output@@@2@@__crt_stdio_output@@AEAAXII_N@Z 0000000140015640 f i libucrtd:output.obj
 0001:00014780       ??$type_case_integer_parse_into_buffer@_K@?$output_processor@DV?$string_output_adapter@D@__crt_stdio_output@@V?$format_validation_base@DV?$string_output_adapter@D@__crt_stdio_output@@@2@@__crt_stdio_output@@AEAAX_KI_N@Z 0000000140015780 f i libucrtd:output.obj
 0001:000148d0       ??$type_case_integer_parse_into_buffer@_K@?$output_processor@_WV?$stream_output_adapter@_W@__crt_stdio_output@@V?$standard_base@_WV?$stream_output_adapter@_W@__crt_stdio_output@@@2@@__crt_stdio_output@@AEAAX_KI_N@Z 00000001400158d0 f i libucrtd:output.obj
 0001:000148d0       ??$type_case_integer_parse_into_buffer@_K@?$output_processor@_WV?$string_output_adapter@_W@__crt_stdio_output@@V?$standard_base@_WV?$string_output_adapter@_W@__crt_stdio_output@@@2@@__crt_stdio_output@@AEAAX_KI_N@Z 00000001400158d0 f i libucrtd:output.obj
 0001:000148d0       ??$type_case_integer_parse_into_buffer@_K@?$output_processor@_WV?$string_output_adapter@_W@__crt_stdio_output@@V?$format_validation_base@_WV?$string_output_adapter@_W@__crt_stdio_output@@@2@@__crt_stdio_output@@AEAAX_KI_N@Z 00000001400158d0 f i libucrtd:output.obj
 0001:00014a30       ??$write_multiple_characters@V?$stream_output_adapter@_W@__crt_stdio_output@@D@__crt_stdio_output@@YAXAEBV?$stream_output_adapter@_W@0@DHQEAH@Z 0000000140015a30 f i libucrtd:output.obj
 0001:00014a90       ??$write_multiple_characters@V?$string_output_adapter@D@__crt_stdio_output@@D@__crt_stdio_output@@YAXAEBV?$string_output_adapter@D@0@DHQEAH@Z 0000000140015a90 f i libucrtd:output.obj
 0001:00014af0       ??$write_multiple_characters@V?$string_output_adapter@_W@__crt_stdio_output@@D@__crt_stdio_output@@YAXAEBV?$string_output_adapter@_W@0@DHQEAH@Z 0000000140015af0 f i libucrtd:output.obj
 0001:00014bd0       ??0?$common_data@D@__crt_stdio_output@@IEAA@XZ 0000000140015bd0 f i libucrtd:output.obj
 0001:00014ca0       ??0?$common_data@_W@__crt_stdio_output@@IEAA@XZ 0000000140015ca0 f i libucrtd:output.obj
 0001:00014d70       ??0?$output_adapter_data@DV?$string_output_adapter@D@__crt_stdio_output@@@__crt_stdio_output@@IEAA@AEBV?$string_output_adapter@D@1@_KQEBDQEAU__crt_locale_pointers@@QEAD@Z 0000000140015d70 f i libucrtd:output.obj
 0001:00014df0       ??0?$output_adapter_data@_WV?$stream_output_adapter@_W@__crt_stdio_output@@@__crt_stdio_output@@IEAA@AEBV?$stream_output_adapter@_W@1@_KQEB_WQEAU__crt_locale_pointers@@QEAD@Z 0000000140015df0 f i libucrtd:output.obj
 0001:00014df0       ??0?$output_adapter_data@_WV?$string_output_adapter@_W@__crt_stdio_output@@@__crt_stdio_output@@IEAA@AEBV?$string_output_adapter@_W@1@_KQEB_WQEAU__crt_locale_pointers@@QEAD@Z 0000000140015df0 f i libucrtd:output.obj
 0001:00014e70       ??0?$output_processor@DV?$string_output_adapter@D@__crt_stdio_output@@V?$format_validation_base@DV?$string_output_adapter@D@__crt_stdio_output@@@2@@__crt_stdio_output@@QEAA@AEBV?$string_output_adapter@D@1@_KQEBDQEAU__crt_locale_pointers@@QEAD@Z 0000000140015e70 f i libucrtd:output.obj
 0001:00014ec0       ??0?$output_processor@_WV?$stream_output_adapter@_W@__crt_stdio_output@@V?$standard_base@_WV?$stream_output_adapter@_W@__crt_stdio_output@@@2@@__crt_stdio_output@@QEAA@AEBV?$stream_output_adapter@_W@1@_KQEB_WQEAU__crt_locale_pointers@@QEAD@Z 0000000140015ec0 f i libucrtd:output.obj
 0001:00014ec0       ??0?$output_processor@_WV?$string_output_adapter@_W@__crt_stdio_output@@V?$standard_base@_WV?$string_output_adapter@_W@__crt_stdio_output@@@2@@__crt_stdio_output@@QEAA@AEBV?$string_output_adapter@_W@1@_KQEB_WQEAU__crt_locale_pointers@@QEAD@Z 0000000140015ec0 f i libucrtd:output.obj
 0001:00014f10       ??0?$output_processor@_WV?$string_output_adapter@_W@__crt_stdio_output@@V?$format_validation_base@_WV?$string_output_adapter@_W@__crt_stdio_output@@@2@@__crt_stdio_output@@QEAA@AEBV?$string_output_adapter@_W@1@_KQEB_WQEAU__crt_locale_pointers@@QEAD@Z 0000000140015f10 f i libucrtd:output.obj
 0001:00014f60       ??0?$stream_output_adapter@_W@__crt_stdio_output@@QEAA@QEAU_iobuf@@@Z 0000000140015f60 f i libucrtd:output.obj
 0001:00014f90       ??0__acrt_stdio_temporary_buffering_guard@@QEAA@QEAU_iobuf@@@Z 0000000140015f90 f i libucrtd:output.obj
 0001:00014fd0       ??0__crt_deferred_errno_cache@@QEAA@XZ 0000000140015fd0 f i libucrtd:output.obj
 0001:00014ff0       ??0__crt_errno_guard@@QEAA@QEAH@Z 0000000140015ff0 f i libucrtd:output.obj
 0001:00015030       ??0formatting_buffer@__crt_stdio_output@@QEAA@XZ 0000000140016030 f i libucrtd:output.obj
 0001:00015070       ??1?$common_data@_W@__crt_stdio_output@@QEAA@XZ 0000000140016070 f i libucrtd:output.obj
 0001:00015070       ??1?$common_data@D@__crt_stdio_output@@QEAA@XZ 0000000140016070 f i libucrtd:output.obj
 0001:00015090       ??1?$format_validation_base@DV?$string_output_adapter@D@__crt_stdio_output@@@__crt_stdio_output@@QEAA@XZ 0000000140016090 f i libucrtd:output.obj
 0001:00015090       ??1?$output_processor@_WV?$string_output_adapter@_W@__crt_stdio_output@@V?$standard_base@_WV?$string_output_adapter@_W@__crt_stdio_output@@@2@@__crt_stdio_output@@QEAA@XZ 0000000140016090 f i libucrtd:output.obj
 0001:00015090       ??1?$output_processor@_WV?$stream_output_adapter@_W@__crt_stdio_output@@V?$standard_base@_WV?$stream_output_adapter@_W@__crt_stdio_output@@@2@@__crt_stdio_output@@QEAA@XZ 0000000140016090 f i libucrtd:output.obj
 0001:00015090       ??1?$format_validation_base@_WV?$string_output_adapter@_W@__crt_stdio_output@@@__crt_stdio_output@@QEAA@XZ 0000000140016090 f i libucrtd:output.obj
 0001:000150b0       ??1?$output_adapter_data@_WV?$string_output_adapter@_W@__crt_stdio_output@@@__crt_stdio_output@@QEAA@XZ 00000001400160b0 f i libucrtd:output.obj
 0001:000150b0       ??1?$output_adapter_data@_WV?$stream_output_adapter@_W@__crt_stdio_output@@@__crt_stdio_output@@QEAA@XZ 00000001400160b0 f i libucrtd:output.obj
 0001:000150b0       ??1?$output_adapter_data@DV?$string_output_adapter@D@__crt_stdio_output@@@__crt_stdio_output@@QEAA@XZ 00000001400160b0 f i libucrtd:output.obj
 0001:000150d0       ??1?$output_processor@_WV?$string_output_adapter@_W@__crt_stdio_output@@V?$format_validation_base@_WV?$string_output_adapter@_W@__crt_stdio_output@@@2@@__crt_stdio_output@@QEAA@XZ 00000001400160d0 f i libucrtd:output.obj
 0001:000150d0       ??1?$output_processor@DV?$string_output_adapter@D@__crt_stdio_output@@V?$format_validation_base@DV?$string_output_adapter@D@__crt_stdio_output@@@2@@__crt_stdio_output@@QEAA@XZ 00000001400160d0 f i libucrtd:output.obj
 0001:000150f0       ??1?$standard_base@_WV?$string_output_adapter@_W@__crt_stdio_output@@@__crt_stdio_output@@QEAA@XZ 00000001400160f0 f i libucrtd:output.obj
 0001:000150f0       ??1?$standard_base@_WV?$stream_output_adapter@_W@__crt_stdio_output@@@__crt_stdio_output@@QEAA@XZ 00000001400160f0 f i libucrtd:output.obj
 0001:000150f0       ??1?$standard_base@DV?$string_output_adapter@D@__crt_stdio_output@@@__crt_stdio_output@@QEAA@XZ 00000001400160f0 f i libucrtd:output.obj
 0001:00015110       ??1__acrt_stdio_temporary_buffering_guard@@QEAA@XZ 0000000140016110 f i libucrtd:output.obj
 0001:00015140       ??1__crt_errno_guard@@QEAA@XZ 0000000140016140 f i libucrtd:output.obj
 0001:00015170       ??1formatting_buffer@__crt_stdio_output@@QEAA@XZ 0000000140016170 f i libucrtd:output.obj
 0001:000151a0       ??4?$__crt_unique_heap_ptr@DU__crt_internal_free_policy@@@@QEAAAEAV0@$$QEAV0@@Z 00000001400161a0 f i libucrtd:output.obj
 0001:000151e0       ??A?$spectre_mitigated_lookup_table@Ustate_transition_pair@__crt_stdio_output@@$0IA@@__crt_stdio_output@@QEBAAEBUstate_transition_pair@1@_K@Z 00000001400161e0 f i libucrtd:output.obj
 0001:00015370       ?adjust_hexit@?$output_processor@DV?$string_output_adapter@D@__crt_stdio_output@@V?$format_validation_base@DV?$string_output_adapter@D@__crt_stdio_output@@@2@@__crt_stdio_output@@CADH_N@Z 0000000140016370 f i libucrtd:output.obj
 0001:00015370       ?adjust_hexit@?$output_processor@_WV?$string_output_adapter@_W@__crt_stdio_output@@V?$format_validation_base@_WV?$string_output_adapter@_W@__crt_stdio_output@@@2@@__crt_stdio_output@@CADH_N@Z 0000000140016370 f i libucrtd:output.obj
 0001:00015370       ?adjust_hexit@?$output_processor@_WV?$stream_output_adapter@_W@__crt_stdio_output@@V?$standard_base@_WV?$stream_output_adapter@_W@__crt_stdio_output@@@2@@__crt_stdio_output@@CADH_N@Z 0000000140016370 f i libucrtd:output.obj
 0001:00015370       ?adjust_hexit@?$output_processor@_WV?$string_output_adapter@_W@__crt_stdio_output@@V?$standard_base@_WV?$string_output_adapter@_W@__crt_stdio_output@@@2@@__crt_stdio_output@@CADH_N@Z 0000000140016370 f i libucrtd:output.obj
 0001:000153c0       ?advance_to_next_pass@?$standard_base@_WV?$string_output_adapter@_W@__crt_stdio_output@@@__crt_stdio_output@@IEAA_NXZ 00000001400163c0 f i libucrtd:output.obj
 0001:000153c0       ?advance_to_next_pass@?$standard_base@DV?$string_output_adapter@D@__crt_stdio_output@@@__crt_stdio_output@@IEAA_NXZ 00000001400163c0 f i libucrtd:output.obj
 0001:000153c0       ?advance_to_next_pass@?$standard_base@_WV?$stream_output_adapter@_W@__crt_stdio_output@@@__crt_stdio_output@@IEAA_NXZ 00000001400163c0 f i libucrtd:output.obj
 0001:00015410       ?crop_zeroes@__crt_stdio_output@@YAXPEADQEAU__crt_locale_pointers@@@Z 0000000140016410 f i libucrtd:output.obj
 0001:00015550       ?find_next_state@?$output_processor@DV?$string_output_adapter@D@__crt_stdio_output@@V?$format_validation_base@DV?$string_output_adapter@D@__crt_stdio_output@@@2@@__crt_stdio_output@@AEBA?AW4state@2@DW432@@Z 0000000140016550 f i libucrtd:output.obj
 0001:000155e0       ?find_next_state@?$output_processor@_WV?$stream_output_adapter@_W@__crt_stdio_output@@V?$standard_base@_WV?$stream_output_adapter@_W@__crt_stdio_output@@@2@@__crt_stdio_output@@AEBA?AW4state@2@_WW432@@Z 00000001400165e0 f i libucrtd:output.obj
 0001:000155e0       ?find_next_state@?$output_processor@_WV?$string_output_adapter@_W@__crt_stdio_output@@V?$standard_base@_WV?$string_output_adapter@_W@__crt_stdio_output@@@2@@__crt_stdio_output@@AEBA?AW4state@2@_WW432@@Z 00000001400165e0 f i libucrtd:output.obj
 0001:00015670       ?find_next_state@?$output_processor@_WV?$string_output_adapter@_W@__crt_stdio_output@@V?$format_validation_base@_WV?$string_output_adapter@_W@__crt_stdio_output@@@2@@__crt_stdio_output@@AEBA?AW4state@2@_WW432@@Z 0000000140016670 f i libucrtd:output.obj
 0001:00015700       ?force_decimal_point@__crt_stdio_output@@YAXPEADQEAU__crt_locale_pointers@@@Z 0000000140016700 f i libucrtd:output.obj
 0001:00015800       ?get@__crt_deferred_errno_cache@@QEAAAEAHXZ 0000000140016800 f i libucrtd:output.obj
 0001:00015830       ?has_flag@?$output_processor@_WV?$stream_output_adapter@_W@__crt_stdio_output@@V?$standard_base@_WV?$stream_output_adapter@_W@__crt_stdio_output@@@2@@__crt_stdio_output@@AEBA_NI@Z 0000000140016830 f i libucrtd:output.obj
 0001:00015830       ?has_flag@?$output_processor@DV?$string_output_adapter@D@__crt_stdio_output@@V?$format_validation_base@DV?$string_output_adapter@D@__crt_stdio_output@@@2@@__crt_stdio_output@@AEBA_NI@Z 0000000140016830 f i libucrtd:output.obj
 0001:00015830       ?has_flag@?$output_processor@_WV?$string_output_adapter@_W@__crt_stdio_output@@V?$format_validation_base@_WV?$string_output_adapter@_W@__crt_stdio_output@@@2@@__crt_stdio_output@@AEBA_NI@Z 0000000140016830 f i libucrtd:output.obj
 0001:00015830       ?has_flag@?$output_processor@_WV?$string_output_adapter@_W@__crt_stdio_output@@V?$standard_base@_WV?$string_output_adapter@_W@__crt_stdio_output@@@2@@__crt_stdio_output@@AEBA_NI@Z 0000000140016830 f i libucrtd:output.obj
 0001:00015870       ?is_string_backed@__crt_stdio_stream@@QEBA_NXZ 0000000140016870 f i libucrtd:output.obj
 0001:000158b0       ?narrow_null_string@?$output_processor@_WV?$stream_output_adapter@_W@__crt_stdio_output@@V?$standard_base@_WV?$stream_output_adapter@_W@__crt_stdio_output@@@2@@__crt_stdio_output@@CAPEADXZ 00000001400168b0 f i libucrtd:output.obj
 0001:000158b0       ?narrow_null_string@?$output_processor@_WV?$string_output_adapter@_W@__crt_stdio_output@@V?$standard_base@_WV?$string_output_adapter@_W@__crt_stdio_output@@@2@@__crt_stdio_output@@CAPEADXZ 00000001400168b0 f i libucrtd:output.obj
 0001:000158b0       ?narrow_null_string@?$output_processor@_WV?$string_output_adapter@_W@__crt_stdio_output@@V?$format_validation_base@_WV?$string_output_adapter@_W@__crt_stdio_output@@@2@@__crt_stdio_output@@CAPEADXZ 00000001400168b0 f i libucrtd:output.obj
 0001:000158b0       ?narrow_null_string@?$output_processor@DV?$string_output_adapter@D@__crt_stdio_output@@V?$format_validation_base@DV?$string_output_adapter@D@__crt_stdio_output@@@2@@__crt_stdio_output@@CAPEADXZ 00000001400168b0 f i libucrtd:output.obj
 0001:000158c0       ?parse_int_from_format_string@?$output_processor@DV?$string_output_adapter@D@__crt_stdio_output@@V?$format_validation_base@DV?$string_output_adapter@D@__crt_stdio_output@@@2@@__crt_stdio_output@@AEAA_NQEAH@Z 00000001400168c0 f i libucrtd:output.obj
 0001:000159b0       ?parse_int_from_format_string@?$output_processor@_WV?$string_output_adapter@_W@__crt_stdio_output@@V?$standard_base@_WV?$string_output_adapter@_W@__crt_stdio_output@@@2@@__crt_stdio_output@@AEAA_NQEAH@Z 00000001400169b0 f i libucrtd:output.obj
 0001:000159b0       ?parse_int_from_format_string@?$output_processor@_WV?$stream_output_adapter@_W@__crt_stdio_output@@V?$standard_base@_WV?$stream_output_adapter@_W@__crt_stdio_output@@@2@@__crt_stdio_output@@AEAA_NQEAH@Z 00000001400169b0 f i libucrtd:output.obj
 0001:000159b0       ?parse_int_from_format_string@?$output_processor@_WV?$string_output_adapter@_W@__crt_stdio_output@@V?$format_validation_base@_WV?$string_output_adapter@_W@__crt_stdio_output@@@2@@__crt_stdio_output@@AEAA_NQEAH@Z 00000001400169b0 f i libucrtd:output.obj
 0001:00015aa0       ?process@?$output_processor@DV?$string_output_adapter@D@__crt_stdio_output@@V?$format_validation_base@DV?$string_output_adapter@D@__crt_stdio_output@@@2@@__crt_stdio_output@@QEAAHXZ 0000000140016aa0 f i libucrtd:output.obj
 0001:00015e00       ?process@?$output_processor@_WV?$stream_output_adapter@_W@__crt_stdio_output@@V?$standard_base@_WV?$stream_output_adapter@_W@__crt_stdio_output@@@2@@__crt_stdio_output@@QEAAHXZ 0000000140016e00 f i libucrtd:output.obj
 0001:00016160       ?process@?$output_processor@_WV?$string_output_adapter@_W@__crt_stdio_output@@V?$format_validation_base@_WV?$string_output_adapter@_W@__crt_stdio_output@@@2@@__crt_stdio_output@@QEAAHXZ 0000000140017160 f i libucrtd:output.obj
 0001:000164c0       ?process@?$output_processor@_WV?$string_output_adapter@_W@__crt_stdio_output@@V?$standard_base@_WV?$string_output_adapter@_W@__crt_stdio_output@@@2@@__crt_stdio_output@@QEAAHXZ 00000001400174c0 f i libucrtd:output.obj
 0001:00016820       ?set_flag@?$output_processor@_WV?$string_output_adapter@_W@__crt_stdio_output@@V?$format_validation_base@_WV?$string_output_adapter@_W@__crt_stdio_output@@@2@@__crt_stdio_output@@AEAAXI@Z 0000000140017820 f i libucrtd:output.obj
 0001:00016820       ?set_flag@?$output_processor@_WV?$string_output_adapter@_W@__crt_stdio_output@@V?$standard_base@_WV?$string_output_adapter@_W@__crt_stdio_output@@@2@@__crt_stdio_output@@AEAAXI@Z 0000000140017820 f i libucrtd:output.obj
 0001:00016820       ?set_flag@?$output_processor@_WV?$stream_output_adapter@_W@__crt_stdio_output@@V?$standard_base@_WV?$stream_output_adapter@_W@__crt_stdio_output@@@2@@__crt_stdio_output@@AEAAXI@Z 0000000140017820 f i libucrtd:output.obj
 0001:00016820       ?set_flag@?$output_processor@DV?$string_output_adapter@D@__crt_stdio_output@@V?$format_validation_base@DV?$string_output_adapter@D@__crt_stdio_output@@@2@@__crt_stdio_output@@AEAAXI@Z 0000000140017820 f i libucrtd:output.obj
 0001:00016840       ?validate_state_for_type_case_a@?$standard_base@_WV?$stream_output_adapter@_W@__crt_stdio_output@@@__crt_stdio_output@@IEBA_NXZ 0000000140017840 f i libucrtd:output.obj
 0001:00016840       ?validate_state_for_type_case_a@?$standard_base@DV?$string_output_adapter@D@__crt_stdio_output@@@__crt_stdio_output@@IEBA_NXZ 0000000140017840 f i libucrtd:output.obj
 0001:00016840       ?validate_and_update_state_at_end_of_format_string@?$standard_base@_WV?$stream_output_adapter@_W@__crt_stdio_output@@@__crt_stdio_output@@IEBA_NXZ 0000000140017840 f i libucrtd:output.obj
 0001:00016840       ?should_format@?$standard_base@DV?$string_output_adapter@D@__crt_stdio_output@@@__crt_stdio_output@@IEAA_NXZ 0000000140017840 f i libucrtd:output.obj
 0001:00016840       ?validate_and_update_state_at_beginning_of_format_character@?$standard_base@_WV?$stream_output_adapter@_W@__crt_stdio_output@@@__crt_stdio_output@@IEAA_NXZ 0000000140017840 f i libucrtd:output.obj
 0001:00016840       ?validate_and_update_state_at_beginning_of_format_character@?$standard_base@DV?$string_output_adapter@D@__crt_stdio_output@@@__crt_stdio_output@@IEAA_NXZ 0000000140017840 f i libucrtd:output.obj
 0001:00016840       ?validate_stream_is_ansi_if_required@?$__acrt_stdio_char_traits@_W@@SA_NQEAU_iobuf@@@Z 0000000140017840 f i libucrtd:output.obj
 0001:00016840       ?should_format@?$standard_base@_WV?$string_output_adapter@_W@__crt_stdio_output@@@__crt_stdio_output@@IEAA_NXZ 0000000140017840 f i libucrtd:output.obj
 0001:00016840       ?validate_and_update_state_at_beginning_of_format_character@?$standard_base@_WV?$string_output_adapter@_W@__crt_stdio_output@@@__crt_stdio_output@@IEAA_NXZ 0000000140017840 f i libucrtd:output.obj
 0001:00016840       ?validate_and_update_state_at_end_of_format_string@?$standard_base@_WV?$string_output_adapter@_W@__crt_stdio_output@@@__crt_stdio_output@@IEBA_NXZ 0000000140017840 f i libucrtd:output.obj
 0001:00016840       ?validate_state_for_type_case_a@?$standard_base@_WV?$string_output_adapter@_W@__crt_stdio_output@@@__crt_stdio_output@@IEBA_NXZ 0000000140017840 f i libucrtd:output.obj
 0001:00016840       ?should_format@?$standard_base@_WV?$stream_output_adapter@_W@__crt_stdio_output@@@__crt_stdio_output@@IEAA_NXZ 0000000140017840 f i libucrtd:output.obj
 0001:00016850       ?should_skip_type_state_output@?$standard_base@_WV?$string_output_adapter@_W@__crt_stdio_output@@@__crt_stdio_output@@IEBA_NXZ 0000000140017850 f i libucrtd:output.obj
 0001:00016850       ?should_skip_normal_state_processing@?$standard_base@DV?$string_output_adapter@D@__crt_stdio_output@@@__crt_stdio_output@@IEAA_NXZ 0000000140017850 f i libucrtd:output.obj
 0001:00016850       ?should_skip_normal_state_processing@?$standard_base@_WV?$string_output_adapter@_W@__crt_stdio_output@@@__crt_stdio_output@@IEAA_NXZ 0000000140017850 f i libucrtd:output.obj
 0001:00016850       ?should_skip_normal_state_processing@?$standard_base@_WV?$stream_output_adapter@_W@__crt_stdio_output@@@__crt_stdio_output@@IEAA_NXZ 0000000140017850 f i libucrtd:output.obj
 0001:00016850       ?should_skip_type_state_output@?$standard_base@_WV?$stream_output_adapter@_W@__crt_stdio_output@@@__crt_stdio_output@@IEBA_NXZ 0000000140017850 f i libucrtd:output.obj
 0001:00016850       ?should_skip_type_state_output@?$standard_base@DV?$string_output_adapter@D@__crt_stdio_output@@@__crt_stdio_output@@IEBA_NXZ 0000000140017850 f i libucrtd:output.obj
 0001:00016860       ?state_case_dot@?$output_processor@DV?$string_output_adapter@D@__crt_stdio_output@@V?$format_validation_base@DV?$string_output_adapter@D@__crt_stdio_output@@@2@@__crt_stdio_output@@AEAA_NXZ 0000000140017860 f i libucrtd:output.obj
 0001:00016860       ?state_case_dot@?$output_processor@_WV?$string_output_adapter@_W@__crt_stdio_output@@V?$standard_base@_WV?$string_output_adapter@_W@__crt_stdio_output@@@2@@__crt_stdio_output@@AEAA_NXZ 0000000140017860 f i libucrtd:output.obj
 0001:00016860       ?state_case_dot@?$output_processor@_WV?$string_output_adapter@_W@__crt_stdio_output@@V?$format_validation_base@_WV?$string_output_adapter@_W@__crt_stdio_output@@@2@@__crt_stdio_output@@AEAA_NXZ 0000000140017860 f i libucrtd:output.obj
 0001:00016860       ?state_case_dot@?$output_processor@_WV?$stream_output_adapter@_W@__crt_stdio_output@@V?$standard_base@_WV?$stream_output_adapter@_W@__crt_stdio_output@@@2@@__crt_stdio_output@@AEAA_NXZ 0000000140017860 f i libucrtd:output.obj
 0001:00016880       ?state_case_flag@?$output_processor@DV?$string_output_adapter@D@__crt_stdio_output@@V?$format_validation_base@DV?$string_output_adapter@D@__crt_stdio_output@@@2@@__crt_stdio_output@@AEAA_NXZ 0000000140017880 f i libucrtd:output.obj
 0001:00016920       ?state_case_flag@?$output_processor@_WV?$stream_output_adapter@_W@__crt_stdio_output@@V?$standard_base@_WV?$stream_output_adapter@_W@__crt_stdio_output@@@2@@__crt_stdio_output@@AEAA_NXZ 0000000140017920 f i libucrtd:output.obj
 0001:00016920       ?state_case_flag@?$output_processor@_WV?$string_output_adapter@_W@__crt_stdio_output@@V?$format_validation_base@_WV?$string_output_adapter@_W@__crt_stdio_output@@@2@@__crt_stdio_output@@AEAA_NXZ 0000000140017920 f i libucrtd:output.obj
 0001:00016920       ?state_case_flag@?$output_processor@_WV?$string_output_adapter@_W@__crt_stdio_output@@V?$standard_base@_WV?$string_output_adapter@_W@__crt_stdio_output@@@2@@__crt_stdio_output@@AEAA_NXZ 0000000140017920 f i libucrtd:output.obj
 0001:000169c0       ?state_case_normal@?$output_processor@DV?$string_output_adapter@D@__crt_stdio_output@@V?$format_validation_base@DV?$string_output_adapter@D@__crt_stdio_output@@@2@@__crt_stdio_output@@AEAA_NXZ 00000001400179c0 f i libucrtd:output.obj
 0001:00016aa0       ?state_case_normal@?$output_processor@_WV?$stream_output_adapter@_W@__crt_stdio_output@@V?$standard_base@_WV?$stream_output_adapter@_W@__crt_stdio_output@@@2@@__crt_stdio_output@@AEAA_NXZ 0000000140017aa0 f i libucrtd:output.obj
 0001:00016b80       ?state_case_normal@?$output_processor@_WV?$string_output_adapter@_W@__crt_stdio_output@@V?$format_validation_base@_WV?$string_output_adapter@_W@__crt_stdio_output@@@2@@__crt_stdio_output@@AEAA_NXZ 0000000140017b80 f i libucrtd:output.obj
 0001:00016c60       ?state_case_normal@?$output_processor@_WV?$string_output_adapter@_W@__crt_stdio_output@@V?$standard_base@_WV?$string_output_adapter@_W@__crt_stdio_output@@@2@@__crt_stdio_output@@AEAA_NXZ 0000000140017c60 f i libucrtd:output.obj
 0001:00016d40       ?state_case_normal_common@?$output_processor@DV?$string_output_adapter@D@__crt_stdio_output@@V?$format_validation_base@DV?$string_output_adapter@D@__crt_stdio_output@@@2@@__crt_stdio_output@@AEAA_NXZ 0000000140017d40 f i libucrtd:output.obj
 0001:00016d90       ?state_case_normal_common@?$output_processor@_WV?$stream_output_adapter@_W@__crt_stdio_output@@V?$standard_base@_WV?$stream_output_adapter@_W@__crt_stdio_output@@@2@@__crt_stdio_output@@AEAA_NXZ 0000000140017d90 f i libucrtd:output.obj
 0001:00016de0       ?state_case_normal_common@?$output_processor@_WV?$string_output_adapter@_W@__crt_stdio_output@@V?$format_validation_base@_WV?$string_output_adapter@_W@__crt_stdio_output@@@2@@__crt_stdio_output@@AEAA_NXZ 0000000140017de0 f i libucrtd:output.obj
 0001:00016de0       ?state_case_normal_common@?$output_processor@_WV?$string_output_adapter@_W@__crt_stdio_output@@V?$standard_base@_WV?$string_output_adapter@_W@__crt_stdio_output@@@2@@__crt_stdio_output@@AEAA_NXZ 0000000140017de0 f i libucrtd:output.obj
 0001:00016e30       ?state_case_normal_tchar@?$output_processor@DV?$string_output_adapter@D@__crt_stdio_output@@V?$format_validation_base@DV?$string_output_adapter@D@__crt_stdio_output@@@2@@__crt_stdio_output@@AEAA_ND@Z 0000000140017e30 f i libucrtd:output.obj
 0001:00016f70       ?state_case_normal_tchar@?$output_processor@_WV?$stream_output_adapter@_W@__crt_stdio_output@@V?$standard_base@_WV?$stream_output_adapter@_W@__crt_stdio_output@@@2@@__crt_stdio_output@@AEAA_N_W@Z 0000000140017f70 f i libucrtd:output.obj
 0001:00016f70       ?state_case_normal_tchar@?$output_processor@_WV?$string_output_adapter@_W@__crt_stdio_output@@V?$format_validation_base@_WV?$string_output_adapter@_W@__crt_stdio_output@@@2@@__crt_stdio_output@@AEAA_N_W@Z 0000000140017f70 f i libucrtd:output.obj
 0001:00016f70       ?state_case_normal_tchar@?$output_processor@_WV?$string_output_adapter@_W@__crt_stdio_output@@V?$standard_base@_WV?$string_output_adapter@_W@__crt_stdio_output@@@2@@__crt_stdio_output@@AEAA_N_W@Z 0000000140017f70 f i libucrtd:output.obj
 0001:00016f90       ?state_case_percent@?$output_processor@_WV?$stream_output_adapter@_W@__crt_stdio_output@@V?$standard_base@_WV?$stream_output_adapter@_W@__crt_stdio_output@@@2@@__crt_stdio_output@@AEAA_NXZ 0000000140017f90 f i libucrtd:output.obj
 0001:00016f90       ?state_case_percent@?$output_processor@DV?$string_output_adapter@D@__crt_stdio_output@@V?$format_validation_base@DV?$string_output_adapter@D@__crt_stdio_output@@@2@@__crt_stdio_output@@AEAA_NXZ 0000000140017f90 f i libucrtd:output.obj
 0001:00016f90       ?state_case_percent@?$output_processor@_WV?$string_output_adapter@_W@__crt_stdio_output@@V?$format_validation_base@_WV?$string_output_adapter@_W@__crt_stdio_output@@@2@@__crt_stdio_output@@AEAA_NXZ 0000000140017f90 f i libucrtd:output.obj
 0001:00016f90       ?state_case_percent@?$output_processor@_WV?$string_output_adapter@_W@__crt_stdio_output@@V?$standard_base@_WV?$string_output_adapter@_W@__crt_stdio_output@@@2@@__crt_stdio_output@@AEAA_NXZ 0000000140017f90 f i libucrtd:output.obj
 0001:00016fe0       ?state_case_precision@?$output_processor@DV?$string_output_adapter@D@__crt_stdio_output@@V?$format_validation_base@DV?$string_output_adapter@D@__crt_stdio_output@@@2@@__crt_stdio_output@@AEAA_NXZ 0000000140017fe0 f i libucrtd:output.obj
 0001:00017060       ?state_case_precision@?$output_processor@_WV?$string_output_adapter@_W@__crt_stdio_output@@V?$standard_base@_WV?$string_output_adapter@_W@__crt_stdio_output@@@2@@__crt_stdio_output@@AEAA_NXZ 0000000140018060 f i libucrtd:output.obj
 0001:00017060       ?state_case_precision@?$output_processor@_WV?$stream_output_adapter@_W@__crt_stdio_output@@V?$standard_base@_WV?$stream_output_adapter@_W@__crt_stdio_output@@@2@@__crt_stdio_output@@AEAA_NXZ 0000000140018060 f i libucrtd:output.obj
 0001:00017060       ?state_case_precision@?$output_processor@_WV?$string_output_adapter@_W@__crt_stdio_output@@V?$format_validation_base@_WV?$string_output_adapter@_W@__crt_stdio_output@@@2@@__crt_stdio_output@@AEAA_NXZ 0000000140018060 f i libucrtd:output.obj
 0001:000170e0       ?state_case_size@?$output_processor@DV?$string_output_adapter@D@__crt_stdio_output@@V?$format_validation_base@DV?$string_output_adapter@D@__crt_stdio_output@@@2@@__crt_stdio_output@@AEAA_NXZ 00000001400180e0 f i libucrtd:output.obj
 0001:00017560       ?state_case_size@?$output_processor@_WV?$stream_output_adapter@_W@__crt_stdio_output@@V?$standard_base@_WV?$stream_output_adapter@_W@__crt_stdio_output@@@2@@__crt_stdio_output@@AEAA_NXZ 0000000140018560 f i libucrtd:output.obj
 0001:000179e0       ?state_case_size@?$output_processor@_WV?$string_output_adapter@_W@__crt_stdio_output@@V?$format_validation_base@_WV?$string_output_adapter@_W@__crt_stdio_output@@@2@@__crt_stdio_output@@AEAA_NXZ 00000001400189e0 f i libucrtd:output.obj
 0001:00017e60       ?state_case_size@?$output_processor@_WV?$string_output_adapter@_W@__crt_stdio_output@@V?$standard_base@_WV?$string_output_adapter@_W@__crt_stdio_output@@@2@@__crt_stdio_output@@AEAA_NXZ 0000000140018e60 f i libucrtd:output.obj
 0001:000182e0       ?state_case_type@?$output_processor@DV?$string_output_adapter@D@__crt_stdio_output@@V?$format_validation_base@DV?$string_output_adapter@D@__crt_stdio_output@@@2@@__crt_stdio_output@@AEAA_NXZ 00000001400192e0 f i libucrtd:output.obj
 0001:00018780       ?state_case_type@?$output_processor@_WV?$stream_output_adapter@_W@__crt_stdio_output@@V?$standard_base@_WV?$stream_output_adapter@_W@__crt_stdio_output@@@2@@__crt_stdio_output@@AEAA_NXZ 0000000140019780 f i libucrtd:output.obj
 0001:00018ce0       ?state_case_type@?$output_processor@_WV?$string_output_adapter@_W@__crt_stdio_output@@V?$format_validation_base@_WV?$string_output_adapter@_W@__crt_stdio_output@@@2@@__crt_stdio_output@@AEAA_NXZ 0000000140019ce0 f i libucrtd:output.obj
 0001:00019240       ?state_case_type@?$output_processor@_WV?$string_output_adapter@_W@__crt_stdio_output@@V?$standard_base@_WV?$string_output_adapter@_W@__crt_stdio_output@@@2@@__crt_stdio_output@@AEAA_NXZ 000000014001a240 f i libucrtd:output.obj
 0001:000197a0       ?state_case_width@?$output_processor@DV?$string_output_adapter@D@__crt_stdio_output@@V?$format_validation_base@DV?$string_output_adapter@D@__crt_stdio_output@@@2@@__crt_stdio_output@@AEAA_NXZ 000000014001a7a0 f i libucrtd:output.obj
 0001:00019830       ?state_case_width@?$output_processor@_WV?$stream_output_adapter@_W@__crt_stdio_output@@V?$standard_base@_WV?$stream_output_adapter@_W@__crt_stdio_output@@@2@@__crt_stdio_output@@AEAA_NXZ 000000014001a830 f i libucrtd:output.obj
 0001:00019830       ?state_case_width@?$output_processor@_WV?$string_output_adapter@_W@__crt_stdio_output@@V?$format_validation_base@_WV?$string_output_adapter@_W@__crt_stdio_output@@@2@@__crt_stdio_output@@AEAA_NXZ 000000014001a830 f i libucrtd:output.obj
 0001:00019830       ?state_case_width@?$output_processor@_WV?$string_output_adapter@_W@__crt_stdio_output@@V?$standard_base@_WV?$string_output_adapter@_W@__crt_stdio_output@@@2@@__crt_stdio_output@@AEAA_NXZ 000000014001a830 f i libucrtd:output.obj
 0001:000198c0       ?state_count@?$format_validation_base@DV?$string_output_adapter@D@__crt_stdio_output@@@__crt_stdio_output@@KAIXZ 000000014001a8c0 f i libucrtd:output.obj
 0001:000198c0       ?state_count@?$format_validation_base@_WV?$string_output_adapter@_W@__crt_stdio_output@@@__crt_stdio_output@@KAIXZ 000000014001a8c0 f i libucrtd:output.obj
 0001:000198d0       ?state_count@?$standard_base@_WV?$stream_output_adapter@_W@__crt_stdio_output@@@__crt_stdio_output@@KAIXZ 000000014001a8d0 f i libucrtd:output.obj
 0001:000198d0       ?state_count@?$standard_base@_WV?$string_output_adapter@_W@__crt_stdio_output@@@__crt_stdio_output@@KAIXZ 000000014001a8d0 f i libucrtd:output.obj
 0001:000198e0       ?state_transition_table@?$format_validation_base@DV?$string_output_adapter@D@__crt_stdio_output@@@__crt_stdio_output@@KAAEBV?$spectre_mitigated_lookup_table@Ustate_transition_pair@__crt_stdio_output@@$0IA@@2@XZ 000000014001a8e0 f i libucrtd:output.obj
 0001:000198e0       ?state_transition_table@?$format_validation_base@_WV?$string_output_adapter@_W@__crt_stdio_output@@@__crt_stdio_output@@KAAEBV?$spectre_mitigated_lookup_table@Ustate_transition_pair@__crt_stdio_output@@$0IA@@2@XZ 000000014001a8e0 f i libucrtd:output.obj
 0001:000198f0       ?state_transition_table@?$standard_base@_WV?$stream_output_adapter@_W@__crt_stdio_output@@@__crt_stdio_output@@KAAEBV?$spectre_mitigated_lookup_table@Ustate_transition_pair@__crt_stdio_output@@$0IA@@2@XZ 000000014001a8f0 f i libucrtd:output.obj
 0001:000198f0       ?state_transition_table@?$standard_base@_WV?$string_output_adapter@_W@__crt_stdio_output@@@__crt_stdio_output@@KAAEBV?$spectre_mitigated_lookup_table@Ustate_transition_pair@__crt_stdio_output@@$0IA@@2@XZ 000000014001a8f0 f i libucrtd:output.obj
 0001:00019900       ?tchar_string@?$common_data@D@__crt_stdio_output@@IEAAAEAPEADD@Z 000000014001a900 f i libucrtd:output.obj
 0001:00019920       ?tchar_string@?$common_data@D@__crt_stdio_output@@IEAAAEAPEADXZ 000000014001a920 f i libucrtd:output.obj
 0001:00019940       ?tchar_string@?$common_data@_W@__crt_stdio_output@@IEAAAEAPEA_WXZ 000000014001a940 f i libucrtd:output.obj
 0001:00019960       ?tchar_string@?$common_data@_W@__crt_stdio_output@@IEAAAEAPEA_W_W@Z 000000014001a960 f i libucrtd:output.obj
 0001:00019980       ?to_integer_size@__crt_stdio_output@@YA_KW4length_modifier@1@@Z 000000014001a980 f i libucrtd:output.obj
 0001:00019a30       ?type_case_X@?$output_processor@DV?$string_output_adapter@D@__crt_stdio_output@@V?$format_validation_base@DV?$string_output_adapter@D@__crt_stdio_output@@@2@@__crt_stdio_output@@AEAA_NXZ 000000014001aa30 f i libucrtd:output.obj
 0001:00019a50       ?type_case_X@?$output_processor@_WV?$stream_output_adapter@_W@__crt_stdio_output@@V?$standard_base@_WV?$stream_output_adapter@_W@__crt_stdio_output@@@2@@__crt_stdio_output@@AEAA_NXZ 000000014001aa50 f i libucrtd:output.obj
 0001:00019a70       ?type_case_X@?$output_processor@_WV?$string_output_adapter@_W@__crt_stdio_output@@V?$format_validation_base@_WV?$string_output_adapter@_W@__crt_stdio_output@@@2@@__crt_stdio_output@@AEAA_NXZ 000000014001aa70 f i libucrtd:output.obj
 0001:00019a90       ?type_case_X@?$output_processor@_WV?$string_output_adapter@_W@__crt_stdio_output@@V?$standard_base@_WV?$string_output_adapter@_W@__crt_stdio_output@@@2@@__crt_stdio_output@@AEAA_NXZ 000000014001aa90 f i libucrtd:output.obj
 0001:00019ab0       ?type_case_Z@?$output_processor@DV?$string_output_adapter@D@__crt_stdio_output@@V?$format_validation_base@DV?$string_output_adapter@D@__crt_stdio_output@@@2@@__crt_stdio_output@@AEAA_NXZ 000000014001aab0 f i libucrtd:output.obj
 0001:00019bd0       ?type_case_Z@?$output_processor@_WV?$string_output_adapter@_W@__crt_stdio_output@@V?$standard_base@_WV?$string_output_adapter@_W@__crt_stdio_output@@@2@@__crt_stdio_output@@AEAA_NXZ 000000014001abd0 f i libucrtd:output.obj
 0001:00019bd0       ?type_case_Z@?$output_processor@_WV?$stream_output_adapter@_W@__crt_stdio_output@@V?$standard_base@_WV?$stream_output_adapter@_W@__crt_stdio_output@@@2@@__crt_stdio_output@@AEAA_NXZ 000000014001abd0 f i libucrtd:output.obj
 0001:00019bd0       ?type_case_Z@?$output_processor@_WV?$string_output_adapter@_W@__crt_stdio_output@@V?$format_validation_base@_WV?$string_output_adapter@_W@__crt_stdio_output@@@2@@__crt_stdio_output@@AEAA_NXZ 000000014001abd0 f i libucrtd:output.obj
 0001:00019cf0       ?type_case_a@?$output_processor@DV?$string_output_adapter@D@__crt_stdio_output@@V?$format_validation_base@DV?$string_output_adapter@D@__crt_stdio_output@@@2@@__crt_stdio_output@@AEAA_NXZ 000000014001acf0 f i libucrtd:output.obj
 0001:0001a0c0       ?type_case_a@?$output_processor@_WV?$string_output_adapter@_W@__crt_stdio_output@@V?$format_validation_base@_WV?$string_output_adapter@_W@__crt_stdio_output@@@2@@__crt_stdio_output@@AEAA_NXZ 000000014001b0c0 f i libucrtd:output.obj
 0001:0001a0c0       ?type_case_a@?$output_processor@_WV?$string_output_adapter@_W@__crt_stdio_output@@V?$standard_base@_WV?$string_output_adapter@_W@__crt_stdio_output@@@2@@__crt_stdio_output@@AEAA_NXZ 000000014001b0c0 f i libucrtd:output.obj
 0001:0001a0c0       ?type_case_a@?$output_processor@_WV?$stream_output_adapter@_W@__crt_stdio_output@@V?$standard_base@_WV?$stream_output_adapter@_W@__crt_stdio_output@@@2@@__crt_stdio_output@@AEAA_NXZ 000000014001b0c0 f i libucrtd:output.obj
 0001:0001a490       ?type_case_c@?$output_processor@DV?$string_output_adapter@D@__crt_stdio_output@@V?$format_validation_base@DV?$string_output_adapter@D@__crt_stdio_output@@@2@@__crt_stdio_output@@AEAA_NXZ 000000014001b490 f i libucrtd:output.obj
 0001:0001a4b0       ?type_case_c@?$output_processor@_WV?$stream_output_adapter@_W@__crt_stdio_output@@V?$standard_base@_WV?$stream_output_adapter@_W@__crt_stdio_output@@@2@@__crt_stdio_output@@AEAA_NXZ 000000014001b4b0 f i libucrtd:output.obj
 0001:0001a4b0       ?type_case_c@?$output_processor@_WV?$string_output_adapter@_W@__crt_stdio_output@@V?$standard_base@_WV?$string_output_adapter@_W@__crt_stdio_output@@@2@@__crt_stdio_output@@AEAA_NXZ 000000014001b4b0 f i libucrtd:output.obj
 0001:0001a4b0       ?type_case_c@?$output_processor@_WV?$string_output_adapter@_W@__crt_stdio_output@@V?$format_validation_base@_WV?$string_output_adapter@_W@__crt_stdio_output@@@2@@__crt_stdio_output@@AEAA_NXZ 000000014001b4b0 f i libucrtd:output.obj
 0001:0001a4d0       ?type_case_c_tchar@?$output_processor@DV?$string_output_adapter@D@__crt_stdio_output@@V?$format_validation_base@DV?$string_output_adapter@D@__crt_stdio_output@@@2@@__crt_stdio_output@@AEAA_ND@Z 000000014001b4d0 f i libucrtd:output.obj
 0001:0001a630       ?type_case_c_tchar@?$output_processor@_WV?$string_output_adapter@_W@__crt_stdio_output@@V?$format_validation_base@_WV?$string_output_adapter@_W@__crt_stdio_output@@@2@@__crt_stdio_output@@AEAA_N_W@Z 000000014001b630 f i libucrtd:output.obj
 0001:0001a630       ?type_case_c_tchar@?$output_processor@_WV?$stream_output_adapter@_W@__crt_stdio_output@@V?$standard_base@_WV?$stream_output_adapter@_W@__crt_stdio_output@@@2@@__crt_stdio_output@@AEAA_N_W@Z 000000014001b630 f i libucrtd:output.obj
 0001:0001a630       ?type_case_c_tchar@?$output_processor@_WV?$string_output_adapter@_W@__crt_stdio_output@@V?$standard_base@_WV?$string_output_adapter@_W@__crt_stdio_output@@@2@@__crt_stdio_output@@AEAA_N_W@Z 000000014001b630 f i libucrtd:output.obj
 0001:0001a760       ?type_case_d@?$output_processor@DV?$string_output_adapter@D@__crt_stdio_output@@V?$format_validation_base@DV?$string_output_adapter@D@__crt_stdio_output@@@2@@__crt_stdio_output@@AEAA_NXZ 000000014001b760 f i libucrtd:output.obj
 0001:0001a790       ?type_case_d@?$output_processor@_WV?$stream_output_adapter@_W@__crt_stdio_output@@V?$standard_base@_WV?$stream_output_adapter@_W@__crt_stdio_output@@@2@@__crt_stdio_output@@AEAA_NXZ 000000014001b790 f i libucrtd:output.obj
 0001:0001a7c0       ?type_case_d@?$output_processor@_WV?$string_output_adapter@_W@__crt_stdio_output@@V?$format_validation_base@_WV?$string_output_adapter@_W@__crt_stdio_output@@@2@@__crt_stdio_output@@AEAA_NXZ 000000014001b7c0 f i libucrtd:output.obj
 0001:0001a7f0       ?type_case_d@?$output_processor@_WV?$string_output_adapter@_W@__crt_stdio_output@@V?$standard_base@_WV?$string_output_adapter@_W@__crt_stdio_output@@@2@@__crt_stdio_output@@AEAA_NXZ 000000014001b7f0 f i libucrtd:output.obj
 0001:0001a820       ?type_case_integer@?$output_processor@DV?$string_output_adapter@D@__crt_stdio_output@@V?$format_validation_base@DV?$string_output_adapter@D@__crt_stdio_output@@@2@@__crt_stdio_output@@AEAA_NI_N@Z 000000014001b820 f i libucrtd:output.obj
 0001:0001ac70       ?type_case_integer@?$output_processor@_WV?$stream_output_adapter@_W@__crt_stdio_output@@V?$standard_base@_WV?$stream_output_adapter@_W@__crt_stdio_output@@@2@@__crt_stdio_output@@AEAA_NI_N@Z 000000014001bc70 f i libucrtd:output.obj
 0001:0001b0c0       ?type_case_integer@?$output_processor@_WV?$string_output_adapter@_W@__crt_stdio_output@@V?$format_validation_base@_WV?$string_output_adapter@_W@__crt_stdio_output@@@2@@__crt_stdio_output@@AEAA_NI_N@Z 000000014001c0c0 f i libucrtd:output.obj
 0001:0001b510       ?type_case_integer@?$output_processor@_WV?$string_output_adapter@_W@__crt_stdio_output@@V?$standard_base@_WV?$string_output_adapter@_W@__crt_stdio_output@@@2@@__crt_stdio_output@@AEAA_NI_N@Z 000000014001c510 f i libucrtd:output.obj
 0001:0001b960       ?type_case_n@?$output_processor@DV?$string_output_adapter@D@__crt_stdio_output@@V?$format_validation_base@DV?$string_output_adapter@D@__crt_stdio_output@@@2@@__crt_stdio_output@@AEAA_NXZ 000000014001c960 f i libucrtd:output.obj
 0001:0001bba0       ?type_case_n@?$output_processor@_WV?$stream_output_adapter@_W@__crt_stdio_output@@V?$standard_base@_WV?$stream_output_adapter@_W@__crt_stdio_output@@@2@@__crt_stdio_output@@AEAA_NXZ 000000014001cba0 f i libucrtd:output.obj
 0001:0001bde0       ?type_case_n@?$output_processor@_WV?$string_output_adapter@_W@__crt_stdio_output@@V?$format_validation_base@_WV?$string_output_adapter@_W@__crt_stdio_output@@@2@@__crt_stdio_output@@AEAA_NXZ 000000014001cde0 f i libucrtd:output.obj
 0001:0001c020       ?type_case_n@?$output_processor@_WV?$string_output_adapter@_W@__crt_stdio_output@@V?$standard_base@_WV?$string_output_adapter@_W@__crt_stdio_output@@@2@@__crt_stdio_output@@AEAA_NXZ 000000014001d020 f i libucrtd:output.obj
 0001:0001c260       ?type_case_o@?$output_processor@DV?$string_output_adapter@D@__crt_stdio_output@@V?$format_validation_base@DV?$string_output_adapter@D@__crt_stdio_output@@@2@@__crt_stdio_output@@AEAA_NXZ 000000014001d260 f i libucrtd:output.obj
 0001:0001c2b0       ?type_case_o@?$output_processor@_WV?$stream_output_adapter@_W@__crt_stdio_output@@V?$standard_base@_WV?$stream_output_adapter@_W@__crt_stdio_output@@@2@@__crt_stdio_output@@AEAA_NXZ 000000014001d2b0 f i libucrtd:output.obj
 0001:0001c300       ?type_case_o@?$output_processor@_WV?$string_output_adapter@_W@__crt_stdio_output@@V?$format_validation_base@_WV?$string_output_adapter@_W@__crt_stdio_output@@@2@@__crt_stdio_output@@AEAA_NXZ 000000014001d300 f i libucrtd:output.obj
 0001:0001c350       ?type_case_o@?$output_processor@_WV?$string_output_adapter@_W@__crt_stdio_output@@V?$standard_base@_WV?$string_output_adapter@_W@__crt_stdio_output@@@2@@__crt_stdio_output@@AEAA_NXZ 000000014001d350 f i libucrtd:output.obj
 0001:0001c3a0       ?type_case_p@?$output_processor@DV?$string_output_adapter@D@__crt_stdio_output@@V?$format_validation_base@DV?$string_output_adapter@D@__crt_stdio_output@@@2@@__crt_stdio_output@@AEAA_NXZ 000000014001d3a0 f i libucrtd:output.obj
 0001:0001c3e0       ?type_case_p@?$output_processor@_WV?$stream_output_adapter@_W@__crt_stdio_output@@V?$standard_base@_WV?$stream_output_adapter@_W@__crt_stdio_output@@@2@@__crt_stdio_output@@AEAA_NXZ 000000014001d3e0 f i libucrtd:output.obj
 0001:0001c420       ?type_case_p@?$output_processor@_WV?$string_output_adapter@_W@__crt_stdio_output@@V?$format_validation_base@_WV?$string_output_adapter@_W@__crt_stdio_output@@@2@@__crt_stdio_output@@AEAA_NXZ 000000014001d420 f i libucrtd:output.obj
 0001:0001c460       ?type_case_p@?$output_processor@_WV?$string_output_adapter@_W@__crt_stdio_output@@V?$standard_base@_WV?$string_output_adapter@_W@__crt_stdio_output@@@2@@__crt_stdio_output@@AEAA_NXZ 000000014001d460 f i libucrtd:output.obj
 0001:0001c4a0       ?type_case_s@?$output_processor@DV?$string_output_adapter@D@__crt_stdio_output@@V?$format_validation_base@DV?$string_output_adapter@D@__crt_stdio_output@@@2@@__crt_stdio_output@@AEAA_NXZ 000000014001d4a0 f i libucrtd:output.obj
 0001:0001c5c0       ?type_case_s@?$output_processor@_WV?$string_output_adapter@_W@__crt_stdio_output@@V?$standard_base@_WV?$string_output_adapter@_W@__crt_stdio_output@@@2@@__crt_stdio_output@@AEAA_NXZ 000000014001d5c0 f i libucrtd:output.obj
 0001:0001c5c0       ?type_case_s@?$output_processor@_WV?$string_output_adapter@_W@__crt_stdio_output@@V?$format_validation_base@_WV?$string_output_adapter@_W@__crt_stdio_output@@@2@@__crt_stdio_output@@AEAA_NXZ 000000014001d5c0 f i libucrtd:output.obj
 0001:0001c5c0       ?type_case_s@?$output_processor@_WV?$stream_output_adapter@_W@__crt_stdio_output@@V?$standard_base@_WV?$stream_output_adapter@_W@__crt_stdio_output@@@2@@__crt_stdio_output@@AEAA_NXZ 000000014001d5c0 f i libucrtd:output.obj
 0001:0001c6e0       ?type_case_s_compute_narrow_string_length@?$output_processor@DV?$string_output_adapter@D@__crt_stdio_output@@V?$format_validation_base@DV?$string_output_adapter@D@__crt_stdio_output@@@2@@__crt_stdio_output@@AEBAHHD@Z 000000014001d6e0 f i libucrtd:output.obj
 0001:0001c710       ?type_case_s_compute_narrow_string_length@?$output_processor@_WV?$string_output_adapter@_W@__crt_stdio_output@@V?$standard_base@_WV?$string_output_adapter@_W@__crt_stdio_output@@@2@@__crt_stdio_output@@AEBAHH_W@Z 000000014001d710 f i libucrtd:output.obj
 0001:0001c710       ?type_case_s_compute_narrow_string_length@?$output_processor@_WV?$stream_output_adapter@_W@__crt_stdio_output@@V?$standard_base@_WV?$stream_output_adapter@_W@__crt_stdio_output@@@2@@__crt_stdio_output@@AEBAHH_W@Z 000000014001d710 f i libucrtd:output.obj
 0001:0001c710       ?type_case_s_compute_narrow_string_length@?$output_processor@_WV?$string_output_adapter@_W@__crt_stdio_output@@V?$format_validation_base@_WV?$string_output_adapter@_W@__crt_stdio_output@@@2@@__crt_stdio_output@@AEBAHH_W@Z 000000014001d710 f i libucrtd:output.obj
 0001:0001c7a0       ?type_case_u@?$output_processor@DV?$string_output_adapter@D@__crt_stdio_output@@V?$format_validation_base@DV?$string_output_adapter@D@__crt_stdio_output@@@2@@__crt_stdio_output@@AEAA_NXZ 000000014001d7a0 f i libucrtd:output.obj
 0001:0001c7c0       ?type_case_u@?$output_processor@_WV?$stream_output_adapter@_W@__crt_stdio_output@@V?$standard_base@_WV?$stream_output_adapter@_W@__crt_stdio_output@@@2@@__crt_stdio_output@@AEAA_NXZ 000000014001d7c0 f i libucrtd:output.obj
 0001:0001c7e0       ?type_case_u@?$output_processor@_WV?$string_output_adapter@_W@__crt_stdio_output@@V?$format_validation_base@_WV?$string_output_adapter@_W@__crt_stdio_output@@@2@@__crt_stdio_output@@AEAA_NXZ 000000014001d7e0 f i libucrtd:output.obj
 0001:0001c800       ?type_case_u@?$output_processor@_WV?$string_output_adapter@_W@__crt_stdio_output@@V?$standard_base@_WV?$string_output_adapter@_W@__crt_stdio_output@@@2@@__crt_stdio_output@@AEAA_NXZ 000000014001d800 f i libucrtd:output.obj
 0001:0001c820       ?type_case_x@?$output_processor@DV?$string_output_adapter@D@__crt_stdio_output@@V?$format_validation_base@DV?$string_output_adapter@D@__crt_stdio_output@@@2@@__crt_stdio_output@@AEAA_NXZ 000000014001d820 f i libucrtd:output.obj
 0001:0001c840       ?type_case_x@?$output_processor@_WV?$stream_output_adapter@_W@__crt_stdio_output@@V?$standard_base@_WV?$stream_output_adapter@_W@__crt_stdio_output@@@2@@__crt_stdio_output@@AEAA_NXZ 000000014001d840 f i libucrtd:output.obj
 0001:0001c860       ?type_case_x@?$output_processor@_WV?$string_output_adapter@_W@__crt_stdio_output@@V?$format_validation_base@_WV?$string_output_adapter@_W@__crt_stdio_output@@@2@@__crt_stdio_output@@AEAA_NXZ 000000014001d860 f i libucrtd:output.obj
 0001:0001c880       ?type_case_x@?$output_processor@_WV?$string_output_adapter@_W@__crt_stdio_output@@V?$standard_base@_WV?$string_output_adapter@_W@__crt_stdio_output@@@2@@__crt_stdio_output@@AEAA_NXZ 000000014001d880 f i libucrtd:output.obj
 0001:0001c8a0       ?unset_flag@?$output_processor@DV?$string_output_adapter@D@__crt_stdio_output@@V?$format_validation_base@DV?$string_output_adapter@D@__crt_stdio_output@@@2@@__crt_stdio_output@@AEAAXI@Z 000000014001d8a0 f i libucrtd:output.obj
 0001:0001c8a0       ?unset_flag@?$output_processor@_WV?$string_output_adapter@_W@__crt_stdio_output@@V?$standard_base@_WV?$string_output_adapter@_W@__crt_stdio_output@@@2@@__crt_stdio_output@@AEAAXI@Z 000000014001d8a0 f i libucrtd:output.obj
 0001:0001c8a0       ?unset_flag@?$output_processor@_WV?$string_output_adapter@_W@__crt_stdio_output@@V?$format_validation_base@_WV?$string_output_adapter@_W@__crt_stdio_output@@@2@@__crt_stdio_output@@AEAAXI@Z 000000014001d8a0 f i libucrtd:output.obj
 0001:0001c8a0       ?unset_flag@?$output_processor@_WV?$stream_output_adapter@_W@__crt_stdio_output@@V?$standard_base@_WV?$stream_output_adapter@_W@__crt_stdio_output@@@2@@__crt_stdio_output@@AEAAXI@Z 000000014001d8a0 f i libucrtd:output.obj
 0001:0001c8d0       ?update_field_width@?$standard_base@_WV?$stream_output_adapter@_W@__crt_stdio_output@@@__crt_stdio_output@@IEAA_NXZ 000000014001d8d0 f i libucrtd:output.obj
 0001:0001c8d0       ?update_field_width@?$standard_base@DV?$string_output_adapter@D@__crt_stdio_output@@@__crt_stdio_output@@IEAA_NXZ 000000014001d8d0 f i libucrtd:output.obj
 0001:0001c8d0       ?update_field_width@?$standard_base@_WV?$string_output_adapter@_W@__crt_stdio_output@@@__crt_stdio_output@@IEAA_NXZ 000000014001d8d0 f i libucrtd:output.obj
 0001:0001c900       ?update_precision@?$standard_base@_WV?$string_output_adapter@_W@__crt_stdio_output@@@__crt_stdio_output@@IEAA_NXZ 000000014001d900 f i libucrtd:output.obj
 0001:0001c900       ?update_precision@?$standard_base@DV?$string_output_adapter@D@__crt_stdio_output@@@__crt_stdio_output@@IEAA_NXZ 000000014001d900 f i libucrtd:output.obj
 0001:0001c900       ?update_precision@?$standard_base@_WV?$stream_output_adapter@_W@__crt_stdio_output@@@__crt_stdio_output@@IEAA_NXZ 000000014001d900 f i libucrtd:output.obj
 0001:0001c930       ?validate@?$stream_output_adapter@_W@__crt_stdio_output@@QEBA_NXZ 000000014001d930 f i libucrtd:output.obj
 0001:0001ca10       ?validate@?$string_output_adapter@D@__crt_stdio_output@@QEBA_NXZ 000000014001da10 f i libucrtd:output.obj
 0001:0001cad0       ?validate@?$string_output_adapter@_W@__crt_stdio_output@@QEBA_NXZ 000000014001dad0 f i libucrtd:output.obj
 0001:0001cb90       ?validate_and_update_state_at_end_of_format_string@?$format_validation_base@DV?$string_output_adapter@D@__crt_stdio_output@@@__crt_stdio_output@@IEBA_NXZ 000000014001db90 f i libucrtd:output.obj
 0001:0001cc50       ?validate_and_update_state_at_end_of_format_string@?$format_validation_base@_WV?$string_output_adapter@_W@__crt_stdio_output@@@__crt_stdio_output@@IEBA_NXZ 000000014001dc50 f i libucrtd:output.obj
 0001:0001cd10       ?wide_null_string@?$output_processor@DV?$string_output_adapter@D@__crt_stdio_output@@V?$format_validation_base@DV?$string_output_adapter@D@__crt_stdio_output@@@2@@__crt_stdio_output@@CAPEA_WXZ 000000014001dd10 f i libucrtd:output.obj
 0001:0001cd10       ?wide_null_string@?$output_processor@_WV?$string_output_adapter@_W@__crt_stdio_output@@V?$standard_base@_WV?$string_output_adapter@_W@__crt_stdio_output@@@2@@__crt_stdio_output@@CAPEA_WXZ 000000014001dd10 f i libucrtd:output.obj
 0001:0001cd10       ?wide_null_string@?$output_processor@_WV?$stream_output_adapter@_W@__crt_stdio_output@@V?$standard_base@_WV?$stream_output_adapter@_W@__crt_stdio_output@@@2@@__crt_stdio_output@@CAPEA_WXZ 000000014001dd10 f i libucrtd:output.obj
 0001:0001cd10       ?wide_null_string@?$output_processor@_WV?$string_output_adapter@_W@__crt_stdio_output@@V?$format_validation_base@_WV?$string_output_adapter@_W@__crt_stdio_output@@@2@@__crt_stdio_output@@CAPEA_WXZ 000000014001dd10 f i libucrtd:output.obj
 0001:0001cd20       ?write_character@?$output_adapter_common@_WV?$stream_output_adapter@_W@__crt_stdio_output@@@__crt_stdio_output@@QEBAX_WQEAH@Z 000000014001dd20 f i libucrtd:output.obj
 0001:0001cd70       ?write_character@?$string_output_adapter@D@__crt_stdio_output@@QEBA_NDQEAH@Z 000000014001dd70 f i libucrtd:output.obj
 0001:0001ce30       ?write_character@?$string_output_adapter@_W@__crt_stdio_output@@QEBA_N_WQEAH@Z 000000014001de30 f i libucrtd:output.obj
 0001:0001cef0       ?write_character_without_count_update@?$stream_output_adapter@_W@__crt_stdio_output@@QEBA_N_W@Z 000000014001def0 f i libucrtd:output.obj
 0001:0001cf80       ?write_stored_string_tchar@?$output_processor@DV?$string_output_adapter@D@__crt_stdio_output@@V?$format_validation_base@DV?$string_output_adapter@D@__crt_stdio_output@@@2@@__crt_stdio_output@@AEAA_ND@Z 000000014001df80 f i libucrtd:output.obj
 0001:0001d140       ?write_stored_string_tchar@?$output_processor@_WV?$stream_output_adapter@_W@__crt_stdio_output@@V?$standard_base@_WV?$stream_output_adapter@_W@__crt_stdio_output@@@2@@__crt_stdio_output@@AEAA_N_W@Z 000000014001e140 f i libucrtd:output.obj
 0001:0001d290       ?write_stored_string_tchar@?$output_processor@_WV?$string_output_adapter@_W@__crt_stdio_output@@V?$format_validation_base@_WV?$string_output_adapter@_W@__crt_stdio_output@@@2@@__crt_stdio_output@@AEAA_N_W@Z 000000014001e290 f i libucrtd:output.obj
 0001:0001d290       ?write_stored_string_tchar@?$output_processor@_WV?$string_output_adapter@_W@__crt_stdio_output@@V?$standard_base@_WV?$string_output_adapter@_W@__crt_stdio_output@@@2@@__crt_stdio_output@@AEAA_N_W@Z 000000014001e290 f i libucrtd:output.obj
 0001:0001d3e0       ?write_string@?$stream_output_adapter@_W@__crt_stdio_output@@QEBAXQEB_WHQEAHAEAV__crt_deferred_errno_cache@@@Z 000000014001e3e0 f i libucrtd:output.obj
 0001:0001d460       ?write_string@?$string_output_adapter@D@__crt_stdio_output@@QEBAXQEBDHQEAHAEAV__crt_deferred_errno_cache@@@Z 000000014001e460 f i libucrtd:output.obj
 0001:0001d5d0       ?write_string@?$string_output_adapter@_W@__crt_stdio_output@@QEBAXQEB_WHQEAHAEAV__crt_deferred_errno_cache@@@Z 000000014001e5d0 f i libucrtd:output.obj
 0001:0001d740       ?write_string_impl@?$output_adapter_common@_WV?$stream_output_adapter@_W@__crt_stdio_output@@@__crt_stdio_output@@IEBAXQEB_WHQEAHAEAV__crt_deferred_errno_cache@@@Z 000000014001e740 f i libucrtd:output.obj
 0001:0001d820       __acrt_isleadbyte_l_noupdate 000000014001e820 f i libucrtd:output.obj
 0001:0001d850       __acrt_locale_get_ctype_array_value 000000014001e850 f i libucrtd:output.obj
 0001:0001d890       __stdio_common_vfwprintf   000000014001e890 f   libucrtd:output.obj
 0001:0001d8d0       __stdio_common_vsnprintf_s 000000014001e8d0 f   libucrtd:output.obj
 0001:0001d930       __stdio_common_vsnwprintf_s 000000014001e930 f   libucrtd:output.obj
 0001:0001d990       __stdio_common_vsprintf_s  000000014001e990 f   libucrtd:output.obj
 0001:0001d9e0       __stdio_common_vswprintf   000000014001e9e0 f   libucrtd:output.obj
 0001:0001da30       _ctype_fast_check_internal 000000014001ea30 f i libucrtd:output.obj
 0001:0001da60       _isdigit_fast_internal     000000014001ea60 f i libucrtd:output.obj
 0001:0001da90       _tolower_fast_internal     000000014001ea90 f i libucrtd:output.obj
 0001:0001e8a0       _CrtDbgReport              000000014001f8a0 f   libucrtd:dbgrpt.obj
 0001:0001e920       _CrtDbgReportW             000000014001f920 f   libucrtd:dbgrpt.obj
 0001:0001e9a0       __acrt_MessageWindowA      000000014001f9a0 f   libucrtd:dbgrpt.obj
 0001:0001e9f0       __acrt_MessageWindowW      000000014001f9f0 f   libucrtd:dbgrpt.obj
 0001:0001ea40       _snwprintf_s               000000014001fa40 f i libucrtd:dbgrpt.obj
 0001:0001eab0       _vsnwprintf_s_l            000000014001fab0 f i libucrtd:dbgrpt.obj
 0001:0001eb30       ??$is_overflow_condition@K@__crt_strtox@@YA_NIK@Z 000000014001fb30 f i libucrtd:atox.obj
 0001:0001eba0       ??$parse_integer@KV?$c_string_character_source@D@__crt_strtox@@@__crt_strtox@@YAKQEAU__crt_locale_pointers@@V?$c_string_character_source@D@0@H_N@Z 000000014001fba0 f i libucrtd:atox.obj
 0001:0001f030       ??$parse_integer@KV?$c_string_character_source@_W@__crt_strtox@@@__crt_strtox@@YAKQEAU__crt_locale_pointers@@V?$c_string_character_source@_W@0@H_N@Z 0000000140020030 f i libucrtd:atox.obj
 0001:0001f4e0       ??0?$c_string_character_source@D@__crt_strtox@@QEAA@QEBDQEAPEBD@Z 00000001400204e0 f i libucrtd:atox.obj
 0001:0001f4e0       ??0?$c_string_character_source@_W@__crt_strtox@@QEAA@QEB_WQEAPEB_W@Z 00000001400204e0 f i libucrtd:atox.obj
 0001:0001f530       ??1?$c_string_character_source@_W@__crt_strtox@@QEAA@XZ 0000000140020530 f i libucrtd:atox.obj
 0001:0001f530       ??1?$c_string_character_source@D@__crt_strtox@@QEAA@XZ 0000000140020530 f i libucrtd:atox.obj
 0001:0001f560       ?get@?$c_string_character_source@D@__crt_strtox@@QEAADXZ 0000000140020560 f i libucrtd:atox.obj
 0001:0001f5a0       ?get@?$c_string_character_source@_W@__crt_strtox@@QEAA_WXZ 00000001400205a0 f i libucrtd:atox.obj
 0001:0001f5e0       ?is_space@__crt_strtox@@YA_NDQEAU__crt_locale_pointers@@@Z 00000001400205e0 f i libucrtd:atox.obj
 0001:0001f630       ?is_space@__crt_strtox@@YA_N_WPEAU__crt_locale_pointers@@@Z 0000000140020630 f i libucrtd:atox.obj
 0001:0001f670       ?maximum_signed_value@__crt_strtox@@YAJK@Z 0000000140020670 f i libucrtd:atox.obj
 0001:0001f680       ?minimum_signed_value@__crt_strtox@@YAJK@Z 0000000140020680 f i libucrtd:atox.obj
 0001:0001f690       ?parse_digit@__crt_strtox@@YAID@Z 0000000140020690 f i libucrtd:atox.obj
 0001:0001f700       ?parse_digit@__crt_strtox@@YAI_W@Z 0000000140020700 f i libucrtd:atox.obj
 0001:0001f750       ?restore_state@?$c_string_character_source@D@__crt_strtox@@QEAA_NQEBD@Z 0000000140020750 f i libucrtd:atox.obj
 0001:0001f750       ?restore_state@?$c_string_character_source@_W@__crt_strtox@@QEAA_NQEB_W@Z 0000000140020750 f i libucrtd:atox.obj
 0001:0001f770       ?unget@?$c_string_character_source@D@__crt_strtox@@QEAAXD@Z 0000000140020770 f i libucrtd:atox.obj
 0001:0001f850       ?unget@?$c_string_character_source@_W@__crt_strtox@@QEAAX_W@Z 0000000140020850 f i libucrtd:atox.obj
 0001:0001f930       ?validate@?$c_string_character_source@D@__crt_strtox@@QEBA_NXZ 0000000140020930 f i libucrtd:atox.obj
 0001:0001f9f0       ?validate@?$c_string_character_source@_W@__crt_strtox@@QEBA_NXZ 00000001400209f0 f i libucrtd:atox.obj
 0001:0001fab0       ?wide_character_to_digit@__crt_strtox@@YAH_W@Z 0000000140020ab0 f i libucrtd:atox.obj
 0001:0001fe20       __ascii_iswalpha           0000000140020e20 f i libucrtd:atox.obj
 0001:0001fe60       __ascii_toupper            0000000140020e60 f i libucrtd:atox.obj
 0001:0001fe80       __ascii_towupper           0000000140020e80 f i libucrtd:atox.obj
 0001:0001feb0       strncmp                    0000000140020eb0 f   libucrtd:strncmp.obj
 0001:0001ff30       wcsncmp                    0000000140020f30 f   libucrtd:wcsncmp.obj
 0001:0001ffc0       free                       0000000140020fc0 f   libucrtd:free.obj
 0001:0001fff0       malloc                     0000000140020ff0 f   libucrtd:malloc.obj
 0001:00020020       __acrt_errno_from_os_error 0000000140021020 f   libucrtd:errno.obj
 0001:000200b0       __acrt_errno_map_os_error  00000001400210b0 f   libucrtd:errno.obj
 0001:000200e0       __doserrno                 00000001400210e0 f   libucrtd:errno.obj
 0001:00020110       _errno                     0000000140021110 f   libucrtd:errno.obj
 0001:00020d30       _itoa_s                    0000000140021d30 f   libucrtd:xtoa.obj
 0001:00020d90       _itow_s                    0000000140021d90 f   libucrtd:xtoa.obj
 0001:00020df0       _set_error_mode            0000000140021df0 f   libucrtd:set_error_mode.obj
 0001:00021570       wcscat_s                   0000000140022570 f   libucrtd:wcscat_s.obj
 0001:00021a80       wcscpy_s                   0000000140022a80 f   libucrtd:wcscpy_s.obj
 0001:00022240       wcsncat_s                  0000000140023240 f   libucrtd:wcsncat_s.obj
 0001:000235e0       ??1?$__crt_simd_cleanup_guard@$00@@QEAA@XZ 00000001400245e0 f i libucrtd:strnlen.obj
 0001:000235f0       ?compare_equals@?$__crt_simd_traits@$00E@@SA?AT__m256i@@T2@0@Z 00000001400245f0 f i libucrtd:strnlen.obj
 0001:00023630       ?compare_equals@?$__crt_simd_traits@$00G@@SA?AT__m256i@@T2@0@Z 0000000140024630 f i libucrtd:strnlen.obj
 0001:00023670       ?compare_equals@?$__crt_simd_traits@$0A@E@@SA?AT__m128i@@T2@0@Z 0000000140024670 f i libucrtd:strnlen.obj
 0001:000236a0       ?compare_equals@?$__crt_simd_traits@$0A@G@@SA?AT__m128i@@T2@0@Z 00000001400246a0 f i libucrtd:strnlen.obj
 0001:000236d0       ?compute_byte_mask@?$__crt_simd_pack_traits@$00@@SAHT__m256i@@@Z 00000001400246d0 f i libucrtd:strnlen.obj
 0001:000236f0       ?compute_byte_mask@?$__crt_simd_pack_traits@$0A@@@SAHT__m128i@@@Z 00000001400246f0 f i libucrtd:strnlen.obj
 0001:00023710       ?get_zero_pack@?$__crt_simd_pack_traits@$00@@SA?AT__m256i@@XZ 0000000140024710 f i libucrtd:strnlen.obj
 0001:00023740       ?get_zero_pack@?$__crt_simd_pack_traits@$0A@@@SA?AT__m128i@@XZ 0000000140024740 f i libucrtd:strnlen.obj
 0001:00023760       strnlen                    0000000140024760 f   libucrtd:strnlen.obj
 0001:00023790       wcslen                     0000000140024790 f   libucrtd:strnlen.obj
 0001:000237b0       wcsnlen                    00000001400247b0 f   libucrtd:strnlen.obj
 0001:00023e50       strcat_s                   0000000140024e50 f   libucrtd:strcat_s.obj
 0001:00024020       ??$__acrt_wcs_to_mbs_cp@U__crt_win32_buffer_no_resizing@@@@YAHQEB_WAEAV?$__crt_win32_buffer@DU__crt_win32_buffer_no_resizing@@@@I@Z 0000000140025020 f i libucrtd:getmodulefilenamea.obj
 0001:00024070       ??0?$__crt_win32_buffer@DU__crt_win32_buffer_no_resizing@@@@QEAA@QEAD_K@Z 0000000140025070 f i libucrtd:getmodulefilenamea.obj
 0001:000240e0       ??1?$__crt_win32_buffer@DU__crt_win32_buffer_no_resizing@@@@QEAA@XZ 00000001400250e0 f i libucrtd:getmodulefilenamea.obj
 0001:00024170       ?__acrt_get_utf8_acp_compatibility_codepage@@YAIXZ 0000000140025170 f i libucrtd:getmodulefilenamea.obj
 0001:00024210       ?_deallocate@?$__crt_win32_buffer@DU__crt_win32_buffer_no_resizing@@@@AEAAXXZ 0000000140025210 f i libucrtd:getmodulefilenamea.obj
 0001:00024250       ?allocate@?$__crt_win32_buffer@DU__crt_win32_buffer_no_resizing@@@@QEAAH_K@Z 0000000140025250 f i libucrtd:getmodulefilenamea.obj
 0001:000242d0       ?allocate@__crt_win32_buffer_no_resizing@@SAHQEAPEAX_KAEBV__crt_win32_buffer_empty_debug_info@@@Z 00000001400252d0 f i libucrtd:getmodulefilenamea.obj
 0001:00024300       ?capacity@?$__crt_win32_buffer@DU__crt_win32_buffer_internal_dynamic_resizing@@@@QEBA_KXZ 0000000140025300 f i libucrtd:argv_wildcards.obj
 0001:00024300       ?capacity@?$__crt_win32_buffer@DU__crt_win32_buffer_no_resizing@@@@QEBA_KXZ 0000000140025300 f i libucrtd:getmodulefilenamea.obj
 0001:00024300       ?capacity@?$__crt_win32_buffer@_WU__crt_win32_buffer_internal_dynamic_resizing@@@@QEBA_KXZ 0000000140025300 f i libucrtd:argv_wildcards.obj
 0001:00024310       ?data@?$__crt_win32_buffer@DU__crt_win32_buffer_no_resizing@@@@QEAAPEADXZ 0000000140025310 f i libucrtd:getmodulefilenamea.obj
 0001:00024310       ?data@?$__crt_win32_buffer@DU__crt_win32_buffer_internal_dynamic_resizing@@@@QEAAPEADXZ 0000000140025310 f i libucrtd:argv_wildcards.obj
 0001:00024310       ?data@?$__crt_win32_buffer@_WU__crt_win32_buffer_internal_dynamic_resizing@@@@QEAAPEA_WXZ 0000000140025310 f i libucrtd:argv_wildcards.obj
 0001:00024320       ?deallocate@__crt_win32_buffer_no_resizing@@SAXQEAXAEBV__crt_win32_buffer_empty_debug_info@@@Z 0000000140025320 f i libucrtd:getmodulefilenamea.obj
 0001:00024330       ?set_to_nullptr@?$__crt_win32_buffer@DU__crt_win32_buffer_no_resizing@@@@QEAAXXZ 0000000140025330 f i libucrtd:getmodulefilenamea.obj
 0001:00024370       ?size@?$__crt_win32_buffer@DU__crt_win32_buffer_internal_dynamic_resizing@@@@QEAAX_K@Z 0000000140025370 f i libucrtd:argv_wildcards.obj
 0001:00024370       ?size@?$__crt_win32_buffer@DU__crt_win32_buffer_no_resizing@@@@QEAAX_K@Z 0000000140025370 f i libucrtd:getmodulefilenamea.obj
 0001:00024370       ?size@?$__crt_win32_buffer@_WU__crt_win32_buffer_internal_dynamic_resizing@@@@QEAAX_K@Z 0000000140025370 f i libucrtd:argv_wildcards.obj
 0001:00024390       ?size@?$__crt_win32_buffer@DU__crt_win32_buffer_no_resizing@@@@QEBA_KXZ 0000000140025390 f i libucrtd:getmodulefilenamea.obj
 0001:000243a0       __acrt_GetModuleFileNameA  00000001400253a0 f   libucrtd:getmodulefilenamea.obj
 0001:000245c0       ??$message_box@PEAUHWND__@@AEBQEB_WAEBQEB_WAEBI@?$__crt_char_traits@_W@@SAH$$QEAPEAUHWND__@@AEBQEB_W1AEBI@Z 00000001400255c0 f i libucrtd:crtmbox.obj
 0001:000245c0       ??$message_box@$$TAEBQEB_WAEBQEB_WK@?$__crt_char_traits@_W@@SAH$$QEA$$TAEBQEB_W1$$QEAK@Z 00000001400255c0 f i libucrtd:crtmbox.obj
 0001:00024610       ??$output_debug_string@AEBQEB_W@?$__crt_char_traits@_W@@SAXAEBQEB_W@Z 0000000140025610 f i libucrtd:crtmbox.obj
 0001:00024630       __acrt_show_wide_message_box 0000000140025630 f   libucrtd:crtmbox.obj
 0001:00024660       __acrt_initialize_stdio    0000000140025660 f   libucrtd:_file.obj
 0001:00024850       __acrt_iob_func            0000000140025850 f   libucrtd:_file.obj
 0001:00024870       __acrt_uninitialize_stdio  0000000140025870 f   libucrtd:_file.obj
 0001:00024900       _lock_file                 0000000140025900 f   libucrtd:_file.obj
 0001:00024940       _unlock_file               0000000140025940 f   libucrtd:_file.obj
 0001:00024d60       ?__acrt_stdio_reset_buffer@@YAXV__crt_stdio_stream@@@Z 0000000140025d60 f i libucrtd:fflush.obj
 0001:00024e90       ?has_all_of@__crt_stdio_stream@@QEBA_NJ@Z 0000000140025e90 f i libucrtd:fflush.obj
 0001:00024f70       ?set_flags@__crt_stdio_stream@@QEBA_NJ@Z 0000000140025f70 f i libucrtd:fflush.obj
 0001:00024fe0       ?unset_flags@__crt_stdio_stream@@QEBA_NJ@Z 0000000140025fe0 f i libucrtd:fflush.obj
 0001:00025040       __acrt_stdio_flush_nolock  0000000140026040 f   libucrtd:fflush.obj
 0001:00025150       _fflush_nolock             0000000140026150 f   libucrtd:fflush.obj
 0001:000251e0       _flushall                  00000001400261e0 f   libucrtd:fflush.obj
 0001:000251f0       fflush                     00000001400261f0 f   libucrtd:fflush.obj
 0001:00025520       setvbuf                    0000000140026520 f   libucrtd:setvbuf.obj
 0001:000259a0       __acrt_get_sigabrt_handler 00000001400269a0 f   libucrtd:signal.obj
 0001:000259d0       __acrt_initialize_signal_handlers 00000001400269d0 f   libucrtd:signal.obj
 0001:00025a30       __fpecode                  0000000140026a30 f   libucrtd:signal.obj
 0001:00025a50       raise                      0000000140026a50 f   libucrtd:signal.obj
 0001:00025f10       __acrt_initialize_fma3     0000000140026f10 f   libucrtd:fma3_available.obj
 0001:00025fc0       __remainder_piby2d2f_forC  0000000140026fc0 f   libucrtd:remainder_piby2f_forc.obj
 0001:00026260       _sinf_special              0000000140027260 f   libucrtd:sincos_special.obj
 0001:000264d0       ??0__crt_scoped_get_last_error_reset@@QEAA@XZ 00000001400274d0 f i libucrtd:per_thread_data.obj
 0001:000264f0       ??1__crt_scoped_get_last_error_reset@@QEAA@XZ 00000001400274f0 f i libucrtd:per_thread_data.obj
 0001:00026b90       __acrt_getptd              0000000140027b90 f   libucrtd:per_thread_data.obj
 0001:00026bc0       __acrt_getptd_head         0000000140027bc0 f   libucrtd:per_thread_data.obj
 0001:00026bf0       __acrt_getptd_noexit       0000000140027bf0 f   libucrtd:per_thread_data.obj
 0001:00026c00       __acrt_initialize_ptd      0000000140027c00 f   libucrtd:per_thread_data.obj
 0001:00026c40       __acrt_uninitialize_ptd    0000000140027c40 f   libucrtd:per_thread_data.obj
 0001:00027310       wcsncpy_s                  0000000140028310 f   libucrtd:wcsncpy_s.obj
 0001:000276c0       ??$__acrt_mbs_to_wcs_cp@U__crt_win32_buffer_internal_dynamic_resizing@@@@YAHQEBDAEAV?$__crt_win32_buffer@_WU__crt_win32_buffer_internal_dynamic_resizing@@@@I@Z 00000001400286c0 f i libucrtd:argv_wildcards.obj
 0001:00027710       ??$__acrt_wcs_to_mbs_cp@U__crt_win32_buffer_internal_dynamic_resizing@@@@YAHQEB_WAEAV?$__crt_win32_buffer@DU__crt_win32_buffer_internal_dynamic_resizing@@@@I@Z 0000000140028710 f i libucrtd:argv_wildcards.obj
 0001:00028160       ??$tcsncpy_s@PEADAEB_KAEBQEBDAEB_K@?$__crt_char_traits@D@@SAH$$QEAPEADAEB_KAEBQEBD1@Z 0000000140029160 f i libucrtd:argv_wildcards.obj
 0001:00028160       ??$tcsncpy_s@PEAD_KAEBQEBDAEB_K@?$__crt_char_traits@D@@SAH$$QEAPEAD$$QEA_KAEBQEBDAEB_K@Z 0000000140029160 f i libucrtd:argv_wildcards.obj
 0001:00028160       ??$tcsncpy_s@AEAPEAD_KAEAPEADAEB_K@?$__crt_char_traits@D@@SAHAEAPEAD$$QEA_K0AEB_K@Z 0000000140029160 f i libucrtd:argv_wildcards.obj
 0001:000281b0       ??$tcspbrk@AEAPEADAEAY02$$CBD@?$__crt_char_traits@D@@SAPEADAEAPEADAEAY02$$CBD@Z 00000001400291b0 f i libucrtd:argv_wildcards.obj
 0001:000281e0       ??0?$__crt_win32_buffer@_WU__crt_win32_buffer_internal_dynamic_resizing@@@@QEAA@XZ 00000001400291e0 f i libucrtd:argv_wildcards.obj
 0001:000281e0       ??0?$__crt_win32_buffer@DU__crt_win32_buffer_internal_dynamic_resizing@@@@QEAA@XZ 00000001400291e0 f i libucrtd:argv_wildcards.obj
 0001:00028280       ??1?$__crt_unique_handle_t@U__crt_findfile_traits@@@@QEAA@XZ 0000000140029280 f i libucrtd:argv_wildcards.obj
 0001:000282a0       ??1?$__crt_win32_buffer@DU__crt_win32_buffer_internal_dynamic_resizing@@@@QEAA@XZ 00000001400292a0 f i libucrtd:argv_wildcards.obj
 0001:000282a0       ??1?$__crt_win32_buffer@_WU__crt_win32_buffer_internal_dynamic_resizing@@@@QEAA@XZ 00000001400292a0 f i libucrtd:argv_wildcards.obj
 0001:00028430       ?_deallocate@?$__crt_win32_buffer@DU__crt_win32_buffer_internal_dynamic_resizing@@@@AEAAXXZ 0000000140029430 f i libucrtd:argv_wildcards.obj
 0001:00028430       ?_deallocate@?$__crt_win32_buffer@_WU__crt_win32_buffer_internal_dynamic_resizing@@@@AEAAXXZ 0000000140029430 f i libucrtd:argv_wildcards.obj
 0001:00028470       ?allocate@?$__crt_win32_buffer@DU__crt_win32_buffer_internal_dynamic_resizing@@@@QEAAH_K@Z 0000000140029470 f i libucrtd:argv_wildcards.obj
 0001:000284f0       ?allocate@?$__crt_win32_buffer@_WU__crt_win32_buffer_internal_dynamic_resizing@@@@QEAAH_K@Z 00000001400294f0 f i libucrtd:argv_wildcards.obj
 0001:00028580       ?allocate@__crt_win32_buffer_internal_dynamic_resizing@@SAHQEAPEAX_KAEBV__crt_win32_buffer_empty_debug_info@@@Z 0000000140029580 f i libucrtd:argv_wildcards.obj
 0001:00028650       ?close@?$__crt_unique_handle_t@U__crt_findfile_traits@@@@QEAAXXZ 0000000140029650 f i libucrtd:argv_wildcards.obj
 0001:00028690       ?close@__crt_findfile_traits@@SA_NPEAX@Z 0000000140029690 f i libucrtd:argv_wildcards.obj
 0001:000286d0       ?deallocate@__crt_win32_buffer_internal_dynamic_resizing@@SAXQEAXAEBV__crt_win32_buffer_empty_debug_info@@@Z 00000001400296d0 f i libucrtd:argv_wildcards.obj
 0001:000289c0       ?set_to_nullptr@?$__crt_win32_buffer@DU__crt_win32_buffer_internal_dynamic_resizing@@@@QEAAXXZ 00000001400299c0 f i libucrtd:argv_wildcards.obj
 0001:000289c0       ?set_to_nullptr@?$__crt_win32_buffer@_WU__crt_win32_buffer_internal_dynamic_resizing@@@@QEAAXXZ 00000001400299c0 f i libucrtd:argv_wildcards.obj
 0001:00028a20       ?strpbrk@@YAPEADQEADQEBD@Z 0000000140029a20 f i libucrtd:argv_wildcards.obj
 0001:00028a50       __acrt_expand_narrow_argv_wildcards 0000000140029a50 f   libucrtd:argv_wildcards.obj
 0001:00028b10       ??$initialize_from_array@$$BY10BAA@E@?$dual_state_global@PEAE@__crt_state_management@@QEAAXAEAY10BAA@E@Z 0000000140029b10 f i libucrtd:mbctype.obj
 0001:00028b80       ??$initialize_from_array@$$BY10BAB@E@?$dual_state_global@PEAE@__crt_state_management@@QEAAXAEAY10BAB@E@Z 0000000140029b80 f i libucrtd:mbctype.obj
 0001:000296f0       __acrt_initialize_multibyte 000000014002a6f0 f   libucrtd:mbctype.obj
 0001:000297c0       __acrt_should_sync_with_global_locale 000000014002a7c0 f i libucrtd:mbctype.obj
 0001:00029800       __acrt_update_thread_multibyte_data 000000014002a800 f   libucrtd:mbctype.obj
 0001:00029830       _setmbcp_nolock            000000014002a830 f   libucrtd:mbctype.obj
 0001:00029d90       _ismbblead                 000000014002ad90 f   libucrtd:ismbbyte.obj
 0001:00029db0       __acrt_initialize_command_line 000000014002adb0 f   libucrtd:argv_data.obj
 0001:00029e80       __acrt_MultiByteToWideChar 000000014002ae80 f   libucrtd:multibytetowidechar.obj
 0001:00029f80       __acrt_WideCharToMultiByte 000000014002af80 f   libucrtd:widechartomultibyte.obj
 0001:0002a0b0       __dcrt_get_narrow_environment_from_os 000000014002b0b0 f   libucrtd:get_environment_from_os.obj
 0001:0002a1d0       __acrt_initialize_locks    000000014002b1d0 f   libucrtd:locks.obj
 0001:0002a240       __acrt_lock                000000014002b240 f   libucrtd:locks.obj
 0001:0002a270       __acrt_uninitialize_locks  000000014002b270 f   libucrtd:locks.obj
 0001:0002a2d0       __acrt_unlock              000000014002b2d0 f   libucrtd:locks.obj
 0001:0002a5e0       __acrt_get_developer_information_policy 000000014002b5e0 f   libucrtd:win_policies.obj
 0001:0002a600       __acrt_get_process_end_policy 000000014002b600 f   libucrtd:win_policies.obj
 0001:0002a610       __acrt_get_windowing_model_policy 000000014002b610 f   libucrtd:win_policies.obj
 0001:0002a630       __acrt_lowio_create_handle_array 000000014002b630 f   libucrtd:osfinfo.obj
 0001:0002a7f0       __acrt_lowio_destroy_handle_array 000000014002b7f0 f   libucrtd:osfinfo.obj
 0001:0002a870       __acrt_lowio_ensure_fh_exists 000000014002b870 f   libucrtd:osfinfo.obj
 0001:0002a9d0       __acrt_lowio_lock_fh       000000014002b9d0 f   libucrtd:osfinfo.obj
 0001:0002aa10       __acrt_lowio_unlock_fh     000000014002ba10 f   libucrtd:osfinfo.obj
 0001:0002aa50       _free_osfhnd               000000014002ba50 f   libucrtd:osfinfo.obj
 0001:0002ab80       _get_osfhandle             000000014002bb80 f   libucrtd:osfinfo.obj
 0001:0002ad80       __acrt_initialize_fmode    000000014002bd80 f   libucrtd:txtmode.obj
 0001:0002b180       __acrt_initialize_lowio    000000014002c180 f   libucrtd:ioinit.obj
 0001:0002b1d0       __acrt_uninitialize_lowio  000000014002c1d0 f   libucrtd:ioinit.obj
 0001:0002b250       __acrt_locale_free_monetary 000000014002c250 f   libucrtd:initmon.obj
 0001:0002b460       __acrt_locale_free_numeric 000000014002c460 f   libucrtd:initnum.obj
 0001:0002b600       __acrt_locale_free_time    000000014002c600 f   libucrtd:inittime.obj
 0001:0002b770       __pctype_func              000000014002c770 f   libucrtd:ctype.obj
 0001:0002b7b0       _chvalidator_l             000000014002c7b0 f   libucrtd:isctype.obj
 0001:0002b860       _isctype_l                 000000014002c860 f   libucrtd:isctype.obj
 0001:0002ba90       _isleadbyte_fast_internal  000000014002ca90 f i libucrtd:isctype.obj
 0001:0002bac0       ??1?$__crt_scoped_stack_ptr@_W@@QEAA@XZ 000000014002cac0 f i libucrtd:getstringtypea.obj
 0001:0002bae0       _MallocaComputeSize        000000014002cae0 f i libucrtd:getstringtypea.obj
 0001:0002bb20       _MarkAllocaS               000000014002cb20 f i libucrtd:getstringtypea.obj
 0001:0002bb50       __acrt_GetStringTypeA      000000014002cb50 f   libucrtd:getstringtypea.obj
 0001:0002bdb0       _freea_crt                 000000014002cdb0 f i libucrtd:getstringtypea.obj
 0001:0002be50       __acrt_add_locale_ref      000000014002ce50 f   libucrtd:locale_refcounting.obj
 0001:0002bfb0       __acrt_free_locale         000000014002cfb0 f   libucrtd:locale_refcounting.obj
 0001:0002c330       __acrt_locale_add_lc_time_reference 000000014002d330 f   libucrtd:locale_refcounting.obj
 0001:0002c370       __acrt_locale_free_lc_time_if_unreferenced 000000014002d370 f   libucrtd:locale_refcounting.obj
 0001:0002c3d0       __acrt_locale_release_lc_time_reference 000000014002d3d0 f   libucrtd:locale_refcounting.obj
 0001:0002c410       __acrt_release_locale_ref  000000014002d410 f   libucrtd:locale_refcounting.obj
 0001:0002c580       __acrt_update_thread_locale_data 000000014002d580 f   libucrtd:locale_refcounting.obj
 0001:0002c620       _updatetlocinfoEx_nolock   000000014002d620 f   libucrtd:locale_refcounting.obj
 0001:0002ce30       GetCurrentThreadEffectiveToken 000000014002de30 f i libucrtd:winapi_thunks.obj
 0001:0002ce40       __acrt_AppPolicyGetProcessTerminationMethodInternal 000000014002de40 f   libucrtd:winapi_thunks.obj
 0001:0002ce90       __acrt_AppPolicyGetShowDeveloperDiagnosticInternal 000000014002de90 f   libucrtd:winapi_thunks.obj
 0001:0002cee0       __acrt_AppPolicyGetWindowingModelInternal 000000014002dee0 f   libucrtd:winapi_thunks.obj
 0001:0002cf30       __acrt_AreFileApisANSI     000000014002df30 f   libucrtd:winapi_thunks.obj
 0001:0002cf70       __acrt_FlsAlloc            000000014002df70 f   libucrtd:winapi_thunks.obj
 0001:0002cfc0       __acrt_FlsFree             000000014002dfc0 f   libucrtd:winapi_thunks.obj
 0001:0002d010       __acrt_FlsGetValue         000000014002e010 f   libucrtd:winapi_thunks.obj
 0001:0002d060       __acrt_FlsSetValue         000000014002e060 f   libucrtd:winapi_thunks.obj
 0001:0002d0c0       __acrt_InitializeCriticalSectionEx 000000014002e0c0 f   libucrtd:winapi_thunks.obj
 0001:0002d120       __acrt_LCMapStringEx       000000014002e120 f   libucrtd:winapi_thunks.obj
 0001:0002d200       __acrt_LocaleNameToLCID    000000014002e200 f   libucrtd:winapi_thunks.obj
 0001:0002d250       __acrt_MessageBoxW         000000014002e250 f   libucrtd:winapi_thunks.obj
 0001:0002d2b0       __acrt_can_show_message_box 000000014002e2b0 f   libucrtd:winapi_thunks.obj
 0001:0002d2f0       __acrt_get_parent_window   000000014002e2f0 f   libucrtd:winapi_thunks.obj
 0001:0002d370       __acrt_initialize_winapi_thunks 000000014002e370 f   libucrtd:winapi_thunks.obj
 0001:0002d3f0       __acrt_is_interactive      000000014002e3f0 f   libucrtd:winapi_thunks.obj
 0001:0002d4d0       __acrt_uninitialize_winapi_thunks 000000014002e4d0 f   libucrtd:winapi_thunks.obj
 0001:0002d570       __acrt_initialize_heap     000000014002e570 f   libucrtd:heap_handle.obj
 0001:0002d5a0       __acrt_uninitialize_heap   000000014002e5a0 f   libucrtd:heap_handle.obj
 0001:0002d5c0       __acrt_execute_initializers 000000014002e5c0 f   libucrtd:shared_initialization.obj
 0001:0002d6b0       __acrt_execute_uninitializers 000000014002e6b0 f   libucrtd:shared_initialization.obj
 0001:0002d730       __acrt_initialize_new_handler 000000014002e730 f   libucrtd:new_handler.obj
 0001:0002d750       _callnewh                  000000014002e750 f   libucrtd:new_handler.obj
 0001:0002d7a0       _query_new_handler         000000014002e7a0 f   libucrtd:new_handler.obj
 0001:0002d7e0       ?has_temporary_buffer@__crt_stdio_stream@@QEBA_NXZ 000000014002e7e0 f i libucrtd:_sftbuf.obj
 0001:0002d800       __acrt_should_use_temporary_buffer 000000014002e800 f   libucrtd:_sftbuf.obj
 0001:0002d850       __acrt_stdio_begin_temporary_buffering_nolock 000000014002e850 f   libucrtd:_sftbuf.obj
 0001:0002da90       __acrt_stdio_end_temporary_buffering_nolock 000000014002ea90 f   libucrtd:_sftbuf.obj
 0001:0002db40       _free_base                 000000014002eb40 f   libucrtd:free_base.obj
 0001:0002dba0       _realloc_base              000000014002eba0 f   libucrtd:realloc_base.obj
 0001:0002dcc0       _expand_base               000000014002ecc0 f   libucrtd:expand.obj
 0001:0002de50       __acrt_update_locale_info  000000014002ee50 f   libucrtd:locale_update.obj
 0001:0002dea0       __acrt_update_multibyte_info 000000014002eea0 f   libucrtd:locale_update.obj
 0001:0002def0       _CrtDefaultAllocHook       000000014002eef0 f   libucrtd:debug_heap_hook.obj
 0001:0002df10       _CrtGetDebugFillThreshold  000000014002ef10 f   libucrtd:debug_fill_threshold.obj
 0001:0002df20       ??$make_c_string_character_source@_WPEAPEA_W@__crt_strtox@@YA?AV?$c_string_character_source@_W@0@QEB_WQEAPEA_W@Z 000000014002ef20 f i libucrtd:strtox.obj
 0001:0002df20       ??$make_c_string_character_source@DPEAPEAD@__crt_strtox@@YA?AV?$c_string_character_source@D@0@QEBDQEAPEAD@Z 000000014002ef20 f i libucrtd:strtox.obj
 0001:0002df60       ??$parse_integer_from_string@JDPEAPEAD@__crt_strtox@@YAJQEBDQEAPEADHQEAU__crt_locale_pointers@@@Z 000000014002ef60 f i libucrtd:strtox.obj
 0001:0002dfb0       ??$parse_integer_from_string@J_WPEAPEA_W@__crt_strtox@@YAJQEB_WQEAPEA_WHQEAU__crt_locale_pointers@@@Z 000000014002efb0 f i libucrtd:strtox.obj
 0001:0002e000       strtol                     000000014002f000 f   libucrtd:strtox.obj
 0001:0002e030       wcstol                     000000014002f030 f   libucrtd:strtox.obj
 0001:0002e060       _mbtowc_l                  000000014002f060 f   libucrtd:mbtowc.obj
 0001:0002e4c0       mbtowc                     000000014002f4c0 f   libucrtd:mbtowc.obj
 0001:0002e4f0       _wctomb_s_l                000000014002f4f0 f   libucrtd:wctomb.obj
 0001:0002ea70       wctomb_s                   000000014002fa70 f   libucrtd:wctomb.obj
 0001:0002eac0       ?__acrt_fp_classify@@YA?AW4__acrt_fp_class@@AEBN@Z 000000014002fac0 f i libucrtd:cvt.obj
 0001:0002ebc0       ?__acrt_fp_is_negative@@YA_NAEBN@Z 000000014002fbc0 f i libucrtd:cvt.obj
 0001:00030590       ?strrchr@@YAPEADQEADH@Z    0000000140031590 f i libucrtd:cvt.obj
 0001:000305b0       __acrt_fp_format           00000001400315b0 f   libucrtd:cvt.obj
 0001:00030c60       _fputwc_nolock             0000000140031c60 f   libucrtd:fputwc.obj
 0001:00030ed0       ?lowio_handle@__crt_stdio_stream@@QEBAHXZ 0000000140031ed0 f i libucrtd:fileno.obj
 0001:00030f00       _fileno                    0000000140031f00 f   libucrtd:fileno.obj
 0001:00030fe0       _fputc_nolock              0000000140031fe0 f   libucrtd:fputc.obj
 0001:00031090       _get_printf_count_output   0000000140032090 f   libucrtd:printf_count_output.obj
 0001:000310c0       _VCrtDbgReportA            00000001400320c0 f   libucrtd:dbgrptt.obj
 0001:00031aa0       _VCrtDbgReportW            0000000140032aa0 f   libucrtd:dbgrptt.obj
 0001:00032620       _snprintf_s                0000000140033620 f i libucrtd:dbgrptt.obj
 0001:00032690       _vsnprintf_s               0000000140033690 f i libucrtd:dbgrptt.obj
 0001:000326e0       _vsnprintf_s_l             00000001400336e0 f i libucrtd:dbgrptt.obj
 0001:00032760       iswctype                   0000000140033760 f   libucrtd:iswctype.obj
 0001:000327f0       __acrt_OutputDebugStringA  00000001400337f0 f   libucrtd:outputdebugstringa.obj
 0001:000328b0       ?is_in_use@__crt_stdio_stream@@QEBA_NXZ 00000001400338b0 f i libucrtd:closeall.obj
 0001:000328f0       _fcloseall                 00000001400338f0 f   libucrtd:closeall.obj
 0001:00032a00       ?has_crt_buffer@__crt_stdio_stream@@QEBA_NXZ 0000000140033a00 f i libucrtd:_freebuf.obj
 0001:00032a20       __acrt_stdio_free_buffer_nolock 0000000140033a20 f   libucrtd:_freebuf.obj
 0001:00032cb0       _commit                    0000000140033cb0 f   libucrtd:commit.obj
 0001:00034890       _utf8_no_of_trailbytes     0000000140035890 f i libucrtd:write.obj
 0001:000348b0       _write                     00000001400358b0 f   libucrtd:write.obj
 0001:00034b50       _write_nolock              0000000140035b50 f   libucrtd:write.obj
 0001:000352f0       _handle_error              00000001400362f0 f   libucrtd:libm_error.obj
 0001:00035480       _handle_errorf             0000000140036480 f   libucrtd:libm_error.obj
 0001:00035610       _handle_nan                0000000140036610 f   libucrtd:libm_error.obj
 0001:000357d0       qsort                      00000001400367d0 f   libucrtd:qsort.obj
 0001:00036560       strncpy_s                  0000000140037560 f   libucrtd:strncpy_s.obj
 0001:000366d0       strpbrk                    00000001400376d0 f   libucrtd:strpbrk.obj
 0001:00036fc0       _mbsdec                    0000000140037fc0 f   libucrtd:mbsdec.obj
 0001:00036fc8       _mbsdec_l                  0000000140037fc8 f   libucrtd:mbsdec.obj
 0001:000376b0       __acrt_LCMapStringA        00000001400386b0 f   libucrtd:lcmapstringa.obj
 0001:00037790       __ascii_wcsnicmp           0000000140038790 f   libucrtd:wcsnicmp.obj
 0001:00037910       __acrt_DownlevelLocaleNameToLCID 0000000140038910 f   libucrtd:lcidtoname_downlevel.obj
 0001:00037970       _isatty                    0000000140038970 f   libucrtd:isatty.obj
 0001:00037a80       _malloc_base               0000000140038a80 f   libucrtd:malloc_base.obj
 0001:00037b20       _isleadbyte_l              0000000140038b20 f i libucrtd:_wctype.obj
 0001:00037bf0       ?__mbrtowc_utf8@__crt_mbstring@@YA_KPEA_WPEBD_KPEAU_Mbstatet@@@Z 0000000140038bf0 f   libucrtd:mbrtowc.obj
 0001:00037c60       ?__mbsrtowcs_utf8@__crt_mbstring@@YA_KPEA_WPEAPEBD_KPEAU_Mbstatet@@@Z 0000000140038c60 f   libucrtd:mbrtowc.obj
 0001:00037f60       ?__c32rtomb_utf8@__crt_mbstring@@YA_KPEAD_UPEAU_Mbstatet@@@Z 0000000140038f60 f   libucrtd:c32rtomb.obj
 0001:000381e0       ?reset_and_return@__crt_mbstring@@YA_K_KPEAU_Mbstatet@@@Z 00000001400391e0 f i libucrtd:c32rtomb.obj
 0001:00038220       ?return_illegal_sequence@__crt_mbstring@@YA_KPEAU_Mbstatet@@@Z 0000000140039220 f i libucrtd:c32rtomb.obj
 0001:00038260       c32rtomb                   0000000140039260 f   libucrtd:c32rtomb.obj
 0001:00038420       __acrt_fp_strflt_to_string 0000000140039420 f   libucrtd:_fptostr.obj
 0001:00038f20       ??0big_integer@__crt_strtox@@QEAA@AEBU01@@Z 0000000140039f20 f i libucrtd:cfout.obj
 0001:00038f20       ??4big_integer@__crt_strtox@@QEAAAEAU01@AEBU01@@Z 0000000140039f20 f i libucrtd:cfout.obj
 0001:00038f80       ??0big_integer@__crt_strtox@@QEAA@XZ 0000000140039f80 f i libucrtd:cfout.obj
 0001:00039040       ??8__crt_strtox@@YA_NAEBUbig_integer@0@0@Z 000000014003a040 f i libucrtd:cfout.obj
 0001:000390b0       ??9__crt_strtox@@YA_NAEBUbig_integer@0@0@Z 000000014003a0b0 f i libucrtd:cfout.obj
 0001:000390f0       ?add_carry@__crt_strtox@@YAIAEAIII@Z 000000014003a0f0 f i libucrtd:cfout.obj
 0001:00039140       ?add_multiply_carry@__crt_strtox@@YAIAEAIIII@Z 000000014003a140 f i libucrtd:cfout.obj
 0001:000391a0       ?bit_scan_reverse@__crt_strtox@@YAII@Z 000000014003a1a0 f i libucrtd:cfout.obj
 0001:000391e0       ?count_sequential_high_zeroes@__crt_strtox@@YAII@Z 000000014003a1e0 f i libucrtd:cfout.obj
 0001:00039220       ?divide@__crt_strtox@@YA_KAEAUbig_integer@1@AEBU21@@Z 000000014003a220 f i libucrtd:cfout.obj
 0001:00039bf0       ?is_zero@__crt_strtox@@YA_NAEBUbig_integer@1@@Z 000000014003abf0 f i libucrtd:cfout.obj
 0001:00039c20       ?make_big_integer@__crt_strtox@@YA?AUbig_integer@1@_K@Z 000000014003ac20 f i libucrtd:cfout.obj
 0001:00039cf0       ?make_big_integer_power_of_two@__crt_strtox@@YA?AUbig_integer@1@I@Z 000000014003acf0 f i libucrtd:cfout.obj
 0001:00039dc0       ?multiply@__crt_strtox@@YA_NAEAUbig_integer@1@AEBU21@@Z 000000014003adc0 f i libucrtd:cfout.obj
 0001:0003a140       ?multiply@__crt_strtox@@YA_NAEAUbig_integer@1@I@Z 000000014003b140 f i libucrtd:cfout.obj
 0001:0003a260       ?multiply_64_32@__crt_strtox@@YA_K_KI@Z 000000014003b260 f i libucrtd:cfout.obj
 0001:0003a280       ?multiply_by_power_of_ten@__crt_strtox@@YA_NAEAUbig_integer@1@I@Z 000000014003b280 f i libucrtd:cfout.obj
 0001:0003a430       ?multiply_core@__crt_strtox@@YAIQEAIII@Z 000000014003b430 f i libucrtd:cfout.obj
 0001:0003a4b0       ?shift_left@__crt_strtox@@YA_NAEAUbig_integer@1@I@Z 000000014003b4b0 f i libucrtd:cfout.obj
 0001:0003a790       __acrt_fltout              000000014003b790 f   libucrtd:cfout.obj
 0001:0003ab40       fegetround                 000000014003bb40 f   libucrtd:fegetround.obj
 0001:0003b490       ?has_big_buffer@__crt_stdio_stream@@QEBA_NXZ 000000014003c490 f i libucrtd:_flsbuf.obj
 0001:0003b5b0       __acrt_stdio_flush_and_write_narrow_nolock 000000014003c5b0 f   libucrtd:_flsbuf.obj
 0001:0003b5e0       __acrt_stdio_flush_and_write_wide_nolock 000000014003c5e0 f   libucrtd:_flsbuf.obj
 0001:0003bbf0       _mbstowcs_s_l              000000014003cbf0 f   libucrtd:mbstowcs.obj
 0001:0003c1c0       mbstowcs_s                 000000014003d1c0 f   libucrtd:mbstowcs.obj
 0001:0003cb50       _wcstombs_s_l              000000014003db50 f   libucrtd:wcstombs.obj
 0001:0003d090       wcstombs_s                 000000014003e090 f   libucrtd:wcstombs.obj
 0001:0003d0e0       __acrt_GetStringTypeW      000000014003e0e0 f   libucrtd:getstringtypew.obj
 0001:0003d120       _fclose_nolock             000000014003e120 f   libucrtd:fclose.obj
 0001:0003d2b0       fclose                     000000014003e2b0 f   libucrtd:fclose.obj
 0001:0003d800       _lseeki64                  000000014003e800 f   libucrtd:lseek.obj
 0001:0003d830       _lseeki64_nolock           000000014003e830 f   libucrtd:lseek.obj
 0001:0003d85c       _putwch_nolock             000000014003e85c f   libucrtd:putwch.obj
 0001:0003d8a0       _raise_exc                 000000014003e8a0 f   libucrtd:fpexcept.obj
 0001:0003d900       _raise_exc_ex              000000014003e900 f   libucrtd:fpexcept.obj
 0001:0003df80       _raise_excf                000000014003ef80 f   libucrtd:fpexcept.obj
 0001:0003dfe0       _set_errno_from_matherr    000000014003efe0 f   libucrtd:fpexcept.obj
 0001:0003e030       _clrfp                     000000014003f030 f   libucrtd:fpctrl.obj
 0001:0003e060       _ctrlfp                    000000014003f060 f   libucrtd:fpctrl.obj
 0001:0003e110       _set_statfp                000000014003f110 f   libucrtd:fpctrl.obj
 0001:0003e150       _statfp                    000000014003f150 f   libucrtd:fpctrl.obj
 0001:0003e180       __strncnt                  000000014003f180 f   libucrtd:strncnt.obj
 0001:0003e1e0       ?__mbrtoc32_utf8@__crt_mbstring@@YA_KPEA_UPEBD_KPEAU_Mbstatet@@@Z 000000014003f1e0 f   libucrtd:mbrtoc32.obj
 0001:0003e5a0       log10                      000000014003f5a0 f   libucrtd:log10.obj
 0001:0003eb50       ceil                       000000014003fb50 f   libucrtd:ceil.obj
 0001:0003ed20       _controlfp_s               000000014003fd20 f   libucrtd:contrlfp.obj
 0001:0003ee50       fegetenv                   000000014003fe50 f   libucrtd:fegetenv.obj
 0001:0003ee80       fesetenv                   000000014003fe80 f   libucrtd:fesetenv.obj
 0001:0003ef00       feholdexcept               000000014003ff00 f   libucrtd:feholdexcept.obj
 0001:0003ef70       ??$__acrt_fenv_shift_bits@W4__acrt_fenv_abstract_control@@@@YA?AW4__acrt_fenv_abstract_control@@W40@0I@Z 000000014003ff70 f i libucrtd:_fenvutils.obj
 0001:0003ef70       ??$__acrt_fenv_shift_bits@W4__acrt_fenv_abstract_status@@@@YA?AW4__acrt_fenv_abstract_status@@W40@0I@Z 000000014003ff70 f i libucrtd:_fenvutils.obj
 0001:0003efa0       ??$__acrt_fenv_translate_bit@W4__acrt_fenv_abstract_control@@W4__acrt_fenv_machine_sse_control@@@@YA?AW4__acrt_fenv_abstract_control@@W4__acrt_fenv_machine_sse_control@@0W40@1@Z 000000014003ffa0 f i libucrtd:_fenvutils.obj
 0001:0003f000       ??$__acrt_fenv_translate_bit@W4__acrt_fenv_abstract_status@@W4__acrt_fenv_machine_sse_status@@@@YA?AW4__acrt_fenv_abstract_status@@W4__acrt_fenv_machine_sse_status@@0W40@1@Z 0000000140040000 f i libucrtd:_fenvutils.obj
 0001:0003f000       ??$__acrt_fenv_translate_bit@W4__acrt_fenv_machine_sse_status@@W4__acrt_fenv_abstract_status@@@@YA?AW4__acrt_fenv_machine_sse_status@@W4__acrt_fenv_abstract_status@@0W40@1@Z 0000000140040000 f i libucrtd:_fenvutils.obj
 0001:0003f050       ??$__acrt_fenv_translate_bit@W4__acrt_fenv_machine_sse_control@@W4__acrt_fenv_abstract_control@@@@YA?AW4__acrt_fenv_machine_sse_control@@W4__acrt_fenv_abstract_control@@0W40@1@Z 0000000140040050 f i libucrtd:_fenvutils.obj
 0001:0003f0b0       ??$__acrt_fenv_unshift_bits@W4__acrt_fenv_abstract_status@@@@YA?AW4__acrt_fenv_abstract_status@@W40@0I@Z 00000001400400b0 f i libucrtd:_fenvutils.obj
 0001:0003f0b0       ??$__acrt_fenv_unshift_bits@W4__acrt_fenv_abstract_control@@@@YA?AW4__acrt_fenv_abstract_control@@W40@0I@Z 00000001400400b0 f i libucrtd:_fenvutils.obj
 0001:0003f5a0       ??I@YA?AW4__acrt_fenv_abstract_status@@W40@0@Z 00000001400405a0 f i libucrtd:_fenvutils.obj
 0001:0003f5a0       ??I@YA?AW4__acrt_fenv_machine_sse_status@@W40@0@Z 00000001400405a0 f i libucrtd:_fenvutils.obj
 0001:0003f5a0       ??I@YA?AW4__acrt_fenv_abstract_control@@W40@0@Z 00000001400405a0 f i libucrtd:_fenvutils.obj
 0001:0003f5c0       ??I@YA?AW4__acrt_fenv_machine_sse_control@@W40@0@Z 00000001400405c0 f i libucrtd:_fenvutils.obj
 0001:0003f5e0       ??U@YA?AW4__acrt_fenv_abstract_control@@W40@0@Z 00000001400405e0 f i libucrtd:_fenvutils.obj
 0001:0003f5e0       ??U@YA?AW4__acrt_fenv_abstract_status@@W40@0@Z 00000001400405e0 f i libucrtd:_fenvutils.obj
 0001:0003f600       ??U@YA?AW4__acrt_fenv_machine_sse_control@@W40@0@Z 0000000140040600 f i libucrtd:_fenvutils.obj
 0001:0003f620       ??_5@YAAEAW4__acrt_fenv_abstract_control@@AEAW40@W40@@Z 0000000140040620 f i libucrtd:_fenvutils.obj
 0001:0003f620       ??_5@YAAEAW4__acrt_fenv_machine_sse_status@@AEAW40@W40@@Z 0000000140040620 f i libucrtd:_fenvutils.obj
 0001:0003f620       ??_5@YAAEAW4__acrt_fenv_abstract_status@@AEAW40@W40@@Z 0000000140040620 f i libucrtd:_fenvutils.obj
 0001:0003f650       ??_5@YAAEAW4__acrt_fenv_machine_sse_control@@AEAW40@W40@@Z 0000000140040650 f i libucrtd:_fenvutils.obj
 0001:0003f680       ?__acrt_fenv_shift_abstract_sse_control@@YA?AW4__acrt_fenv_abstract_control@@W41@@Z 0000000140040680 f i libucrtd:_fenvutils.obj
 0001:0003f6d0       ?__acrt_fenv_shift_abstract_sse_status@@YA?AW4__acrt_fenv_abstract_status@@W41@@Z 00000001400406d0 f i libucrtd:_fenvutils.obj
 0001:0003f700       ?__acrt_fenv_unshift_abstract_sse_control@@YA?AW4__acrt_fenv_abstract_control@@W41@@Z 0000000140040700 f i libucrtd:_fenvutils.obj
 0001:0003f750       ?__acrt_fenv_unshift_abstract_sse_status@@YA?AW4__acrt_fenv_abstract_status@@W41@@Z 0000000140040750 f i libucrtd:_fenvutils.obj
 0001:0003fa20       __acrt_fenv_get_common_round_control 0000000140040a20 f   libucrtd:_fenvutils.obj
 0001:0003fa40       __acrt_fenv_get_control    0000000140040a40 f   libucrtd:_fenvutils.obj
 0001:0003fa70       __acrt_fenv_get_status     0000000140040a70 f   libucrtd:_fenvutils.obj
 0001:0003faa0       __acrt_fenv_set_control    0000000140040aa0 f   libucrtd:_fenvutils.obj
 0001:0003fac0       __acrt_fenv_set_status     0000000140040ac0 f   libucrtd:_fenvutils.obj
 0001:0003fae0       __acrt_stdio_allocate_buffer_nolock 0000000140040ae0 f   libucrtd:_getbuf.obj
 0001:0003fc60       ?__wcsrtombs_utf8@__crt_mbstring@@YA_KPEADPEAPEB_W_KPEAU_Mbstatet@@@Z 0000000140040c60 f   libucrtd:wcrtomb.obj
 0001:00040100       _close                     0000000140041100 f   libucrtd:close.obj
 0001:000402f0       _close_nolock              00000001400412f0 f   libucrtd:close.obj
 0001:00040360       ?__acrt_stdio_free_stream@@YAXV__crt_stdio_stream@@@Z 0000000140041360 f   libucrtd:stream.obj
 0001:00040400       ?deallocate@__crt_stdio_stream@@QEAAXXZ 0000000140041400 f i libucrtd:stream.obj
 0001:00040418       __dcrt_lowio_ensure_console_output_initialized 0000000140041418 f   libucrtd:initcon.obj
 0001:0004046c       __dcrt_terminate_console_output 000000014004146c f   libucrtd:initcon.obj
 0001:00040488       __dcrt_write_console       0000000140041488 f   libucrtd:initcon.obj
 0001:00040560       _get_fpsr                  0000000140041560 f   libucrtd:fpsr.obj
 0001:00040570       _set_fpsr                  0000000140041570 f   libucrtd:fpsr.obj
 0001:0004057a       _fclrf                     000000014004157a f   libucrtd:fpsr.obj
 0001:0004058e       _frnd                      000000014004158e f   libucrtd:fpsr.obj
 0001:000405b0       _log10_special             00000001400415b0 f   libucrtd:log_special.obj
 0001:00040910       _clearfp                   0000000140041910 f   libucrtd:ieee.obj
 0001:00040930       _control87                 0000000140041930 f   libucrtd:ieee.obj
 0001:00040bc0       ?__c16rtomb_utf8@__crt_mbstring@@YA_KPEAD_SPEAU_Mbstatet@@@Z 0000000140041bc0 f   libucrtd:c16rtomb.obj
 0001:00040de0       _FindPESection             0000000140041de0 f   LIBCMTD:pesect.obj
 0001:00040e90       _IsNonwritableInCurrentImage 0000000140041e90 f   LIBCMTD:pesect.obj
 0001:00040f20       _ValidateImageBase         0000000140041f20 f   LIBCMTD:pesect.obj
 0001:00040fa0       ??1type_info@@UEAA@XZ      0000000140041fa0 f   LIBCMTD:std_type_info_static.obj
 0001:00040fc0       ??_Gtype_info@@UEAAPEAXI@Z 0000000140041fc0 f i LIBCMTD:std_type_info_static.obj
 0001:00040fc0       ??_Etype_info@@UEAAPEAXI@Z 0000000140041fc0 f i LIBCMTD:std_type_info_static.obj
 0001:00041000       ??3@YAXPEAX_K@Z            0000000140042000 f   LIBCMTD:delete_scalar_size.obj
 0001:00041020       __GSHandlerCheck_SEH       0000000140042020 f   LIBCMTD:gshandlerseh.obj
 0001:000410f0       _alloca_probe              00000001400420f0 f   LIBCMTD:chkstk.obj
 0001:000410f0       __chkstk                   00000001400420f0 f   LIBCMTD:chkstk.obj
 0001:00041150       __GSHandlerCheck_EH        0000000140042150 f   LIBCMTD:gshandlereh.obj
 0001:00041200       ??3@YAXPEAX@Z              0000000140042200 f   LIBCMTD:delete_scalar.obj
 0001:00041230       memcmp                     0000000140042230 f   libvcruntimed:memcmp.obj
 0001:00041300       strrchr                    0000000140042300 f   libvcruntimed:strrchr.obj
 0001:00041730       _guard_dispatch_icall_nop  0000000140042730 f   LIBCMTD:guard_dispatch.obj
 0001:00041750       _guard_xfg_dispatch_icall_nop 0000000140042750 f   LIBCMTD:guard_xfg_dispatch.obj
 0002:00000000       __imp_D3DCompileFromFile   0000000140043000     d3dcompiler:D3DCOMPILER_47.dll
 0002:00000008       \177D3DCOMPILER_47_NULL_THUNK_DATA 0000000140043008     d3dcompiler:D3DCOMPILER_47.dll
 0002:00000010       __imp_CloseHandle          0000000140043010     kernel32:KERNEL32.dll
 0002:00000018       __imp_SetFilePointerEx     0000000140043018     kernel32:KERNEL32.dll
 0002:00000020       __imp_GetFileSizeEx        0000000140043020     kernel32:KERNEL32.dll
 0002:00000028       __imp_GetConsoleMode       0000000140043028     kernel32:KERNEL32.dll
 0002:00000030       __imp_CreateFileW          0000000140043030     kernel32:KERNEL32.dll
 0002:00000038       __imp_FlushFileBuffers     0000000140043038     kernel32:KERNEL32.dll
 0002:00000040       __imp_HeapQueryInformation 0000000140043040     kernel32:KERNEL32.dll
 0002:00000048       __imp_HeapReAlloc          0000000140043048     kernel32:KERNEL32.dll
 0002:00000050       __imp_HeapFree             0000000140043050     kernel32:KERNEL32.dll
 0002:00000058       __imp_GetProcessHeap       0000000140043058     kernel32:KERNEL32.dll
 0002:00000060       __imp_LCMapStringW         0000000140043060     kernel32:KERNEL32.dll
 0002:00000068       __imp_GetConsoleOutputCP   0000000140043068     kernel32:KERNEL32.dll
 0002:00000070       __imp_EncodePointer        0000000140043070     kernel32:KERNEL32.dll
 0002:00000078       __imp_OutputDebugStringA   0000000140043078     kernel32:KERNEL32.dll
 0002:00000080       __imp_OutputDebugStringW   0000000140043080     kernel32:KERNEL32.dll
 0002:00000088       __imp_GetLastError         0000000140043088     kernel32:KERNEL32.dll
 0002:00000090       __imp_QueryPerformanceCounter 0000000140043090     kernel32:KERNEL32.dll
 0002:00000098       __imp_QueryPerformanceFrequency 0000000140043098     kernel32:KERNEL32.dll
 0002:000000a0       __imp_RtlCaptureContext    00000001400430a0     kernel32:KERNEL32.dll
 0002:000000a8       __imp_RtlLookupFunctionEntry 00000001400430a8     kernel32:KERNEL32.dll
 0002:000000b0       __imp_RtlVirtualUnwind     00000001400430b0     kernel32:KERNEL32.dll
 0002:000000b8       __imp_UnhandledExceptionFilter 00000001400430b8     kernel32:KERNEL32.dll
 0002:000000c0       __imp_SetUnhandledExceptionFilter 00000001400430c0     kernel32:KERNEL32.dll
 0002:000000c8       __imp_GetCurrentProcess    00000001400430c8     kernel32:KERNEL32.dll
 0002:000000d0       __imp_TerminateProcess     00000001400430d0     kernel32:KERNEL32.dll
 0002:000000d8       __imp_IsProcessorFeaturePresent 00000001400430d8     kernel32:KERNEL32.dll
 0002:000000e0       __imp_GetCurrentProcessId  00000001400430e0     kernel32:KERNEL32.dll
 0002:000000e8       __imp_GetCurrentThreadId   00000001400430e8     kernel32:KERNEL32.dll
 0002:000000f0       __imp_GetSystemTimeAsFileTime 00000001400430f0     kernel32:KERNEL32.dll
 0002:000000f8       __imp_InitializeSListHead  00000001400430f8     kernel32:KERNEL32.dll
 0002:00000100       __imp_IsDebuggerPresent    0000000140043100     kernel32:KERNEL32.dll
 0002:00000108       __imp_GetStartupInfoW      0000000140043108     kernel32:KERNEL32.dll
 0002:00000110       __imp_GetModuleHandleW     0000000140043110     kernel32:KERNEL32.dll
 0002:00000118       __imp_RtlUnwindEx          0000000140043118     kernel32:KERNEL32.dll
 0002:00000120       __imp_SetLastError         0000000140043120     kernel32:KERNEL32.dll
 0002:00000128       __imp_EnterCriticalSection 0000000140043128     kernel32:KERNEL32.dll
 0002:00000130       __imp_LeaveCriticalSection 0000000140043130     kernel32:KERNEL32.dll
 0002:00000138       __imp_DeleteCriticalSection 0000000140043138     kernel32:KERNEL32.dll
 0002:00000140       __imp_InitializeCriticalSectionAndSpinCount 0000000140043140     kernel32:KERNEL32.dll
 0002:00000148       __imp_TlsAlloc             0000000140043148     kernel32:KERNEL32.dll
 0002:00000150       __imp_TlsGetValue          0000000140043150     kernel32:KERNEL32.dll
 0002:00000158       __imp_TlsSetValue          0000000140043158     kernel32:KERNEL32.dll
 0002:00000160       __imp_TlsFree              0000000140043160     kernel32:KERNEL32.dll
 0002:00000168       __imp_FreeLibrary          0000000140043168     kernel32:KERNEL32.dll
 0002:00000170       __imp_GetProcAddress       0000000140043170     kernel32:KERNEL32.dll
 0002:00000178       __imp_LoadLibraryExW       0000000140043178     kernel32:KERNEL32.dll
 0002:00000180       __imp_RaiseException       0000000140043180     kernel32:KERNEL32.dll
 0002:00000188       __imp_RtlPcToFileHeader    0000000140043188     kernel32:KERNEL32.dll
 0002:00000190       __imp_GetStdHandle         0000000140043190     kernel32:KERNEL32.dll
 0002:00000198       __imp_GetFileType          0000000140043198     kernel32:KERNEL32.dll
 0002:000001a0       __imp_GetModuleFileNameW   00000001400431a0     kernel32:KERNEL32.dll
 0002:000001a8       __imp_GetModuleHandleExW   00000001400431a8     kernel32:KERNEL32.dll
 0002:000001b0       __imp_WriteConsoleW        00000001400431b0     kernel32:KERNEL32.dll
 0002:000001b8       __imp_WriteFile            00000001400431b8     kernel32:KERNEL32.dll
 0002:000001c0       __imp_ExitProcess          00000001400431c0     kernel32:KERNEL32.dll
 0002:000001c8       __imp_HeapAlloc            00000001400431c8     kernel32:KERNEL32.dll
 0002:000001d0       __imp_HeapSize             00000001400431d0     kernel32:KERNEL32.dll
 0002:000001d8       __imp_HeapValidate         00000001400431d8     kernel32:KERNEL32.dll
 0002:000001e0       __imp_GetSystemInfo        00000001400431e0     kernel32:KERNEL32.dll
 0002:000001e8       __imp_FindClose            00000001400431e8     kernel32:KERNEL32.dll
 0002:000001f0       __imp_FindFirstFileExW     00000001400431f0     kernel32:KERNEL32.dll
 0002:000001f8       __imp_FindNextFileW        00000001400431f8     kernel32:KERNEL32.dll
 0002:00000200       __imp_IsValidCodePage      0000000140043200     kernel32:KERNEL32.dll
 0002:00000208       __imp_GetACP               0000000140043208     kernel32:KERNEL32.dll
 0002:00000210       __imp_GetOEMCP             0000000140043210     kernel32:KERNEL32.dll
 0002:00000218       __imp_GetCPInfo            0000000140043218     kernel32:KERNEL32.dll
 0002:00000220       __imp_GetCommandLineA      0000000140043220     kernel32:KERNEL32.dll
 0002:00000228       __imp_GetCommandLineW      0000000140043228     kernel32:KERNEL32.dll
 0002:00000230       __imp_MultiByteToWideChar  0000000140043230     kernel32:KERNEL32.dll
 0002:00000238       __imp_WideCharToMultiByte  0000000140043238     kernel32:KERNEL32.dll
 0002:00000240       __imp_GetEnvironmentStringsW 0000000140043240     kernel32:KERNEL32.dll
 0002:00000248       __imp_FreeEnvironmentStringsW 0000000140043248     kernel32:KERNEL32.dll
 0002:00000250       __imp_SetStdHandle         0000000140043250     kernel32:KERNEL32.dll
 0002:00000258       __imp_GetStringTypeW       0000000140043258     kernel32:KERNEL32.dll
 0002:00000260       \177KERNEL32_NULL_THUNK_DATA 0000000140043260     kernel32:KERNEL32.dll
 0002:00000268       __imp_DispatchMessageW     0000000140043268     user32:USER32.dll
 0002:00000270       __imp_PeekMessageW         0000000140043270     user32:USER32.dll
 0002:00000278       __imp_DefWindowProcW       0000000140043278     user32:USER32.dll
 0002:00000280       __imp_LoadIconW            0000000140043280     user32:USER32.dll
 0002:00000288       __imp_LoadCursorW          0000000140043288     user32:USER32.dll
 0002:00000290       __imp_MessageBoxA          0000000140043290     user32:USER32.dll
 0002:00000298       __imp_AdjustWindowRectEx   0000000140043298     user32:USER32.dll
 0002:000002a0       __imp_GetClientRect        00000001400432a0     user32:USER32.dll
 0002:000002a8       __imp_DestroyWindow        00000001400432a8     user32:USER32.dll
 0002:000002b0       __imp_CreateWindowExW      00000001400432b0     user32:USER32.dll
 0002:000002b8       __imp_RegisterClassExW     00000001400432b8     user32:USER32.dll
 0002:000002c0       __imp_PostQuitMessage      00000001400432c0     user32:USER32.dll
 0002:000002c8       __imp_TranslateMessage     00000001400432c8     user32:USER32.dll
 0002:000002d0       \177USER32_NULL_THUNK_DATA 00000001400432d0     user32:USER32.dll
 0002:000002d8       __imp_D3D11CreateDevice    00000001400432d8     d3d11:d3d11.dll
 0002:000002e0       \177d3d11_NULL_THUNK_DATA  00000001400432e0     d3d11:d3d11.dll
 0002:000002e8       __guard_check_icall_fptr   00000001400432e8     LIBCMTD:guard_support.obj
 0002:000002f0       __guard_xfg_check_icall_fptr 00000001400432f0     LIBCMTD:guard_support.obj
 0002:000002f8       __guard_dispatch_icall_fptr 00000001400432f8     LIBCMTD:guard_support.obj
 0002:00000300       __guard_xfg_dispatch_icall_fptr 0000000140043300     LIBCMTD:guard_support.obj
 0002:00000308       __guard_xfg_table_dispatch_icall_fptr 0000000140043308     LIBCMTD:guard_support.obj
 0002:00000310       __xc_a                     0000000140043310     LIBCMTD:initializers.obj
 0002:00000320       __xc_z                     0000000140043320     LIBCMTD:initializers.obj
 0002:00000328       __xi_a                     0000000140043328     LIBCMTD:initializers.obj
 0002:00000340       __acrt_stdio_initializer   0000000140043340     libucrtd:stdio_initializer.obj
 0002:00000348       __acrt_tran_fma3_initializer 0000000140043348     libucrtd:fma3_initializer.obj
 0002:00000350       __acrt_multibyte_initializer 0000000140043350     libucrtd:multibyte_initializer.obj
 0002:00000358       __acrt_fmode_initializer   0000000140043358     libucrtd:fmode_initializer.obj
 0002:00000360       __xi_z                     0000000140043360     LIBCMTD:initializers.obj
 0002:00000368       __xp_a                     0000000140043368     LIBCMTD:initializers.obj
 0002:00000370       __acrt_locale_terminator   0000000140043370     libucrtd:locale_initializer.obj
 0002:00000378       __dcrt_console_output_terminator 0000000140043378     libucrtd:console_output_initializer.obj
 0002:00000380       __acrt_stdio_terminator    0000000140043380     libucrtd:stdio_initializer.obj
 0002:00000388       __xp_z                     0000000140043388     LIBCMTD:initializers.obj
 0002:00000390       __xt_a                     0000000140043390     LIBCMTD:initializers.obj
 0002:00000398       __xt_z                     0000000140043398     LIBCMTD:initializers.obj
 0002:00001270       _GUID_a04bfb29_08ef_43d6_a49c_a9bdbdcbe686 0000000140044270     win32.obj
 0002:00001280       _GUID_bb2c6faa_b5fb_4082_8e6b_388b8cfa90e1 0000000140044280     win32.obj
 0002:00001290       _GUID_79cf2233_7536_4948_9d36_1e4692dc5760 0000000140044290     win32.obj
 0002:000012a0       _GUID_6543dbb6_1b48_42f5_ab82_e97ec74326f6 00000001400442a0     win32.obj
 0002:000012b0       _GUID_77db970f_6276_48ba_ba28_070143b4392c 00000001400442b0     win32.obj
 0002:000012c0       _GUID_50c83a1c_e072_4c48_87b0_3630fa36a6d0 00000001400442c0     win32.obj
 0002:000012d0       _GUID_6f15aaf2_d208_4e89_9ab4_489535d34f9c 00000001400442d0     win32.obj
 0002:000012e0       __real@3c888889            00000001400442e0     win32.obj
 0002:000012e4       __real@3dcccccd            00000001400442e4     win32.obj
 0002:000012e8       __real@3e4ccccd            00000001400442e8     win32.obj
 0002:000012ec       __real@3e800000            00000001400442ec     win32.obj
 0002:000012f0       __real@3f000000            00000001400442f0     win32.obj
 0002:000012f4       __real@3f19999a            00000001400442f4     win32.obj
 0002:000012f8       __real@3f800000            00000001400442f8     win32.obj
 0002:000012fc       __real@3fa0d97c            00000001400442fc     win32.obj
 0002:00001300       __real@40060a92            0000000140044300     win32.obj
 0002:00001304       __real@40400000            0000000140044304     win32.obj
 0002:00001308       __real@40a00000            0000000140044308     win32.obj
 0002:0000130c       __real@bf000000            000000014004430c     win32.obj
 0002:00001310       __real@bf400000            0000000140044310     win32.obj
 0002:00001328       _pDestructExceptionObject  0000000140044328     libvcruntimed:ehhelpers.obj
 0002:00001330       ??_C@_0EN@BFEPEPDB@D?3?2a01?2_work?226?2s?2src?2vctools?2c@ 0000000140044330     libvcruntimed:per_thread_data.obj
 0002:00001a80       ??_C@_08EHJDFFNH@__based?$CI@ 0000000140044a80     libvcruntimed:undname.obj
 0002:00001a90       ??_C@_07KOLFKCDI@__cdecl@  0000000140044a90     libvcruntimed:undname.obj
 0002:00001a98       ??_C@_08GHMPAG@__pascal@   0000000140044a98     libvcruntimed:undname.obj
 0002:00001aa8       ??_C@_09IFJBGAPI@__stdcall@ 0000000140044aa8     libvcruntimed:undname.obj
 0002:00001ab8       ??_C@_0L@NPHFGOKO@__thiscall@ 0000000140044ab8     libvcruntimed:undname.obj
 0002:00001ac8       ??_C@_0L@JMKHOMEK@__fastcall@ 0000000140044ac8     libvcruntimed:undname.obj
 0002:00001ad8       ??_C@_0N@BCKKPABJ@__vectorcall@ 0000000140044ad8     libvcruntimed:undname.obj
 0002:00001ae8       ??_C@_09HIJEGCPM@__clrcall@ 0000000140044ae8     libvcruntimed:undname.obj
 0002:00001af4       ??_C@_06GHPCKEAG@__eabi@   0000000140044af4     libvcruntimed:undname.obj
 0002:00001b00       ??_C@_09IOPIDJLG@__swift_1@ 0000000140044b00     libvcruntimed:undname.obj
 0002:00001b10       ??_C@_09KFNFGKHF@__swift_2@ 0000000140044b10     libvcruntimed:undname.obj
 0002:00001b20       ??_C@_07JOMMBBKO@__ptr64@  0000000140044b20     libvcruntimed:undname.obj
 0002:00001b28       ??_C@_0L@PILCLIHE@__restrict@ 0000000140044b28     libvcruntimed:undname.obj
 0002:00001b38       ??_C@_0M@GFIIJFMG@__unaligned@ 0000000140044b38     libvcruntimed:undname.obj
 0002:00001b48       ??_C@_09DHDLOLLB@restrict?$CI@ 0000000140044b48     libvcruntimed:undname.obj
 0002:00001b52       ??_C@_00CNPNBAHC@@         0000000140044b52     libvcruntimed:undname.obj
 0002:00001b54       ??_C@_04NIHEBCM@?5new@     0000000140044b54     libvcruntimed:undname.obj
 0002:00001b60       ??_C@_07FPCDHGMM@?5delete@ 0000000140044b60     libvcruntimed:undname.obj
 0002:00001b68       ??_C@_01NEMOKFLO@?$DN@     0000000140044b68     libvcruntimed:undname.obj
 0002:00001b6c       ??_C@_02GPIOPFAK@?$DO?$DO@ 0000000140044b6c     libvcruntimed:undname.obj
 0002:00001b70       ??_C@_02FODMEDOG@?$DM?$DM@ 0000000140044b70     libvcruntimed:undname.obj
 0002:00001b74       ??_C@_01DCLJPIOD@?$CB@     0000000140044b74     libvcruntimed:undname.obj
 0002:00001b78       ??_C@_02EGOFBIJA@?$DN?$DN@ 0000000140044b78     libvcruntimed:undname.obj
 0002:00001b7c       ??_C@_02FDNJECIE@?$CB?$DN@ 0000000140044b7c     libvcruntimed:undname.obj
 0002:00001b80       ??_C@_02GPECMEKF@?$FL?$FN@ 0000000140044b80     libvcruntimed:undname.obj
 0002:00001b88       ??_C@_08LHJFAFGD@operator@ 0000000140044b88     libvcruntimed:undname.obj
 0002:00001b94       ??_C@_02HBOOOICD@?9?$DO@   0000000140044b94     libvcruntimed:undname.obj
 0002:00001b98       ??_C@_01NBENCBCI@?$CK@     0000000140044b98     libvcruntimed:undname.obj
 0002:00001b9c       ??_C@_02ECNGHCIF@?$CL?$CL@ 0000000140044b9c     libvcruntimed:undname.obj
 0002:00001ba0       ??_C@_02BAABKJLB@?9?9@     0000000140044ba0     libvcruntimed:undname.obj
 0002:00001ba4       ??_C@_01JOAMLHOP@?9@       0000000140044ba4     libvcruntimed:undname.obj
 0002:00001ba8       ??_C@_01MIFGBAGJ@?$CL@     0000000140044ba8     libvcruntimed:undname.obj
 0002:00001bac       ??_C@_01HNPIGOCE@?$CG@     0000000140044bac     libvcruntimed:undname.obj
 0002:00001bb0       ??_C@_03MNHNFDLC@?9?$DO?$CK@ 0000000140044bb0     libvcruntimed:undname.obj
 0002:00001bb4       ??_C@_01KMDKNFGN@?1@       0000000140044bb4     libvcruntimed:undname.obj
 0002:00001bb8       ??_C@_01FGNFDNOH@?$CF@     0000000140044bb8     libvcruntimed:undname.obj
 0002:00001bbc       ??_C@_01MNNFJEPP@?$DM@     0000000140044bbc     libvcruntimed:undname.obj
 0002:00001bc0       ??_C@_02EHCHHCKH@?$DM?$DN@ 0000000140044bc0     libvcruntimed:undname.obj
 0002:00001bc4       ??_C@_01PPODPGHN@?$DO@     0000000140044bc4     libvcruntimed:undname.obj
 0002:00001bc8       ??_C@_02EEKDKGMJ@?$DO?$DN@ 0000000140044bc8     libvcruntimed:undname.obj
 0002:00001bcc       ??_C@_01IHBHIGKO@?0@       0000000140044bcc     libvcruntimed:undname.obj
 0002:00001bd0       ??_C@_02HCKGKOFO@?$CI?$CJ@ 0000000140044bd0     libvcruntimed:undname.obj
 0002:00001bd4       ??_C@_01PJKLJHI@?$HO@      0000000140044bd4     libvcruntimed:undname.obj
 0002:00001bd8       ??_C@_01JKBOJNNK@?$FO@     0000000140044bd8     libvcruntimed:undname.obj
 0002:00001bdc       ??_C@_01DNKMNLPK@?$HM@     0000000140044bdc     libvcruntimed:undname.obj
 0002:00001be0       ??_C@_02PPKAJPJL@?$CG?$CG@ 0000000140044be0     libvcruntimed:undname.obj
 0002:00001be4       ??_C@_02NONPIBCD@?$HM?$HM@ 0000000140044be4     libvcruntimed:undname.obj
 0002:00001be8       ??_C@_02FPIMKNGF@?$CK?$DN@ 0000000140044be8     libvcruntimed:undname.obj
 0002:00001bec       ??_C@_02FOEOMHFC@?$CL?$DN@ 0000000140044bec     libvcruntimed:undname.obj
 0002:00001bf0       ??_C@_02FKMDLLOA@?9?$DN@   0000000140044bf0     libvcruntimed:undname.obj
 0002:00001bf4       ??_C@_02FJEHGPIO@?1?$DN@   0000000140044bf4     libvcruntimed:undname.obj
 0002:00001bf8       ??_C@_02FENAOKFI@?$CF?$DN@ 0000000140044bf8     libvcruntimed:undname.obj
 0002:00001bfc       ??_C@_03IKFCCPFF@?$DO?$DO?$DN@ 0000000140044bfc     libvcruntimed:undname.obj
 0002:00001c00       ??_C@_03CDNPDDLA@?$DM?$DM?$DN@ 0000000140044c00     libvcruntimed:undname.obj
 0002:00001c04       ??_C@_02FGJGFEAB@?$CG?$DN@ 0000000140044c04     libvcruntimed:undname.obj
 0002:00001c08       ??_C@_02DHLNPPGH@?$HM?$DN@ 0000000140044c08     libvcruntimed:undname.obj
 0002:00001c0c       ??_C@_02MHEGNOJ@?$FO?$DN@  0000000140044c0c     libvcruntimed:undname.obj
 0002:00001c10       ??_C@_09IFPLHPGF@?$GAvftable?8@ 0000000140044c10     libvcruntimed:undname.obj
 0002:00001c20       ??_C@_09BLBHBJP@?$GAvbtable?8@ 0000000140044c20     libvcruntimed:undname.obj
 0002:00001c30       ??_C@_07FEEIOKP@?$GAvcall?8@ 0000000140044c30     libvcruntimed:undname.obj
 0002:00001c38       ??_C@_08LLFFHHDJ@?$GAtypeof?8@ 0000000140044c38     libvcruntimed:undname.obj
 0002:00001c48       ??_C@_0BF@KDPPACIK@?$GAlocal?5static?5guard?8@ 0000000140044c48     libvcruntimed:undname.obj
 0002:00001c60       ??_C@_08OBABFOLI@?$GAstring?8@ 0000000140044c60     libvcruntimed:undname.obj
 0002:00001c70       ??_C@_0BD@JDLKDPAB@?$GAvbase?5destructor?8@ 0000000140044c70     libvcruntimed:undname.obj
 0002:00001c88       ??_C@_0BN@DEGPLNFK@?$GAvector?5deleting?5destructor?8@ 0000000140044c88     libvcruntimed:undname.obj
 0002:00001ca8       ??_C@_0BO@OBMKPJIG@?$GAdefault?5constructor?5closure?8@ 0000000140044ca8     libvcruntimed:undname.obj
 0002:00001cc8       ??_C@_0BN@IMDCHIKM@?$GAscalar?5deleting?5destructor?8@ 0000000140044cc8     libvcruntimed:undname.obj
 0002:00001ce8       ??_C@_0BO@PFGOCPJJ@?$GAvector?5constructor?5iterator?8@ 0000000140044ce8     libvcruntimed:undname.obj
 0002:00001d08       ??_C@_0BN@LFPFMEDL@?$GAvector?5destructor?5iterator?8@ 0000000140044d08     libvcruntimed:undname.obj
 0002:00001d28       ??_C@_0CE@IKBNEHA@?$GAvector?5vbase?5constructor?5itera@ 0000000140044d28     libvcruntimed:undname.obj
 0002:00001d50       ??_C@_0BL@NILFHHPC@?$GAvirtual?5displacement?5map?8@ 0000000140044d50     libvcruntimed:undname.obj
 0002:00001d70       ??_C@_0CB@JONCMFFK@?$GAeh?5vector?5constructor?5iterator@ 0000000140044d70     libvcruntimed:undname.obj
 0002:00001d98       ??_C@_0CA@GCEOPDGL@?$GAeh?5vector?5destructor?5iterator?8@ 0000000140044d98     libvcruntimed:undname.obj
 0002:00001db8       ??_C@_0CH@OOJPLCPH@?$GAeh?5vector?5vbase?5constructor?5it@ 0000000140044db8     libvcruntimed:undname.obj
 0002:00001de0       ??_C@_0BL@LLKPOHJI@?$GAcopy?5constructor?5closure?8@ 0000000140044de0     libvcruntimed:undname.obj
 0002:00001e00       ??_C@_0BA@KBCDOMBN@?$GAudt?5returning?8@ 0000000140044e00     libvcruntimed:undname.obj
 0002:00001e10       ??_C@_03KLGMFNMG@?$GAEH@   0000000140044e10     libvcruntimed:undname.obj
 0002:00001e14       ??_C@_05KHLCHHI@?$GARTTI@  0000000140044e14     libvcruntimed:undname.obj
 0002:00001e20       ??_C@_0BA@KKLDJDLB@?$GAlocal?5vftable?8@ 0000000140044e20     libvcruntimed:undname.obj
 0002:00001e30       ??_C@_0CE@IIHCMGGL@?$GAlocal?5vftable?5constructor?5clos@ 0000000140044e30     libvcruntimed:undname.obj
 0002:00001e54       ??_C@_06FHBGPFGH@?5new?$FL?$FN@ 0000000140044e54     libvcruntimed:undname.obj
 0002:00001e60       ??_C@_09LBNFPBCA@?5delete?$FL?$FN@ 0000000140044e60     libvcruntimed:undname.obj
 0002:00001e70       ??_C@_0P@HJKNJFNN@?$GAomni?5callsig?8@ 0000000140044e70     libvcruntimed:undname.obj
 0002:00001e80       ??_C@_0BL@CNOONJFP@?$GAplacement?5delete?5closure?8@ 0000000140044e80     libvcruntimed:undname.obj
 0002:00001ea0       ??_C@_0BN@CKNJLHMB@?$GAplacement?5delete?$FL?$FN?5closure?8@ 0000000140044ea0     libvcruntimed:undname.obj
 0002:00001ec0       ??_C@_0CG@CFDHKGGD@?$GAmanaged?5vector?5constructor?5ite@ 0000000140044ec0     libvcruntimed:undname.obj
 0002:00001ee8       ??_C@_0CF@IMGKMJNO@?$GAmanaged?5vector?5destructor?5iter@ 0000000140044ee8     libvcruntimed:undname.obj
 0002:00001f10       ??_C@_0CG@HLDDJMAG@?$GAeh?5vector?5copy?5constructor?5ite@ 0000000140044f10     libvcruntimed:undname.obj
 0002:00001f38       ??_C@_0CM@FCBBDIGB@?$GAeh?5vector?5vbase?5copy?5construct@ 0000000140044f38     libvcruntimed:undname.obj
 0002:00001f68       ??_C@_0BL@CLIPGLGB@?$GAdynamic?5initializer?5for?5?8@ 0000000140044f68     libvcruntimed:undname.obj
 0002:00001f88       ??_C@_0CB@PDBIFEP@?$GAdynamic?5atexit?5destructor?5for?5@ 0000000140044f88     libvcruntimed:undname.obj
 0002:00001fb0       ??_C@_0CD@CGAJBKEJ@?$GAvector?5copy?5constructor?5iterat@ 0000000140044fb0     libvcruntimed:undname.obj
 0002:00001fd8       ??_C@_0CJ@GJELGAMM@?$GAvector?5vbase?5copy?5constructor?5@ 0000000140044fd8     libvcruntimed:undname.obj
 0002:00002008       ??_C@_0CL@FGIJHLCE@?$GAmanaged?5vector?5copy?5constructo@ 0000000140045008     libvcruntimed:undname.obj
 0002:00002038       ??_C@_0BM@PMGGMLDN@?$GAlocal?5static?5thread?5guard?8@ 0000000140045038     libvcruntimed:undname.obj
 0002:00002058       ??_C@_0N@BDNMDMOL@operator?5?$CC?$CC?5@ 0000000140045058     libvcruntimed:undname.obj
 0002:00002068       ??_C@_0BC@GGEBGALA@operator?5co_await@ 0000000140045068     libvcruntimed:undname.obj
 0002:00002080       ??_C@_0M@GAAIMMOH@operator?$DM?$DN?$DO@ 0000000140045080     libvcruntimed:undname.obj
 0002:00002090       ??_C@_0BC@DAFEJGAK@?5Type?5Descriptor?8@ 0000000140045090     libvcruntimed:undname.obj
 0002:000020a8       ??_C@_0BM@LDKODKLH@?5Base?5Class?5Descriptor?5at?5?$CI@ 00000001400450a8     libvcruntimed:undname.obj
 0002:000020c8       ??_C@_0BD@LGICGFMM@?5Base?5Class?5Array?8@ 00000001400450c8     libvcruntimed:undname.obj
 0002:000020e0       ??_C@_0BN@MECKDCOJ@?5Class?5Hierarchy?5Descriptor?8@ 00000001400450e0     libvcruntimed:undname.obj
 0002:00002100       ??_C@_0BK@CFCOFLF@?5Complete?5Object?5Locator?8@ 0000000140045100     libvcruntimed:undname.obj
 0002:00002120       ??_C@_0BG@JNJLAMPM@?$GAanonymous?5namespace?8@ 0000000140045120     libvcruntimed:undname.obj
 0002:00002138       ??_C@_02DKCKIIND@?$CFs@    0000000140045138     libvcruntimed:undname.obj
 0002:00002158       ??_C@_1DM@KHCHBNEB@?$AAa?$AAp?$AAi?$AA?9?$AAm?$AAs?$AA?9?$AAw?$AAi?$AAn?$AA?9?$AAc?$AAo?$AAr?$AAe@ 0000000140045158     libvcruntimed:winapi_downlevel.obj
 0002:00002198       ??_C@_1DK@LPPGFMPP@?$AAa?$AAp?$AAi?$AA?9?$AAm?$AAs?$AA?9?$AAw?$AAi?$AAn?$AA?9?$AAc?$AAo?$AAr?$AAe@ 0000000140045198     libvcruntimed:winapi_downlevel.obj
 0002:000021d8       ??_C@_1BC@GDMECMAK@?$AAk?$AAe?$AAr?$AAn?$AAe?$AAl?$AA3?$AA2@ 00000001400451d8     libvcruntimed:winapi_downlevel.obj
 0002:000021f0       ??_C@_17CNPHIMPH@?$AA?$CF?$AAl?$AAs@ 00000001400451f0     libvcruntimed:winapi_downlevel.obj
 0002:000021f8       ??_C@_1BA@PFFKHIOG@?$AAa?$AAp?$AAi?$AA?9?$AAm?$AAs?$AA?9@ 00000001400451f8     libvcruntimed:winapi_downlevel.obj
 0002:00002210       ??_C@_1EM@LBIFGLGH@?$AAc?$AAa?$AAc?$AAh?$AAe?$AAd?$AA_?$AAh?$AAa?$AAn?$AAd?$AAl?$AAe?$AA?5?$AA?$DN@ 0000000140045210     libvcruntimed:winapi_downlevel.obj
 0002:00002260       ??_C@_1JM@IIGHKMBB@?$AAD?$AA?3?$AA?2?$AAa?$AA0?$AA1?$AA?2?$AA_?$AAw?$AAo?$AAr?$AAk?$AA?2?$AA2?$AA6@ 0000000140045260     libvcruntimed:winapi_downlevel.obj
 0002:00002300       ??_C@_1DI@MAHEDLDB@?$AAc?$AAa?$AAc?$AAh?$AAe?$AAd?$AA_?$AAh?$AAa?$AAn?$AAd?$AAl?$AAe?$AA?5?$AA?$DN@ 0000000140045300     libvcruntimed:winapi_downlevel.obj
 0002:00002340       ??_C@_1FC@IBNCGNKL@?$AAc?$AAa?$AAc?$AAh?$AAe?$AAd?$AA_?$AAf?$AAp?$AA?5?$AA?$DN?$AA?$DN?$AA?5?$AAi?$AAn@ 0000000140045340     libvcruntimed:winapi_downlevel.obj
 0002:00002398       ??_C@_1CI@GDJBAGLP@?$AAc?$AAa?$AAc?$AAh?$AAe?$AAd?$AA_?$AAf?$AAp?$AA?5?$AA?$DN?$AA?$DN?$AA?5?$AAn?$AAe@ 0000000140045398     libvcruntimed:winapi_downlevel.obj
 0002:000023c8       ??_C@_08KNHFBNJ@FlsAlloc@  00000001400453c8     libvcruntimed:winapi_downlevel.obj
 0002:000023e0       ??_C@_07PEJMOBNF@FlsFree@  00000001400453e0     libvcruntimed:winapi_downlevel.obj
 0002:000023f0       ??_C@_0M@GDNOONDI@FlsGetValue@ 00000001400453f0     libvcruntimed:winapi_downlevel.obj
 0002:00002408       ??_C@_0M@JCPCPOEF@FlsSetValue@ 0000000140045408     libvcruntimed:winapi_downlevel.obj
 0002:00002420       ??_C@_0BM@HCFOFFN@InitializeCriticalSectionEx@ 0000000140045420     libvcruntimed:winapi_downlevel.obj
 0002:000024e0       ??_7exception@std@@6B@     00000001400454e0     libvcruntimed:frame.obj
 0002:000024f0       ??_C@_0BC@EOODALEL@Unknown?5exception@ 00000001400454f0     libvcruntimed:frame.obj
 0002:00002510       ??_7bad_exception@std@@6B@ 0000000140045510     libvcruntimed:frame.obj
 0002:00002520       ??_C@_0O@DPKOEFFH@bad?5exception@ 0000000140045520     libvcruntimed:frame.obj
 0002:00002530       ??_C@_1FK@OACNEHHA@?$AAt?$AAo?$AA?9?$AA?$DO?$AA_?$AAW?$AAh?$AAa?$AAt?$AA?5?$AA?$DN?$AA?$DN?$AA?5?$AAn?$AAu@ 0000000140045530     libvcruntimed:std_exception.obj
 0002:00002590       ??_C@_1IK@IGOMPBHH@?$AAD?$AA?3?$AA?2?$AAa?$AA0?$AA1?$AA?2?$AA_?$AAw?$AAo?$AAr?$AAk?$AA?2?$AA2?$AA6@ 0000000140045590     libvcruntimed:std_exception.obj
 0002:00002620       ??_C@_1FE@LHBLIKM@?$AAA?$AAs?$AAs?$AAe?$AAr?$AAt?$AAi?$AAo?$AAn?$AA?5?$AAf?$AAa?$AAi?$AAl?$AAe@ 0000000140045620     libucrtd:assert.obj
 0002:00002680       ??_C@_1EK@MBDPDCGA@?$AAM?$AAi?$AAc?$AAr?$AAo?$AAs?$AAo?$AAf?$AAt?$AA?5?$AAV?$AAi?$AAs?$AAu?$AAa@ 0000000140045680     libucrtd:assert.obj
 0002:000026d0       ??_C@_0BC@LAIDCHCH@Assertion?5failed?$CB@ 00000001400456d0     libucrtd:assert.obj
 0002:000026e8       ??_C@_1CE@OJBNHDMO@?$AAA?$AAs?$AAs?$AAe?$AAr?$AAt?$AAi?$AAo?$AAn?$AA?5?$AAf?$AAa?$AAi?$AAl?$AAe@ 00000001400456e8     libucrtd:assert.obj
 0002:00002710       ??_C@_1BE@PHKBBGE@?$AAP?$AAr?$AAo?$AAg?$AAr?$AAa?$AAm?$AA?3?$AA?5@ 0000000140045710     libucrtd:assert.obj
 0002:00002728       ??_C@_1O@HEMHKNDC@?$AAF?$AAi?$AAl?$AAe?$AA?3?$AA?5@ 0000000140045728     libucrtd:assert.obj
 0002:00002738       ??_C@_1O@KCAFKHJE@?$AAL?$AAi?$AAn?$AAe?$AA?3?$AA?5@ 0000000140045738     libucrtd:assert.obj
 0002:00002748       ??_C@_1BK@PEDCIPMA@?$AAE?$AAx?$AAp?$AAr?$AAe?$AAs?$AAs?$AAi?$AAo?$AAn?$AA?3?$AA?5@ 0000000140045748     libucrtd:assert.obj
 0002:00002770       ??_C@_1OA@EGMLFBHJ@?$AAF?$AAo?$AAr?$AA?5?$AAi?$AAn?$AAf?$AAo?$AAr?$AAm?$AAa?$AAt?$AAi?$AAo?$AAn@ 0000000140045770     libucrtd:assert.obj
 0002:00002850       ??_C@_1HK@POCJMFGK@?$AA?$CI?$AAP?$AAr?$AAe?$AAs?$AAs?$AA?5?$AAR?$AAe?$AAt?$AAr?$AAy?$AA?5?$AAt?$AAo@ 0000000140045850     libucrtd:assert.obj
 0002:000028d0       ??_C@_17LGKOMLJ@?$AA?4?$AA?4?$AA?4@ 00000001400458d0     libucrtd:assert.obj
 0002:000028d8       ??_C@_01EEMJAFIK@?6@       00000001400458d8     libucrtd:assert.obj
 0002:000028dc       ??_C@_13LBAGMAIH@?$AA?6@   00000001400458dc     libucrtd:assert.obj
 0002:000028e0       ??_C@_15IABLJNFO@?$AA?6?$AA?6@ 00000001400458e0     libucrtd:assert.obj
 0002:000028e8       ??_C@_0BH@DNAGHKFM@?$DMprogram?5name?5unknown?$DO@ 00000001400458e8     libucrtd:assert.obj
 0002:00002900       ??_C@_1CO@EAEJAADC@?$AA?$DM?$AAp?$AAr?$AAo?$AAg?$AAr?$AAa?$AAm?$AA?5?$AAn?$AAa?$AAm?$AAe?$AA?5?$AAu@ 0000000140045900     libucrtd:assert.obj
 0002:00002930       ??_C@_1GE@PMLOPPED@?$AAm?$AAi?$AAn?$AAk?$AAe?$AAr?$AAn?$AAe?$AAl?$AA?2?$AAc?$AAr?$AAt?$AAs?$AA?2@ 0000000140045930     libucrtd:assert.obj
 0002:000029a0       ??_C@_1FE@LPBNNEBB@?$AAc?$AAo?$AAm?$AAm?$AAo?$AAn?$AA_?$AAa?$AAs?$AAs?$AAe?$AAr?$AAt?$AA_?$AAt@ 00000001400459a0     libucrtd:assert.obj
 0002:00002a00       ??_C@_1KC@PIMENJIN@?$AAt?$AAr?$AAa?$AAi?$AAt?$AAs?$AA?3?$AA?3?$AAt?$AAc?$AAs?$AAc?$AAp?$AAy?$AA_@ 0000000140045a00     libucrtd:assert.obj
 0002:00002ab0       ??_C@_1KM@HGCBPADM@?$AAt?$AAr?$AAa?$AAi?$AAt?$AAs?$AA?3?$AA?3?$AAt?$AAc?$AAs?$AAc?$AAa?$AAt?$AA_@ 0000000140045ab0     libucrtd:assert.obj
 0002:00002b60       ??_C@_1KK@KDENILFB@?$AAt?$AAr?$AAa?$AAi?$AAt?$AAs?$AA?3?$AA?3?$AAt?$AAc?$AAs?$AAc?$AAa?$AAt?$AA_@ 0000000140045b60     libucrtd:assert.obj
 0002:00002c10       ??_C@_1PE@ECNALGCA@?$AAt?$AAr?$AAa?$AAi?$AAt?$AAs?$AA?3?$AA?3?$AAt?$AAc?$AAs?$AAc?$AAp?$AAy?$AA_@ 0000000140045c10     libucrtd:assert.obj
 0002:00002d10       ??_C@_1BCM@OLNPCNDL@?$AAm?$AAe?$AAm?$AAc?$AAp?$AAy?$AA_?$AAs?$AA?$CI?$AA?5?$AAp?$AAc?$AAh?$AAP?$AAr@ 0000000140045d10     libucrtd:assert.obj
 0002:00002e40       ??_C@_1HM@LGKHMJCC@?$AAt?$AAr?$AAa?$AAi?$AAt?$AAs?$AA?3?$AA?3?$AAt?$AAc?$AAs?$AAc?$AAa?$AAt?$AA_@ 0000000140045e40     libucrtd:assert.obj
 0002:00002ec0       ??_C@_1JO@KJEGDHLC@?$AAt?$AAr?$AAa?$AAi?$AAt?$AAs?$AA?3?$AA?3?$AAt?$AAc?$AAs?$AAc?$AAa?$AAt?$AA_@ 0000000140045ec0     libucrtd:assert.obj
 0002:00002f60       ??_C@_1KE@NJCNOBGA@?$AAt?$AAr?$AAa?$AAi?$AAt?$AAs?$AA?3?$AA?3?$AAt?$AAc?$AAs?$AAc?$AAa?$AAt?$AA_@ 0000000140045f60     libucrtd:assert.obj
 0002:00003010       ??_C@_1LC@HKLLCKBM@?$AAt?$AAr?$AAa?$AAi?$AAt?$AAs?$AA?3?$AA?3?$AAt?$AAc?$AAs?$AAn?$AAc?$AAa?$AAt@ 0000000140046010     libucrtd:assert.obj
 0002:000030d0       ??_C@_1KI@JBNHIIKF@?$AAt?$AAr?$AAa?$AAi?$AAt?$AAs?$AA?3?$AA?3?$AAt?$AAc?$AAs?$AAc?$AAa?$AAt?$AA_@ 00000001400460d0     libucrtd:assert.obj
 0002:00003180       ??_C@_1IK@KKBPPOFO@?$AAt?$AAr?$AAa?$AAi?$AAt?$AAs?$AA?3?$AA?3?$AAt?$AAc?$AAs?$AAc?$AAa?$AAt?$AA_@ 0000000140046180     libucrtd:assert.obj
 0002:00003210       ??_C@_1LO@BFIEBOKI@?$AAt?$AAr?$AAa?$AAi?$AAt?$AAs?$AA?3?$AA?3?$AAt?$AAc?$AAs?$AAn?$AAc?$AAa?$AAt@ 0000000140046210     libucrtd:assert.obj
 0002:000032d0       ??_C@_1KE@OEANDPDB@?$AAt?$AAr?$AAa?$AAi?$AAt?$AAs?$AA?3?$AA?3?$AAt?$AAc?$AAs?$AAn?$AAc?$AAa?$AAt@ 00000001400462d0     libucrtd:assert.obj
 0002:00003380       ??_C@_1LG@LMABGFBP@?$AAt?$AAr?$AAa?$AAi?$AAt?$AAs?$AA?3?$AA?3?$AAt?$AAc?$AAs?$AAc?$AAa?$AAt?$AA_@ 0000000140046380     libucrtd:assert.obj
 0002:00003440       ??_C@_1IA@JPAKIPAA@?$AAt?$AAr?$AAa?$AAi?$AAt?$AAs?$AA?3?$AA?3?$AAt?$AAc?$AAs?$AAc?$AAa?$AAt?$AA_@ 0000000140046440     libucrtd:assert.obj
 0002:000034c0       ??_C@_1KE@PADDJOL@?$AAt?$AAr?$AAa?$AAi?$AAt?$AAs?$AA?3?$AA?3?$AAt?$AAc?$AAs?$AAc?$AAa?$AAt?$AA_@ 00000001400464c0     libucrtd:assert.obj
 0002:00003570       ??_C@_1BAK@NPHNFBPH@?$AAt?$AAr?$AAa?$AAi?$AAt?$AAs?$AA?3?$AA?3?$AAi?$AAt?$AAo?$AAt?$AA_?$AAs?$AA?$CI@ 0000000140046570     libucrtd:assert.obj
 0002:00003680       ??_C@_1LA@JOKMAPHG@?$AAt?$AAr?$AAa?$AAi?$AAt?$AAs?$AA?3?$AA?3?$AAt?$AAc?$AAs?$AAc?$AAa?$AAt?$AA_@ 0000000140046680     libucrtd:assert.obj
 0002:00003730       ??_C@_1LA@IFFOJJCK@?$AAt?$AAr?$AAa?$AAi?$AAt?$AAs?$AA?3?$AA?3?$AAt?$AAc?$AAs?$AAn?$AAc?$AAa?$AAt@ 0000000140046730     libucrtd:assert.obj
 0002:000037e0       ??_C@_1KG@MFCBNPOK@?$AAt?$AAr?$AAa?$AAi?$AAt?$AAs?$AA?3?$AA?3?$AAt?$AAc?$AAs?$AAc?$AAa?$AAt?$AA_@ 00000001400467e0     libucrtd:assert.obj
 0002:00003890       ??_C@_1IC@EDHOAOJ@?$AAt?$AAr?$AAa?$AAi?$AAt?$AAs?$AA?3?$AA?3?$AAt?$AAc?$AAs?$AAc?$AAa?$AAt?$AA_@ 0000000140046890     libucrtd:assert.obj
 0002:00003920       ??_C@_1KE@NALOKOIG@?$AAt?$AAr?$AAa?$AAi?$AAt?$AAs?$AA?3?$AA?3?$AAt?$AAc?$AAs?$AAc?$AAa?$AAt?$AA_@ 0000000140046920     libucrtd:assert.obj
 0002:000039d0       ??_C@_1KE@GGOFBC@?$AAt?$AAr?$AAa?$AAi?$AAt?$AAs?$AA?3?$AA?3?$AAt?$AAc?$AAs?$AAc?$AAa?$AAt?$AA_@ 00000001400469d0     libucrtd:assert.obj
 0002:00003bb0       __acrt_exception_action_table 0000000140046bb0     libucrtd:exception_filter.obj
 0002:00003c70       __acrt_signal_action_table_count 0000000140046c70     libucrtd:exception_filter.obj
 0002:00003c78       __acrt_signal_action_first_fpe_index 0000000140046c78     libucrtd:exception_filter.obj
 0002:00003c80       __acrt_signal_action_fpe_count 0000000140046c80     libucrtd:exception_filter.obj
 0002:00003c90       ??_C@_1IC@DCNEKBE@?$AAm?$AAi?$AAn?$AAk?$AAe?$AAr?$AAn?$AAe?$AAl?$AA?2?$AAc?$AAr?$AAt?$AAs?$AA?2@ 0000000140046c90     libucrtd:report_runtime_error.obj
 0002:00003d18       ??_C@_1DI@BLFJHKKP@?$AA_?$AA_?$AAa?$AAc?$AAr?$AAt?$AA_?$AAr?$AAe?$AAp?$AAo?$AAr?$AAt?$AA_?$AAr@ 0000000140046d18     libucrtd:report_runtime_error.obj
 0002:00003d50       ??_C@_1LE@MHPGJGKE@?$AAw?$AAc?$AAs?$AAc?$AAp?$AAy?$AA_?$AAs?$AA?$CI?$AAo?$AAu?$AAt?$AAm?$AAs?$AAg@ 0000000140046d50     libucrtd:report_runtime_error.obj
 0002:00003e08       ??_C@_1DE@JNGNBFGO@?$AAR?$AAu?$AAn?$AAt?$AAi?$AAm?$AAe?$AA?5?$AAE?$AAr?$AAr?$AAo?$AAr?$AA?$CB?$AA?6@ 0000000140046e08     libucrtd:report_runtime_error.obj
 0002:00003e40       ??_C@_1HK@FJJNAABO@?$AAw?$AAc?$AAs?$AAc?$AAp?$AAy?$AA_?$AAs?$AA?$CI?$AAp?$AAr?$AAo?$AAg?$AAn?$AAa@ 0000000140046e40     libucrtd:report_runtime_error.obj
 0002:00003ec0       ??_C@_1HI@FLHKGEBE@?$AAw?$AAc?$AAs?$AAn?$AAc?$AAp?$AAy?$AA_?$AAs?$AA?$CI?$AAp?$AAc?$AAh?$AA?0?$AA?5@ 0000000140046ec0     libucrtd:report_runtime_error.obj
 0002:00003f40       ??_C@_1IG@MNNKBLBI@?$AAw?$AAc?$AAs?$AAc?$AAa?$AAt?$AA_?$AAs?$AA?$CI?$AAo?$AAu?$AAt?$AAm?$AAs?$AAg@ 0000000140046f40     libucrtd:report_runtime_error.obj
 0002:00003fd0       ??_C@_1IG@DFBBBDAN@?$AAw?$AAc?$AAs?$AAc?$AAa?$AAt?$AA_?$AAs?$AA?$CI?$AAo?$AAu?$AAt?$AAm?$AAs?$AAg@ 0000000140046fd0     libucrtd:report_runtime_error.obj
 0002:00004058       ??_C@_0DI@KNDIGDEP@minkernel?2crts?2ucrt?2src?2appcrt?2@ 0000000140047058     libucrtd:argv_parsing.obj
 0002:00004090       ??_C@_1JO@PGBIJBAM@?$AAm?$AAo?$AAd?$AAe?$AA?5?$AA?$DN?$AA?$DN?$AA?5?$AA_?$AAc?$AAr?$AAt?$AA_?$AAa?$AAr@ 0000000140047090     libucrtd:argv_parsing.obj
 0002:00004130       ??_C@_1HA@JMLCANEE@?$AAm?$AAi?$AAn?$AAk?$AAe?$AAr?$AAn?$AAe?$AAl?$AA?2?$AAc?$AAr?$AAt?$AAs?$AA?2@ 0000000140047130     libucrtd:argv_parsing.obj
 0002:000041a0       ??_C@_1CM@LHOJELIC@?$AAc?$AAo?$AAm?$AAm?$AAo?$AAn?$AA_?$AAc?$AAo?$AAn?$AAf?$AAi?$AAg?$AAu?$AAr@ 00000001400471a0     libucrtd:argv_parsing.obj
 0002:000041d0       ??_C@_0EG@LEHKHOEH@minkernel?2crts?2ucrt?2src?2desktop@ 00000001400471d0     libucrtd:environment_initialization.obj
 0002:00004220       ??_C@_1IM@IMOFFPLG@?$AAm?$AAi?$AAn?$AAk?$AAe?$AAr?$AAn?$AAe?$AAl?$AA?2?$AAc?$AAr?$AAt?$AAs?$AA?2@ 0000000140047220     libucrtd:environment_initialization.obj
 0002:000042b0       ??_C@_1CG@MNNNBNAK@?$AAc?$AAr?$AAe?$AAa?$AAt?$AAe?$AA_?$AAe?$AAn?$AAv?$AAi?$AAr?$AAo?$AAn?$AAm@ 00000001400472b0     libucrtd:environment_initialization.obj
 0002:000042e0       ??_C@_1HI@OOPIFFGA@?$AAt?$AAr?$AAa?$AAi?$AAt?$AAs?$AA?3?$AA?3?$AAt?$AAc?$AAs?$AAc?$AAp?$AAy?$AA_@ 00000001400472e0     libucrtd:environment_initialization.obj
 0002:00004358       ??_C@_1BI@BGOHAHKC@?$AAm?$AAs?$AAc?$AAo?$AAr?$AAe?$AAe?$AA?4?$AAd?$AAl?$AAl@ 0000000140047358     libucrtd:exit.obj
 0002:00004370       ??_C@_0P@MIGLKIOC@CorExitProcess@ 0000000140047370     libucrtd:exit.obj
 0002:00004380       ??_C@_1GC@CIJNGKLD@?$AAm?$AAi?$AAn?$AAk?$AAe?$AAr?$AAn?$AAe?$AAl?$AA?2?$AAc?$AAr?$AAt?$AAs?$AA?2@ 0000000140047380     libucrtd:setmode.obj
 0002:000043f0       ??_C@_1FO@LPCLHKGE@?$AA?$CI?$AAf?$AAh?$AA?5?$AA?$DO?$AA?$DN?$AA?5?$AA0?$AA?5?$AA?$CG?$AA?$CG?$AA?5?$AA?$CI?$AAu?$AAn@ 00000001400473f0     libucrtd:setmode.obj
 0002:00004450       ??_C@_1CM@OKGMMMDH@?$AA?$CI?$AA_?$AAo?$AAs?$AAf?$AAi?$AAl?$AAe?$AA?$CI?$AAf?$AAh?$AA?$CJ?$AA?5?$AA?$CG?$AA?5@ 0000000140047450     libucrtd:setmode.obj
 0002:00004480       ??_C@_1JE@ECKHFIFP@?$AA?$CI?$AA?$CC?$AAI?$AAn?$AAv?$AAa?$AAl?$AAi?$AAd?$AA?5?$AAf?$AAi?$AAl?$AAe?$AA?5@ 0000000140047480     libucrtd:setmode.obj
 0002:00004520       ??_C@_1HC@GNDCDMJL@?$AAm?$AAo?$AAd?$AAe?$AA?5?$AA?$DN?$AA?$DN?$AA?5?$AA_?$AAO?$AA_?$AAT?$AAE?$AAX?$AAT@ 0000000140047520     libucrtd:setmode.obj
 0002:00004598       ??_C@_1BG@IEEHLOCL@?$AA_?$AAs?$AAe?$AAt?$AA_?$AAf?$AAm?$AAo?$AAd?$AAe@ 0000000140047598     libucrtd:setmode.obj
 0002:000045b0       ??_C@_1GA@LDEGDKD@?$AA?$CI?$AA?$CC?$AAI?$AAn?$AAv?$AAa?$AAl?$AAi?$AAd?$AA?5?$AAp?$AAa?$AAr?$AAa?$AAm@ 00000001400475b0     libucrtd:wsetlocale.obj
 0002:00004610       ??_C@_1GK@DPKNLBIE@?$AAm?$AAi?$AAn?$AAk?$AAe?$AAr?$AAn?$AAe?$AAl?$AA?2?$AAc?$AAr?$AAt?$AAs?$AA?2@ 0000000140047610     libucrtd:wsetlocale.obj
 0002:00004680       ??_C@_1CI@FGIONOJM@?$AA_?$AAc?$AAo?$AAn?$AAf?$AAi?$AAg?$AAt?$AAh?$AAr?$AAe?$AAa?$AAd?$AAl?$AAo@ 0000000140047680     libucrtd:wsetlocale.obj
 0002:000046a8       ??_C@_1CO@JKFLNGDK@?$AAm?$AAo?$AAd?$AAe?$AA?5?$AA?$DN?$AA?$DN?$AA?5?$AA0?$AA?5?$AA?$HM?$AA?$HM?$AA?5?$AAm?$AAo@ 00000001400476a8     libucrtd:new_mode.obj
 0002:000046e0       ??_C@_1GC@PJMKBHEK@?$AAm?$AAi?$AAn?$AAk?$AAe?$AAr?$AAn?$AAe?$AAl?$AA?2?$AAc?$AAr?$AAt?$AAs?$AA?2@ 00000001400476e0     libucrtd:new_mode.obj
 0002:00004748       ??_C@_1BM@PDPAKJNF@?$AA_?$AAs?$AAe?$AAt?$AA_?$AAn?$AAe?$AAw?$AA_?$AAm?$AAo?$AAd?$AAe@ 0000000140047748     libucrtd:new_mode.obj
 0002:00004790       ??_C@_0DC@NBHMIIKL@minkernel?2crts?2ucrt?2src?2appcrt?2@ 0000000140047790     libucrtd:onexit.obj
 0002:000048f8       ??_C@_04HJMOFLDF@Free@     00000001400478f8     libucrtd:debug_heap.obj
 0002:00004900       ??_C@_06EFAGIKOH@Normal@   0000000140047900     libucrtd:debug_heap.obj
 0002:00004908       ??_C@_03OGPFLFLO@CRT@      0000000140047908     libucrtd:debug_heap.obj
 0002:0000490c       ??_C@_06KMEJCCGM@Ignore@   000000014004790c     libucrtd:debug_heap.obj
 0002:00004914       ??_C@_06PJIGMIJB@Client@   0000000140047914     libucrtd:debug_heap.obj
 0002:00004920       ??_C@_1CE@LJFEPPMP@?$AA_?$AAC?$AAr?$AAt?$AAC?$AAh?$AAe?$AAc?$AAk?$AAM?$AAe?$AAm?$AAo?$AAr?$AAy@ 0000000140047920     libucrtd:debug_heap.obj
 0002:00004950       ??_C@_1GG@OCLHPJPK@?$AAm?$AAi?$AAn?$AAk?$AAe?$AAr?$AAn?$AAe?$AAl?$AA?2?$AAc?$AAr?$AAt?$AAs?$AA?2@ 0000000140047950     libucrtd:debug_heap.obj
 0002:000049b8       ??_C@_0DF@BBEGIFEK@Client?5hook?5allocation?5failure?5@ 00000001400479b8     libucrtd:debug_heap.obj
 0002:000049f0       ??_C@_0CB@CCLOLAHO@Client?5hook?5allocation?5failure?4@ 00000001400479f0     libucrtd:debug_heap.obj
 0002:00004a18       ??_C@_0DC@JEMAGEKG@Error?3?5memory?5allocation?3?5bad?5m@ 0000000140047a18     libucrtd:debug_heap.obj
 0002:00004a50       ??_C@_0DI@KKJPDPGM@Client?5hook?5re?9allocation?5failu@ 0000000140047a50     libucrtd:debug_heap.obj
 0002:00004a88       ??_C@_0CE@DOFMDOL@Client?5hook?5re?9allocation?5failu@ 0000000140047a88     libucrtd:debug_heap.obj
 0002:00004ab0       ??_C@_0FA@EFEIGJKG@Error?3?5memory?5allocation?3?5bad?5m@ 0000000140047ab0     libucrtd:debug_heap.obj
 0002:00004b00       ??_C@_0EM@LGFLMAGJ@The?5Block?5at?50x?$CFp?5was?5allocated@ 0000000140047b00     libucrtd:debug_heap.obj
 0002:00004b50       ??_C@_1DM@DEDLGNML@?$AA_?$AAC?$AAr?$AAt?$AAI?$AAs?$AAV?$AAa?$AAl?$AAi?$AAd?$AAH?$AAe?$AAa?$AAp@ 0000000140047b50     libucrtd:debug_heap.obj
 0002:00004b90       ??_C@_1PC@MCGKJLN@?$AAo?$AAl?$AAd?$AA_?$AAh?$AAe?$AAa?$AAd?$AA?9?$AA?$DO?$AA_?$AAl?$AAi?$AAn?$AAe@ 0000000140047b90     libucrtd:debug_heap.obj
 0002:00004c88       ??_C@_0DA@HFBKENN@Error?3?5possible?5heap?5corruption@ 0000000140047c88     libucrtd:debug_heap.obj
 0002:00004cc0       ??_C@_1JM@MCMEPJEP@?$AAr?$AAe?$AAa?$AAl?$AAl?$AAo?$AAc?$AAa?$AAt?$AAi?$AAo?$AAn?$AA_?$AAi?$AAs@ 0000000140047cc0     libucrtd:debug_heap.obj
 0002:00004d60       ??_C@_1DM@LNOPKAIJ@?$AA_?$AA_?$AAa?$AAc?$AAr?$AAt?$AA_?$AAl?$AAa?$AAs?$AAt?$AA_?$AAb?$AAl?$AAo@ 0000000140047d60     libucrtd:debug_heap.obj
 0002:00004da0       ??_C@_1DO@HABCJBHO@?$AA_?$AA_?$AAa?$AAc?$AAr?$AAt?$AA_?$AAf?$AAi?$AAr?$AAs?$AAt?$AA_?$AAb?$AAl@ 0000000140047da0     libucrtd:debug_heap.obj
 0002:00004de0       ??_C@_1CC@CKEAHJPH@?$AAb?$AAl?$AAo?$AAc?$AAk?$AA?5?$AA?$CB?$AA?$DN?$AA?5?$AAn?$AAu?$AAl?$AAl?$AAp?$AAt@ 0000000140047de0     libucrtd:debug_heap.obj
 0002:00004e10       ??_C@_0EJ@HEIBCIMJ@The?5Block?5at?50x?$CFp?5was?5allocated@ 0000000140047e10     libucrtd:debug_heap.obj
 0002:00004e60       ??_C@_0BL@KEIPLFAC@Client?5hook?5free?5failure?4?6@ 0000000140047e60     libucrtd:debug_heap.obj
 0002:00004e80       ??_C@_1FA@KDNEBILF@?$AAi?$AAs?$AA_?$AAb?$AAl?$AAo?$AAc?$AAk?$AA_?$AAt?$AAy?$AAp?$AAe?$AA_?$AAv@ 0000000140047e80     libucrtd:debug_heap.obj
 0002:00004ed0       ??_C@_0KI@JGFOHMEB@HEAP?5CORRUPTION?5DETECTED?3?5befor@ 0000000140047ed0     libucrtd:debug_heap.obj
 0002:00004f80       ??_C@_0IK@PJCGLBOB@HEAP?5CORRUPTION?5DETECTED?3?5befor@ 0000000140047f80     libucrtd:debug_heap.obj
 0002:00005010       ??_C@_0KE@MBMNHHHN@HEAP?5CORRUPTION?5DETECTED?3?5after@ 0000000140048010     libucrtd:debug_heap.obj
 0002:000050c0       ??_C@_0IG@LEMBDCJK@HEAP?5CORRUPTION?5DETECTED?3?5after@ 00000001400480c0     libucrtd:debug_heap.obj
 0002:00005150       ??_C@_1OK@GFEOEJAF@?$AAh?$AAe?$AAa?$AAd?$AAe?$AAr?$AA?9?$AA?$DO?$AA_?$AAl?$AAi?$AAn?$AAe?$AA_?$AAn@ 0000000140048150     libucrtd:debug_heap.obj
 0002:00005240       ??_C@_1ME@GFALMLNA@?$AAh?$AAe?$AAa?$AAd?$AAe?$AAr?$AA?9?$AA?$DO?$AA_?$AAb?$AAl?$AAo?$AAc?$AAk?$AA_@ 0000000140048240     libucrtd:debug_heap.obj
 0002:00005308       ??_C@_1DI@ILNOPEPI@?$AA_?$AA_?$AAa?$AAc?$AAr?$AAt?$AA_?$AAl?$AAa?$AAs?$AAt?$AA_?$AAb?$AAl?$AAo@ 0000000140048308     libucrtd:debug_heap.obj
 0002:00005340       ??_C@_1DK@KEHFGDIJ@?$AA_?$AA_?$AAa?$AAc?$AAr?$AAt?$AA_?$AAf?$AAi?$AAr?$AAs?$AAt?$AA_?$AAb?$AAl@ 0000000140048340     libucrtd:debug_heap.obj
 0002:00005380       ??_C@_1BG@MBKOGDLD@?$AA_?$AAm?$AAs?$AAi?$AAz?$AAe?$AA_?$AAd?$AAb?$AAg@ 0000000140048380     libucrtd:debug_heap.obj
 0002:00005398       ??_C@_07OHKEFPKJ@DAMAGED@  0000000140048398     libucrtd:debug_heap.obj
 0002:000053a0       ??_C@_0KA@IHNJJKPL@HEAP?5CORRUPTION?5DETECTED?3?5on?5to@ 00000001400483a0     libucrtd:debug_heap.obj
 0002:00005440       ??_C@_0IC@BBJIOOJH@HEAP?5CORRUPTION?5DETECTED?3?5on?5to@ 0000000140048440     libucrtd:debug_heap.obj
 0002:000054d0       ??_C@_0EG@DGJMPDBH@?$CFhs?5located?5at?50x?$CFp?5is?5?$CFIu?5byte@ 00000001400484d0     libucrtd:debug_heap.obj
 0002:00005518       ??_C@_0CI@JMLBEDHJ@?$CFhs?5located?5at?50x?$CFp?5is?5?$CFIu?5byte@ 0000000140048518     libucrtd:debug_heap.obj
 0002:00005540       ??_C@_0EG@GPFHANHO@Cycle?5in?5block?5list?5detected?5wh@ 0000000140048540     libucrtd:debug_heap.obj
 0002:00005588       ??_C@_0BJ@ELMAOCAJ@Heap?5validation?5failed?4?6@ 0000000140048588     libucrtd:debug_heap.obj
 0002:000055b0       ??_C@_1IE@BBIFDGEB@?$AAn?$AAe?$AAw?$AA_?$AAb?$AAi?$AAt?$AAs?$AA?5?$AA?$DN?$AA?$DN?$AA?5?$AA_?$AAC?$AAR@ 00000001400485b0     libucrtd:debug_heap.obj
 0002:00005638       ??_C@_1BO@GJFDNMNF@?$AA_?$AAC?$AAr?$AAt?$AAS?$AAe?$AAt?$AAD?$AAb?$AAg?$AAF?$AAl?$AAa?$AAg@ 0000000140048638     libucrtd:debug_heap.obj
 0002:00005658       ??_C@_1CC@BBKMONGA@?$AAs?$AAt?$AAa?$AAt?$AAe?$AA?5?$AA?$CB?$AA?$DN?$AA?5?$AAn?$AAu?$AAl?$AAl?$AAp?$AAt@ 0000000140048658     libucrtd:debug_heap.obj
 0002:00005680       ??_C@_1CE@NJJKELF@?$AA_?$AAC?$AAr?$AAt?$AAM?$AAe?$AAm?$AAC?$AAh?$AAe?$AAc?$AAk?$AAp?$AAo?$AAi@ 0000000140048680     libucrtd:debug_heap.obj
 0002:000056a8       ??_C@_0DP@LEFMFBOD@Bad?5memory?5block?5found?5at?50x?$CFp?4@ 00000001400486a8     libucrtd:debug_heap.obj
 0002:000056e8       ??_C@_0CB@EAAIGELO@Bad?5memory?5block?5found?5at?50x?$CFp?4@ 00000001400486e8     libucrtd:debug_heap.obj
 0002:0000570c       ??_C@_05MKKEDADM@?$CF?42X?5@ 000000014004870c     libucrtd:debug_heap.obj
 0002:00005718       ??_C@_1CC@DIJAHFFJ@?$AAp?$AAr?$AAi?$AAn?$AAt?$AA_?$AAb?$AAl?$AAo?$AAc?$AAk?$AA_?$AAd?$AAa?$AAt@ 0000000140048718     libucrtd:debug_heap.obj
 0002:00005740       ??_C@_1BI@KALLJECN@?$AA?$CI?$AA?$CK?$AA_?$AAe?$AAr?$AAr?$AAn?$AAo?$AA?$CI?$AA?$CJ?$AA?$CJ@ 0000000140048740     libucrtd:debug_heap.obj
 0002:00005758       ??_C@_0BA@HJBKCELP@?5Data?3?5?$DM?$CFs?$DO?5?$CFs?6@ 0000000140048758     libucrtd:debug_heap.obj
 0002:00005768       ??_C@_0BE@KCIPKCIA@Dumping?5objects?5?9?$DO?6@ 0000000140048768     libucrtd:debug_heap.obj
 0002:00005780       ??_C@_0BE@OIEFNFL@?$CDFile?5Error?$CD?$CI?$CFd?$CJ?5?3?5@ 0000000140048780     libucrtd:debug_heap.obj
 0002:00005798       ??_C@_0L@JMEFFCCJ@?$CFhs?$CI?$CFd?$CJ?5?3?5@ 0000000140048798     libucrtd:debug_heap.obj
 0002:000057a4       ??_C@_06PKLGBFGM@?$HL?$CFld?$HN?5@ 00000001400487a4     libucrtd:debug_heap.obj
 0002:000057b0       ??_C@_0DD@GHNAAKBB@client?5block?5at?50x?$CFp?0?5subtype?5?$CF@ 00000001400487b0     libucrtd:debug_heap.obj
 0002:000057e8       ??_C@_0CH@FAGDDGPN@normal?5block?5at?50x?$CFp?0?5?$CFIu?5bytes@ 00000001400487e8     libucrtd:debug_heap.obj
 0002:00005810       ??_C@_0DA@MDLBNIBM@crt?5block?5at?50x?$CFp?0?5subtype?5?$CFx?0?5@ 0000000140048810     libucrtd:debug_heap.obj
 0002:00005840       ??_C@_0BH@GFGKJDCO@Object?5dump?5complete?4?6@ 0000000140048840     libucrtd:debug_heap.obj
 0002:00005858       ??_C@_0BI@JBFPOEJA@Detected?5memory?5leaks?$CB?6@ 0000000140048858     libucrtd:debug_heap.obj
 0002:00005870       ??_C@_1GI@BBAEIKL@?$AA?$CI?$AA?$CI?$AAd?$AAe?$AAs?$AAt?$AAi?$AAn?$AAa?$AAt?$AAi?$AAo?$AAn?$AA?$CJ?$AA?$CJ@ 0000000140048870     libucrtd:strcpy_s.obj
 0002:000058e0       ??_C@_1HI@PBJPCEBC@?$AAm?$AAi?$AAn?$AAk?$AAe?$AAr?$AAn?$AAe?$AAl?$AA?2?$AAc?$AAr?$AAt?$AAs?$AA?2@ 00000001400488e0     libucrtd:strcpy_s.obj
 0002:00005958       ??_C@_1CA@FHIAGDFH@?$AAc?$AAo?$AAm?$AAm?$AAo?$AAn?$AA_?$AAt?$AAc?$AAs?$AAc?$AAp?$AAy?$AA_?$AAs@ 0000000140048958     libucrtd:strcpy_s.obj
 0002:00005978       ??_C@_1CK@EIOKGPJL@?$AA?$CI?$AA?$CI?$AA?$CI?$AAs?$AAo?$AAu?$AAr?$AAc?$AAe?$AA?$CJ?$AA?$CJ?$AA?$CJ?$AA?5?$AA?$CB?$AA?$DN@ 0000000140048978     libucrtd:strcpy_s.obj
 0002:000059a8       ??_C@_1CI@HCPHDDLE@?$AAB?$AAu?$AAf?$AAf?$AAe?$AAr?$AA?5?$AAi?$AAs?$AA?5?$AAt?$AAo?$AAo?$AA?5?$AAs@ 00000001400489a8     libucrtd:strcpy_s.obj
 0002:000059d0       ??_C@_1DM@MADKGDLO@?$AA?$CI?$AAL?$AA?$CC?$AAB?$AAu?$AAf?$AAf?$AAe?$AAr?$AA?5?$AAi?$AAs?$AA?5?$AAt?$AAo@ 00000001400489d0     libucrtd:strcpy_s.obj
 0002:00005a10       ??_C@_1DA@LLLMNMKI@?$AAa?$AAb?$AAo?$AAr?$AAt?$AA?$CI?$AA?$CJ?$AA?5?$AAh?$AAa?$AAs?$AA?5?$AAb?$AAe?$AAe@ 0000000140048a10     libucrtd:abort.obj
 0002:00005a40       ?standard_lookup_table_spectre@__crt_stdio_output@@3V?$spectre_mitigated_lookup_table@Ustate_transition_pair@__crt_stdio_output@@$0IA@@1@B 0000000140048a40     libucrtd:output.obj
 0002:00005e40       ?format_validation_lookup_table_spectre@__crt_stdio_output@@3V?$spectre_mitigated_lookup_table@Ustate_transition_pair@__crt_stdio_output@@$0IA@@1@B 0000000140048e40     libucrtd:output.obj
 0002:00006240       ??_C@_1CE@JLIJLEKO@?$AAs?$AAt?$AAr?$AAe?$AAa?$AAm?$AA?5?$AA?$CB?$AA?$DN?$AA?5?$AAn?$AAu?$AAl?$AAl?$AAp@ 0000000140049240     libucrtd:output.obj
 0002:00006270       ??_C@_1GA@MOBAPGIO@?$AAm?$AAi?$AAn?$AAk?$AAe?$AAr?$AAn?$AAe?$AAl?$AA?2?$AAc?$AAr?$AAt?$AAs?$AA?2@ 0000000140049270     libucrtd:output.obj
 0002:000062d0       ??_C@_1CA@GELIJBMC@?$AAc?$AAo?$AAm?$AAm?$AAo?$AAn?$AA_?$AAv?$AAf?$AAp?$AAr?$AAi?$AAn?$AAt?$AAf@ 00000001400492d0     libucrtd:output.obj
 0002:000062f0       ??_C@_1CE@EAKLPBKK@?$AAf?$AAo?$AAr?$AAm?$AAa?$AAt?$AA?5?$AA?$CB?$AA?$DN?$AA?5?$AAn?$AAu?$AAl?$AAl?$AAp@ 00000001400492f0     libucrtd:output.obj
 0002:00006318       ??_C@_1CA@PIMGHCEK@?$AAc?$AAo?$AAm?$AAm?$AAo?$AAn?$AA_?$AAv?$AAs?$AAp?$AAr?$AAi?$AAn?$AAt?$AAf@ 0000000140049318     libucrtd:output.obj
 0002:00006340       ??_C@_1EO@EGEEFEFM@?$AAb?$AAu?$AAf?$AAf?$AAe?$AAr?$AA_?$AAc?$AAo?$AAu?$AAn?$AAt?$AA?5?$AA?$DN?$AA?$DN@ 0000000140049340     libucrtd:output.obj
 0002:00006390       ??_C@_1CE@JEILLNB@?$AAc?$AAo?$AAm?$AAm?$AAo?$AAn?$AA_?$AAv?$AAs?$AAp?$AAr?$AAi?$AAn?$AAt?$AAf@ 0000000140049390     libucrtd:output.obj
 0002:000063c0       ??_C@_1EM@OAFHAOLH@?$AAb?$AAu?$AAf?$AAf?$AAe?$AAr?$AA?5?$AA?$CB?$AA?$DN?$AA?5?$AAn?$AAu?$AAl?$AAl?$AAp@ 00000001400493c0     libucrtd:output.obj
 0002:00006410       ??_C@_1DA@HPBFKMEB@?$AA?$CI?$AA?$CC?$AAB?$AAu?$AAf?$AAf?$AAe?$AAr?$AA?5?$AAt?$AAo?$AAo?$AA?5?$AAs?$AAm@ 0000000140049410     libucrtd:output.obj
 0002:00006440       ??_C@_1CG@LHFJHFBB@?$AAc?$AAo?$AAm?$AAm?$AAo?$AAn?$AA_?$AAv?$AAs?$AAn?$AAp?$AAr?$AAi?$AAn?$AAt@ 0000000140049440     libucrtd:output.obj
 0002:00006468       ??_C@_1CM@JOIJBMEM@?$AA_?$AAf?$AAo?$AAr?$AAm?$AAa?$AAt?$AA_?$AAi?$AAt?$AA?5?$AA?$CB?$AA?$DN?$AA?5?$AAn@ 0000000140049468     libucrtd:output.obj
 0002:000064a0       ??_C@_1HA@DMAAKIJP@?$AAm?$AAi?$AAn?$AAk?$AAe?$AAr?$AAn?$AAe?$AAl?$AA?2?$AAc?$AAr?$AAt?$AAs?$AA?2@ 00000001400494a0     libucrtd:output.obj
 0002:00006510       ??_C@_1EE@DMAIGNBG@?$AA?$CI?$AA?$CC?$AAI?$AAn?$AAc?$AAo?$AAr?$AAr?$AAe?$AAc?$AAt?$AA?5?$AAf?$AAo?$AAr@ 0000000140049510     libucrtd:output.obj
 0002:00006560       ??_C@_1BLI@IKDKMDHI@?$AA_?$AA_?$AAc?$AAr?$AAt?$AA_?$AAs?$AAt?$AAd?$AAi?$AAo?$AA_?$AAo?$AAu?$AAt@ 0000000140049560     libucrtd:output.obj
 0002:00006720       ??_C@_1BLI@EEAAPJD@?$AA_?$AA_?$AAc?$AAr?$AAt?$AA_?$AAs?$AAt?$AAd?$AAi?$AAo?$AA_?$AAo?$AAu?$AAt@ 0000000140049720     libucrtd:output.obj
 0002:000068e0       ??_C@_1FG@OBJBDPAC@?$AA?$CI?$AA?$CC?$AAN?$AA?5?$AAl?$AAe?$AAn?$AAg?$AAt?$AAh?$AA?5?$AAm?$AAo?$AAd?$AAi@ 00000001400498e0     libucrtd:output.obj
 0002:00006940       ??_C@_1EC@GJPNJDCN@?$AA_?$AAl?$AAe?$AAn?$AAg?$AAt?$AAh?$AA?5?$AA?$DN?$AA?$DN?$AA?5?$AAl?$AAe?$AAn?$AAg@ 0000000140049940     libucrtd:output.obj
 0002:00006988       ??_C@_1DG@CEJKFDMO@?$AAs?$AAt?$AAa?$AAt?$AAe?$AA_?$AAc?$AAa?$AAs?$AAe?$AA_?$AAn?$AAo?$AAr?$AAm@ 0000000140049988     libucrtd:output.obj
 0002:000069c0       ??_C@_1BMI@KBPJOJJI@?$AA_?$AA_?$AAc?$AAr?$AAt?$AA_?$AAs?$AAt?$AAd?$AAi?$AAo?$AA_?$AAo?$AAu?$AAt@ 00000001400499c0     libucrtd:output.obj
 0002:00006b90       ??_C@_1BMM@PGHHMNDM@?$AA_?$AA_?$AAc?$AAr?$AAt?$AA_?$AAs?$AAt?$AAd?$AAi?$AAo?$AA_?$AAo?$AAu?$AAt@ 0000000140049b90     libucrtd:output.obj
 0002:00006d60       ??_C@_1CI@DDKMNCPP@?$AA_?$AAc?$AAo?$AAn?$AAt?$AAe?$AAx?$AAt?$AA?5?$AA?$CB?$AA?$DN?$AA?5?$AAn?$AAu?$AAl@ 0000000140049d60     libucrtd:output.obj
 0002:00006d90       ??_C@_1HK@IIPGOADH@?$AA_?$AA_?$AAc?$AAr?$AAt?$AA_?$AAs?$AAt?$AAd?$AAi?$AAo?$AA_?$AAo?$AAu?$AAt@ 0000000140049d90     libucrtd:output.obj
 0002:00006e10       ??_C@_1HE@IACOMEJF@?$AA_?$AA_?$AAc?$AAr?$AAt?$AA_?$AAs?$AAt?$AAd?$AAi?$AAo?$AA_?$AAo?$AAu?$AAt@ 0000000140049e10     libucrtd:output.obj
 0002:00006e90       ??_C@_1GC@BNMHNGKM@?$AA_?$AAs?$AAt?$AAa?$AAt?$AAe?$AA?5?$AA?$DN?$AA?$DN?$AA?5?$AAs?$AAt?$AAa?$AAt?$AAe@ 0000000140049e90     libucrtd:output.obj
 0002:00006f00       ??_C@_1BMI@DNMDMAAN@?$AA_?$AA_?$AAc?$AAr?$AAt?$AA_?$AAs?$AAt?$AAd?$AAi?$AAo?$AA_?$AAo?$AAu?$AAt@ 0000000140049f00     libucrtd:output.obj
 0002:000070d0       ??_C@_1BMM@JHGFKAND@?$AA_?$AA_?$AAc?$AAr?$AAt?$AA_?$AAs?$AAt?$AAd?$AAi?$AAo?$AA_?$AAo?$AAu?$AAt@ 000000014004a0d0     libucrtd:output.obj
 0002:000072a0       ??_C@_1CA@ONEGMNAN@?$AA_?$AAs?$AAt?$AAr?$AAe?$AAa?$AAm?$AA?4?$AAv?$AAa?$AAl?$AAi?$AAd?$AA?$CI?$AA?$CJ@ 000000014004a2a0     libucrtd:output.obj
 0002:000072c0       ??_C@_1HK@MPBCDOK@?$AA_?$AA_?$AAc?$AAr?$AAt?$AA_?$AAs?$AAt?$AAd?$AAi?$AAo?$AA_?$AAo?$AAu?$AAt@ 000000014004a2c0     libucrtd:output.obj
 0002:00007340       ??_C@_1BEC@NDOOKIMC@?$AA_?$AA_?$AAc?$AAr?$AAt?$AA_?$AAs?$AAt?$AAd?$AAi?$AAo?$AA_?$AAo?$AAu?$AAt@ 000000014004a340     libucrtd:output.obj
 0002:00007490       ??_C@_1EK@PNGFDECN@?$AA?$CI?$AA?$CC?$AA?8?$AAn?$AA?8?$AA?5?$AAf?$AAo?$AAr?$AAm?$AAa?$AAt?$AA?5?$AAs?$AAp@ 000000014004a490     libucrtd:output.obj
 0002:000074e0       ??_C@_1EO@GHKFGFKL@?$AA?$CI?$AA?$CC?$AAI?$AAn?$AAv?$AAa?$AAl?$AAi?$AAd?$AA?5?$AAi?$AAn?$AAt?$AAe?$AAg@ 000000014004a4e0     libucrtd:output.obj
 0002:00007530       ??_C@_1BDG@KOLEFKPF@?$AA_?$AA_?$AAc?$AAr?$AAt?$AA_?$AAs?$AAt?$AAd?$AAi?$AAo?$AA_?$AAo?$AAu?$AAt@ 000000014004a530     libucrtd:output.obj
 0002:00007670       ??_C@_1BMA@IHIBOLMD@?$AA_?$AA_?$AAc?$AAr?$AAt?$AA_?$AAs?$AAt?$AAd?$AAi?$AAo?$AA_?$AAo?$AAu?$AAt@ 000000014004a670     libucrtd:output.obj
 0002:00007830       ??_C@_1BMA@PGOJAHFP@?$AA_?$AA_?$AAc?$AAr?$AAt?$AA_?$AAs?$AAt?$AAd?$AAi?$AAo?$AA_?$AAo?$AAu?$AAt@ 000000014004a830     libucrtd:output.obj
 0002:000079f0       ??_C@_1O@CEDCILHN@?$AA?$CI?$AAn?$AAu?$AAl?$AAl?$AA?$CJ@ 000000014004a9f0     libucrtd:output.obj
 0002:00007a00       ??_C@_06OJHGLDPL@?$CInull?$CJ@ 000000014004aa00     libucrtd:output.obj
 0002:00007a08       ??_C@_1CK@LGDCECDH@?$AA_?$AAf?$AAo?$AAr?$AAm?$AAa?$AAt?$AA_?$AAc?$AAh?$AAa?$AAr?$AA?5?$AA?$CB?$AA?$DN@ 000000014004aa08     libucrtd:output.obj
 0002:00007a40       ??_C@_1BMM@MBMBCJIF@?$AA_?$AA_?$AAc?$AAr?$AAt?$AA_?$AAs?$AAt?$AAd?$AAi?$AAo?$AA_?$AAo?$AAu?$AAt@ 000000014004aa40     libucrtd:output.obj
 0002:00007c10       ??_C@_1BMM@KANDEEGK@?$AA_?$AA_?$AAc?$AAr?$AAt?$AA_?$AAs?$AAt?$AAd?$AAi?$AAo?$AA_?$AAo?$AAu?$AAt@ 000000014004ac10     libucrtd:output.obj
 0002:00007de0       ??_C@_0DI@KIFBHMNO@minkernel?2crts?2ucrt?2inc?2corecrt@ 000000014004ade0     libucrtd:output.obj
 0002:00007e20       ??_C@_1BMK@JGIBNIA@?$AA_?$AA_?$AAc?$AAr?$AAt?$AA_?$AAs?$AAt?$AAd?$AAi?$AAo?$AA_?$AAo?$AAu?$AAt@ 000000014004ae20     libucrtd:output.obj
 0002:00007ff0       ??_C@_1BLC@INKIGOCN@?$AA_?$AA_?$AAc?$AAr?$AAt?$AA_?$AAs?$AAt?$AAd?$AAi?$AAo?$AA_?$AAo?$AAu?$AAt@ 000000014004aff0     libucrtd:output.obj
 0002:000081b0       ??_C@_1BNK@KHNJGCCP@?$AA_?$AA_?$AAc?$AAr?$AAt?$AA_?$AAs?$AAt?$AAd?$AAi?$AAo?$AA_?$AAo?$AAu?$AAt@ 000000014004b1b0     libucrtd:output.obj
 0002:00008390       ??_C@_1BNO@OHFFMOOJ@?$AA_?$AA_?$AAc?$AAr?$AAt?$AA_?$AAs?$AAt?$AAd?$AAi?$AAo?$AA_?$AAo?$AAu?$AAt@ 000000014004b390     libucrtd:output.obj
 0002:00008570       ??_C@_1BMC@FAGJFBLI@?$AA_?$AA_?$AAc?$AAr?$AAt?$AA_?$AAs?$AAt?$AAd?$AAi?$AAo?$AA_?$AAo?$AAu?$AAt@ 000000014004b570     libucrtd:output.obj
 0002:00008740       ??_C@_1BMG@CGPDIFDK@?$AA_?$AA_?$AAc?$AAr?$AAt?$AA_?$AAs?$AAt?$AAd?$AAi?$AAo?$AA_?$AAo?$AAu?$AAt@ 000000014004b740     libucrtd:output.obj
 0002:00008910       ??_C@_1BNC@OHPDPPJK@?$AA_?$AA_?$AAc?$AAr?$AAt?$AA_?$AAs?$AAt?$AAd?$AAi?$AAo?$AA_?$AAo?$AAu?$AAt@ 000000014004b910     libucrtd:output.obj
 0002:00008af0       ??_C@_1BLK@FOLFMPJH@?$AA_?$AA_?$AAc?$AAr?$AAt?$AA_?$AAs?$AAt?$AAd?$AAi?$AAo?$AA_?$AAo?$AAu?$AAt@ 000000014004baf0     libucrtd:output.obj
 0002:00008cb0       ??_C@_1BNO@NAODCKFA@?$AA_?$AA_?$AAc?$AAr?$AAt?$AA_?$AAs?$AAt?$AAd?$AAi?$AAo?$AA_?$AAo?$AAu?$AAt@ 000000014004bcb0     libucrtd:output.obj
 0002:00008e90       ??_C@_1BMG@BBEFGBID@?$AA_?$AA_?$AAc?$AAr?$AAt?$AA_?$AAs?$AAt?$AAd?$AAi?$AAo?$AA_?$AAo?$AAu?$AAt@ 000000014004be90     libucrtd:output.obj
 0002:00009060       ??_C@_1BNC@JPKLPOHO@?$AA_?$AA_?$AAc?$AAr?$AAt?$AA_?$AAs?$AAt?$AAd?$AAi?$AAo?$AA_?$AAo?$AAu?$AAt@ 000000014004c060     libucrtd:output.obj
 0002:00009250       ??_C@_1BA@GLMCNLEM@?$AAW?$AAa?$AAr?$AAn?$AAi?$AAn?$AAg@ 000000014004c250     libucrtd:dbgrpt.obj
 0002:00009260       ??_C@_1M@ILHOPKA@?$AAE?$AAr?$AAr?$AAo?$AAr@ 000000014004c260     libucrtd:dbgrpt.obj
 0002:00009270       ??_C@_1CC@CGHMNGDG@?$AAA?$AAs?$AAs?$AAe?$AAr?$AAt?$AAi?$AAo?$AAn?$AA?5?$AAF?$AAa?$AAi?$AAl?$AAe@ 000000014004c270     libucrtd:dbgrpt.obj
 0002:000092a0       ??_C@_1OG@PMPPFHAF@?$AA?6?$AA?6?$AAF?$AAo?$AAr?$AA?5?$AAi?$AAn?$AAf?$AAo?$AAr?$AAm?$AAa?$AAt?$AAi@ 000000014004c2a0     libucrtd:dbgrpt.obj
 0002:00009390       ??_C@_1MG@LJLILFFD@?$AAD?$AAe?$AAb?$AAu?$AAg?$AA?5?$AA?$CF?$AAl?$AAs?$AA?$CB?$AA?6?$AA?6?$AAP?$AAr?$AAo@ 000000014004c390     libucrtd:dbgrpt.obj
 0002:00009460       ??_C@_1MG@OODCADGL@?$AAD?$AAe?$AAb?$AAu?$AAg?$AA?5?$AA?$CF?$AAl?$AAs?$AA?$CB?$AA?6?$AA?6?$AAP?$AAr?$AAo@ 000000014004c460     libucrtd:dbgrpt.obj
 0002:00009530       ??_C@_1FO@GMJDLAJD@?$AAm?$AAi?$AAn?$AAk?$AAe?$AAr?$AAn?$AAe?$AAl?$AA?2?$AAc?$AAr?$AAt?$AAs?$AA?2@ 000000014004c530     libucrtd:dbgrpt.obj
 0002:00009590       ??_C@_1CM@EHMOGBJJ@?$AAc?$AAo?$AAm?$AAm?$AAo?$AAn?$AA_?$AAm?$AAe?$AAs?$AAs?$AAa?$AAg?$AAe?$AA_@ 000000014004c590     libucrtd:dbgrpt.obj
 0002:000095bc       ??_C@_11LOCGONAA@@         000000014004c5bc     libucrtd:dbgrpt.obj
 0002:000095c0       ??_C@_1BA@GLLGCPCK@?$AA?6?$AAL?$AAi?$AAn?$AAe?$AA?3?$AA?5@ 000000014004c5c0     libucrtd:dbgrpt.obj
 0002:000095d0       ??_C@_1BA@LNHECFIM@?$AA?6?$AAF?$AAi?$AAl?$AAe?$AA?3?$AA?5@ 000000014004c5d0     libucrtd:dbgrpt.obj
 0002:000095e0       ??_C@_1BE@CGCJKGHI@?$AA?6?$AAM?$AAo?$AAd?$AAu?$AAl?$AAe?$AA?3?$AA?5@ 000000014004c5e0     libucrtd:dbgrpt.obj
 0002:00009600       ??_C@_1JM@IBOIJEOO@?$AAw?$AAc?$AAs?$AAc?$AAp?$AAy?$AA_?$AAs?$AA?$CI?$AAm?$AAe?$AAs?$AAs?$AAa?$AAg@ 000000014004c600     libucrtd:dbgrpt.obj
 0002:000096a0       ??_C@_1FG@BBOLDHGF@?$AA_?$AAC?$AAr?$AAt?$AAD?$AAb?$AAg?$AAR?$AAe?$AAp?$AAo?$AAr?$AAt?$AA?3?$AA?5@ 000000014004c6a0     libucrtd:dbgrpt.obj
 0002:00009700       ??_C@_1GE@DPGDJKLM@?$AAm?$AAi?$AAn?$AAk?$AAe?$AAr?$AAn?$AAe?$AAl?$AA?2?$AAc?$AAr?$AAt?$AAs?$AA?2@ 000000014004c700     libucrtd:atox.obj
 0002:00009770       ??_C@_1EO@MLJCKPIB@?$AAb?$AAa?$AAs?$AAe?$AA?5?$AA?$DN?$AA?$DN?$AA?5?$AA0?$AA?5?$AA?$HM?$AA?$HM?$AA?5?$AA?$CI?$AA2@ 000000014004c770     libucrtd:atox.obj
 0002:000097c0       ??_C@_1DI@BANODKFL@?$AA_?$AA_?$AAc?$AAr?$AAt?$AA_?$AAs?$AAt?$AAr?$AAt?$AAo?$AAx?$AA?3?$AA?3?$AAp@ 000000014004c7c0     libucrtd:atox.obj
 0002:000097f8       ??_C@_1CM@GJENOOEJ@?$AAc?$AA?5?$AA?$DN?$AA?$DN?$AA?5?$AA?8?$AA?2?$AA0?$AA?8?$AA?5?$AA?$HM?$AA?$HM?$AA?5?$AA?$CK?$AA_@ 000000014004c7f8     libucrtd:atox.obj
 0002:00009830       ??_C@_1HA@CONLANFI@?$AA_?$AA_?$AAc?$AAr?$AAt?$AA_?$AAs?$AAt?$AAr?$AAt?$AAo?$AAx?$AA?3?$AA?3?$AAc@ 000000014004c830     libucrtd:atox.obj
 0002:000098a0       ??_C@_1BM@PNEBBBDO@?$AA_?$AAp?$AA?5?$AA?$CB?$AA?$DN?$AA?5?$AAn?$AAu?$AAl?$AAl?$AAp?$AAt?$AAr@ 000000014004c8a0     libucrtd:atox.obj
 0002:000098c0       ??_C@_1HG@FCDBLOEG@?$AA_?$AA_?$AAc?$AAr?$AAt?$AA_?$AAs?$AAt?$AAr?$AAt?$AAo?$AAx?$AA?3?$AA?3?$AAc@ 000000014004c8c0     libucrtd:atox.obj
 0002:00009940       ??_C@_1GK@MNHIDABG@?$AA_?$AA_?$AAc?$AAr?$AAt?$AA_?$AAs?$AAt?$AAr?$AAt?$AAo?$AAx?$AA?3?$AA?3?$AAc@ 000000014004c940     libucrtd:atox.obj
 0002:000099b0       ??_C@_1HA@MKKIHBHP@?$AA_?$AA_?$AAc?$AAr?$AAt?$AA_?$AAs?$AAt?$AAr?$AAt?$AAo?$AAx?$AA?3?$AA?3?$AAc@ 000000014004c9b0     libucrtd:atox.obj
 0002:00009b88       ??_C@_1CE@JMFACANE@?$AAr?$AAe?$AAs?$AAu?$AAl?$AAt?$AA?5?$AA?$CB?$AA?$DN?$AA?5?$AAn?$AAu?$AAl?$AAl?$AAp@ 000000014004cb88     libucrtd:errno.obj
 0002:00009bb0       ??_C@_1CE@MCCHPLBM@?$AAb?$AAu?$AAf?$AAf?$AAe?$AAr?$AA?5?$AA?$CB?$AA?$DN?$AA?5?$AAn?$AAu?$AAl?$AAl?$AAp@ 000000014004cbb0     libucrtd:xtoa.obj
 0002:00009be0       ??_C@_1GA@HBEFGMHK@?$AAm?$AAi?$AAn?$AAk?$AAe?$AAr?$AAn?$AAe?$AAl?$AA?2?$AAc?$AAr?$AAt?$AAs?$AA?2@ 000000014004cbe0     libucrtd:xtoa.obj
 0002:00009c40       ??_C@_1BM@HMPEMLNP@?$AAc?$AAo?$AAm?$AAm?$AAo?$AAn?$AA_?$AAx?$AAt?$AAo?$AAx?$AA_?$AAs@ 000000014004cc40     libucrtd:xtoa.obj
 0002:00009c60       ??_C@_1CC@ONIJBMJF@?$AAb?$AAu?$AAf?$AAf?$AAe?$AAr?$AA_?$AAc?$AAo?$AAu?$AAn?$AAt?$AA?5?$AA?$DO?$AA?5@ 000000014004cc60     libucrtd:xtoa.obj
 0002:00009c90       ??_C@_1HA@JFIOFNKD@?$AAb?$AAu?$AAf?$AAf?$AAe?$AAr?$AA_?$AAc?$AAo?$AAu?$AAn?$AAt?$AA?5?$AA?$DO?$AA?5@ 000000014004cc90     libucrtd:xtoa.obj
 0002:00009d00       ??_C@_1DE@PCJGDBBD@?$AA2?$AA?5?$AA?$DM?$AA?$DN?$AA?5?$AAr?$AAa?$AAd?$AAi?$AAx?$AA?5?$AA?$CG?$AA?$CG?$AA?5?$AAr@ 000000014004cd00     libucrtd:xtoa.obj
 0002:00009d38       ??_C@_1CM@LONILNIJ@?$AAl?$AAe?$AAn?$AAg?$AAt?$AAh?$AA?5?$AA?$DM?$AA?5?$AAb?$AAu?$AAf?$AAf?$AAe?$AAr@ 000000014004cd38     libucrtd:xtoa.obj
 0002:00009d68       ??_C@_1BI@OLPLFKOE@?$AAc?$AAo?$AAm?$AAm?$AAo?$AAn?$AA_?$AAx?$AAt?$AAo?$AAx@ 000000014004cd68     libucrtd:xtoa.obj
 0002:00009d80       ??_C@_1DE@BCNCAIK@?$AA?$CI?$AA?$CC?$AAI?$AAn?$AAv?$AAa?$AAl?$AAi?$AAd?$AA?5?$AAe?$AAr?$AAr?$AAo?$AAr@ 000000014004cd80     libucrtd:set_error_mode.obj
 0002:00009dc0       ??_C@_1GO@EBFPMMIJ@?$AAm?$AAi?$AAn?$AAk?$AAe?$AAr?$AAn?$AAe?$AAl?$AA?2?$AAc?$AAr?$AAt?$AAs?$AA?2@ 000000014004cdc0     libucrtd:set_error_mode.obj
 0002:00009e30       ??_C@_1CA@LFDHAMEM@?$AA_?$AAs?$AAe?$AAt?$AA_?$AAe?$AAr?$AAr?$AAo?$AAr?$AA_?$AAm?$AAo?$AAd?$AAe@ 000000014004ce30     libucrtd:set_error_mode.obj
 0002:00009e50       ??_C@_1CA@EOJJMFA@?$AAc?$AAo?$AAm?$AAm?$AAo?$AAn?$AA_?$AAt?$AAc?$AAs?$AAc?$AAa?$AAt?$AA_?$AAs@ 000000014004ce50     libucrtd:wcscat_s.obj
 0002:00009e70       ??_C@_1DM@FHLMIEG@?$AAS?$AAt?$AAr?$AAi?$AAn?$AAg?$AA?5?$AAi?$AAs?$AA?5?$AAn?$AAo?$AAt?$AA?5?$AAn@ 000000014004ce70     libucrtd:wcscat_s.obj
 0002:00009eb0       ??_C@_1FA@MJKDNFFB@?$AA?$CI?$AAL?$AA?$CC?$AAS?$AAt?$AAr?$AAi?$AAn?$AAg?$AA?5?$AAi?$AAs?$AA?5?$AAn?$AAo@ 000000014004ceb0     libucrtd:wcscat_s.obj
 0002:00009f00       ??_C@_1CC@HELMJGIF@?$AAc?$AAo?$AAm?$AAm?$AAo?$AAn?$AA_?$AAt?$AAc?$AAs?$AAn?$AAc?$AAa?$AAt?$AA_@ 000000014004cf00     libucrtd:wcsncat_s.obj
 0002:00009f50       ??_C@_0CP@GDJHIDC@minkernel?2crts?2ucrt?2src?2appcrt?2@ 000000014004cf50     libucrtd:_file.obj
 0002:00009f80       ??_C@_1DC@OGOLMDEL@?$AAp?$AAu?$AAb?$AAl?$AAi?$AAc?$AA_?$AAs?$AAt?$AAr?$AAe?$AAa?$AAm?$AA?5?$AA?$CB@ 000000014004cf80     libucrtd:_file.obj
 0002:00009fb8       ??_C@_0DB@BJFCCEBD@minkernel?2crts?2ucrt?2src?2appcrt?2@ 000000014004cfb8     libucrtd:setvbuf.obj
 0002:00009ff0       ??_C@_1BO@MHPFFFJJ@?$AAs?$AAt?$AAr?$AAe?$AAa?$AAm?$AA?4?$AAv?$AAa?$AAl?$AAi?$AAd?$AA?$CI?$AA?$CJ@ 000000014004cff0     libucrtd:setvbuf.obj
 0002:0000a010       ??_C@_1GC@NAMEPLDD@?$AAm?$AAi?$AAn?$AAk?$AAe?$AAr?$AAn?$AAe?$AAl?$AA?2?$AAc?$AAr?$AAt?$AAs?$AA?2@ 000000014004d010     libucrtd:setvbuf.obj
 0002:0000a078       ??_C@_1BA@OGODIODK@?$AAs?$AAe?$AAt?$AAv?$AAb?$AAu?$AAf@ 000000014004d078     libucrtd:setvbuf.obj
 0002:0000a090       ??_C@_1GG@CBGCKJPC@?$AAt?$AAy?$AAp?$AAe?$AA?5?$AA?$DN?$AA?$DN?$AA?5?$AA_?$AAI?$AAO?$AAN?$AAB?$AAF?$AA?5@ 000000014004d090     libucrtd:setvbuf.obj
 0002:0000a100       ??_C@_1HK@PBPJKDDM@?$AA2?$AA?5?$AA?$DM?$AA?$DN?$AA?5?$AAb?$AAu?$AAf?$AAf?$AAe?$AAr?$AA_?$AAs?$AAi?$AAz@ 000000014004d100     libucrtd:setvbuf.obj
 0002:0000a180       ??_C@_1DA@NBILLKNO@?$AAl?$AAo?$AAc?$AAa?$AAl?$AA_?$AAa?$AAc?$AAt?$AAi?$AAo?$AAn?$AA?5?$AA?$CB?$AA?$DN@ 000000014004d180     libucrtd:signal.obj
 0002:0000a1b0       ??_C@_1FO@CCGDPEKE@?$AAm?$AAi?$AAn?$AAk?$AAe?$AAr?$AAn?$AAe?$AAl?$AA?2?$AAc?$AAr?$AAt?$AAs?$AA?2@ 000000014004d1b0     libucrtd:signal.obj
 0002:0000a210       ??_C@_1M@DMJEIKHL@?$AAr?$AAa?$AAi?$AAs?$AAe@ 000000014004d210     libucrtd:signal.obj
 0002:0000a220       ??_C@_1DO@MLNEDKGB@?$AA?$CI?$AA?$CC?$AAI?$AAn?$AAv?$AAa?$AAl?$AAi?$AAd?$AA?5?$AAs?$AAi?$AAg?$AAn?$AAa@ 000000014004d220     libucrtd:signal.obj
 0002:0000a260       __Lcosfarray               000000014004d260     libucrtd:lsincosf_array.obj
 0002:0000a290       __Lsinfarray               000000014004d290     libucrtd:lsincosf_array.obj
 0002:0000a2b0       __L_2_by_pi_bits           000000014004d2b0     libucrtd:l2_by_pi_bits.obj
 0002:0000a400       ??_C@_04LAGPAAHP@sinf@     000000014004d400     libucrtd:sincos_special.obj
 0002:0000a408       ??_C@_0DM@DKIFNNOL@minkernel?2crts?2ucrt?2src?2appcrt?2@ 000000014004d408     libucrtd:per_thread_data.obj
 0002:0000a448       ??_C@_1CC@CHNFGJIC@?$AAc?$AAo?$AAm?$AAm?$AAo?$AAn?$AA_?$AAt?$AAc?$AAs?$AAn?$AAc?$AAp?$AAy?$AA_@ 000000014004d448     libucrtd:wcsncpy_s.obj
 0002:0000a498       ??_C@_0DI@DNFGFCIK@minkernel?2crts?2ucrt?2inc?2corecrt@ 000000014004d498     libucrtd:argv_wildcards.obj
 0002:0000a4d0       ??_C@_1HE@CEMHPOHH@?$AAm?$AAi?$AAn?$AAk?$AAe?$AAr?$AAn?$AAe?$AAl?$AA?2?$AAc?$AAr?$AAt?$AAs?$AA?2@ 000000014004d4d0     libucrtd:argv_wildcards.obj
 0002:0000a548       ??_C@_1DK@IBFFOJGB@?$AAc?$AAo?$AAm?$AAm?$AAo?$AAn?$AA_?$AAe?$AAx?$AAp?$AAa?$AAn?$AAd?$AA_?$AAa@ 000000014004d548     libucrtd:argv_wildcards.obj
 0002:0000a590       ??_C@_1MC@FLPKOFON@?$AAt?$AAr?$AAa?$AAi?$AAt?$AAs?$AA?3?$AA?3?$AAt?$AAc?$AAs?$AAn?$AAc?$AAp?$AAy@ 000000014004d590     libucrtd:argv_wildcards.obj
 0002:0000a658       ??_C@_0DK@FPFMIIJB@minkernel?2crts?2ucrt?2src?2appcrt?2@ 000000014004d658     libucrtd:argv_wildcards.obj
 0002:0000a6a0       ??_C@_1EA@KOCCBLAD@?$AAc?$AAo?$AAp?$AAy?$AA_?$AAa?$AAn?$AAd?$AA_?$AAa?$AAd?$AAd?$AA_?$AAa?$AAr@ 000000014004d6a0     libucrtd:argv_wildcards.obj
 0002:0000a6e0       ??_C@_1KM@GDJIGAGL@?$AAt?$AAr?$AAa?$AAi?$AAt?$AAs?$AA?3?$AA?3?$AAt?$AAc?$AAs?$AAn?$AAc?$AAp?$AAy@ 000000014004d6e0     libucrtd:argv_wildcards.obj
 0002:0000a790       ??_C@_1PI@FGFLAGCC@?$AAt?$AAr?$AAa?$AAi?$AAt?$AAs?$AA?3?$AA?3?$AAt?$AAc?$AAs?$AAn?$AAc?$AAp?$AAy@ 000000014004d790     libucrtd:argv_wildcards.obj
 0002:0000a8a8       ??_C@_1M@HPNHIDJI@?$AAj?$AAa?$AA?9?$AAJ?$AAP@ 000000014004d8a8     libucrtd:mbctype.obj
 0002:0000a8b8       ??_C@_1M@BIBDDEMK@?$AAz?$AAh?$AA?9?$AAC?$AAN@ 000000014004d8b8     libucrtd:mbctype.obj
 0002:0000a8c8       ??_C@_1M@JLOOOEGK@?$AAk?$AAo?$AA?9?$AAK?$AAR@ 000000014004d8c8     libucrtd:mbctype.obj
 0002:0000a8d8       ??_C@_1M@CLNBBOPM@?$AAz?$AAh?$AA?9?$AAT?$AAW@ 000000014004d8d8     libucrtd:mbctype.obj
 0002:0000a8e8       ??_C@_0DE@HGDKNBFD@minkernel?2crts?2ucrt?2src?2appcrt?2@ 000000014004d8e8     libucrtd:mbctype.obj
 0002:0000a920       ??_C@_0ED@BLPEHJAI@minkernel?2crts?2ucrt?2src?2desktop@ 000000014004d920     libucrtd:get_environment_from_os.obj
 0002:0000a970       ??_C@_1FO@NMANMHOD@?$AAc?$AAa?$AAc?$AAh?$AAe?$AAd?$AA_?$AAs?$AAt?$AAa?$AAt?$AAe?$AA?5?$AA?$DN?$AA?$DN@ 000000014004d970     libucrtd:win_policies.obj
 0002:0000a9d0       ??_C@_1HC@GHLNKBJK@?$AAm?$AAi?$AAn?$AAk?$AAe?$AAr?$AAn?$AAe?$AAl?$AA?2?$AAc?$AAr?$AAt?$AAs?$AA?2@ 000000014004d9d0     libucrtd:win_policies.obj
 0002:0000aa48       ??_C@_0DB@JFFPGLDM@minkernel?2crts?2ucrt?2src?2appcrt?2@ 000000014004da48     libucrtd:osfinfo.obj
 0002:0000aa80       ??_C@_1EM@BPODPNEJ@?$AAs?$AAt?$AAa?$AAt?$AAi?$AAc?$AA_?$AAc?$AAa?$AAs?$AAt?$AA?$DM?$AAu?$AAn?$AAs@ 000000014004da80     libucrtd:osfinfo.obj
 0002:0000aad0       ??_C@_1GC@LDGKBAFM@?$AAm?$AAi?$AAn?$AAk?$AAe?$AAr?$AAn?$AAe?$AAl?$AA?2?$AAc?$AAr?$AAt?$AAs?$AA?2@ 000000014004dad0     libucrtd:osfinfo.obj
 0002:0000ab38       ??_C@_1DM@JELNOMLN@?$AA_?$AA_?$AAa?$AAc?$AAr?$AAt?$AA_?$AAl?$AAo?$AAw?$AAi?$AAo?$AA_?$AAe?$AAn@ 000000014004db38     libucrtd:osfinfo.obj
 0002:0000ab80       ??_C@_1FK@MGHFJLAL@?$AAf?$AAh?$AA?5?$AA?$DO?$AA?$DN?$AA?5?$AA0?$AA?5?$AA?$CG?$AA?$CG?$AA?5?$AA?$CI?$AAu?$AAn?$AAs@ 000000014004db80     libucrtd:osfinfo.obj
 0002:0000abe0       ??_C@_1BO@EMBOBGKE@?$AA_?$AAg?$AAe?$AAt?$AA_?$AAo?$AAs?$AAf?$AAh?$AAa?$AAn?$AAd?$AAl?$AAe@ 000000014004dbe0     libucrtd:osfinfo.obj
 0002:0000ac00       ??_C@_1CI@ILOIOBLM@?$AA_?$AAo?$AAs?$AAf?$AAi?$AAl?$AAe?$AA?$CI?$AAf?$AAh?$AA?$CJ?$AA?5?$AA?$CG?$AA?5?$AAF@ 000000014004dc00     libucrtd:osfinfo.obj
 0002:0000ac30       __lc_time_c                000000014004dc30     libucrtd:nlsdata.obj
 0002:0000aef0       ??_C@_03KOEHGMDN@Sun@      000000014004def0     libucrtd:nlsdata.obj
 0002:0000aef4       ??_C@_03PDAGKDH@Mon@       000000014004def4     libucrtd:nlsdata.obj
 0002:0000aef8       ??_C@_03NAGEINEP@Tue@      000000014004def8     libucrtd:nlsdata.obj
 0002:0000aefc       ??_C@_03MHOMLAJA@Wed@      000000014004defc     libucrtd:nlsdata.obj
 0002:0000af00       ??_C@_03IOFIKPDN@Thu@      000000014004df00     libucrtd:nlsdata.obj
 0002:0000af04       ??_C@_03IDIOELNC@Fri@      000000014004df04     libucrtd:nlsdata.obj
 0002:0000af08       ??_C@_03FEFJNEK@Sat@       000000014004df08     libucrtd:nlsdata.obj
 0002:0000af0c       ??_C@_06OOPIFAJ@Sunday@    000000014004df0c     libucrtd:nlsdata.obj
 0002:0000af14       ??_C@_06JLEDEDGH@Monday@   000000014004df14     libucrtd:nlsdata.obj
 0002:0000af20       ??_C@_07BAAGCFCM@Tuesday@  000000014004df20     libucrtd:nlsdata.obj
 0002:0000af28       ??_C@_09DLIGFAKA@Wednesday@ 000000014004df28     libucrtd:nlsdata.obj
 0002:0000af38       ??_C@_08HACCIKIA@Thursday@ 000000014004df38     libucrtd:nlsdata.obj
 0002:0000af44       ??_C@_06JECMNKMI@Friday@   000000014004df44     libucrtd:nlsdata.obj
 0002:0000af50       ??_C@_08INBOOONO@Saturday@ 000000014004df50     libucrtd:nlsdata.obj
 0002:0000af5c       ??_C@_03JIHJHPIE@Jan@      000000014004df5c     libucrtd:nlsdata.obj
 0002:0000af60       ??_C@_03HJBDCHOM@Feb@      000000014004df60     libucrtd:nlsdata.obj
 0002:0000af64       ??_C@_03ODNJBKGA@Mar@      000000014004df64     libucrtd:nlsdata.obj
 0002:0000af68       ??_C@_03LEOLGMJP@Apr@      000000014004df68     libucrtd:nlsdata.obj
 0002:0000af6c       ??_C@_03CNMDKL@May@        000000014004df6c     libucrtd:nlsdata.obj
 0002:0000af70       ??_C@_03IDFGHECI@Jun@      000000014004df70     libucrtd:nlsdata.obj
 0002:0000af74       ??_C@_03LBGABGKK@Jul@      000000014004df74     libucrtd:nlsdata.obj
 0002:0000af78       ??_C@_03IFJFEIGA@Aug@      000000014004df78     libucrtd:nlsdata.obj
 0002:0000af7c       ??_C@_03GGCAPAJC@Sep@      000000014004df7c     libucrtd:nlsdata.obj
 0002:0000af80       ??_C@_03BMAOKBAD@Oct@      000000014004df80     libucrtd:nlsdata.obj
 0002:0000af84       ??_C@_03JPJOFNIA@Nov@      000000014004df84     libucrtd:nlsdata.obj
 0002:0000af88       ??_C@_03MKABNOCG@Dec@      000000014004df88     libucrtd:nlsdata.obj
 0002:0000af90       ??_C@_07CGJPFGJA@January@  000000014004df90     libucrtd:nlsdata.obj
 0002:0000af98       ??_C@_08GNJGEPFN@February@ 000000014004df98     libucrtd:nlsdata.obj
 0002:0000afa4       ??_C@_05HPCKOFNC@March@    000000014004dfa4     libucrtd:nlsdata.obj
 0002:0000afac       ??_C@_05DMJDNLEJ@April@    000000014004dfac     libucrtd:nlsdata.obj
 0002:0000afb4       ??_C@_04CNLMGBGM@June@     000000014004dfb4     libucrtd:nlsdata.obj
 0002:0000afbc       ??_C@_04MIEPOIFP@July@     000000014004dfbc     libucrtd:nlsdata.obj
 0002:0000afc4       ??_C@_06LBBHFDDG@August@   000000014004dfc4     libucrtd:nlsdata.obj
 0002:0000afd0       ??_C@_09BHHEALKD@September@ 000000014004dfd0     libucrtd:nlsdata.obj
 0002:0000afe0       ??_C@_07JJNFCEND@October@  000000014004dfe0     libucrtd:nlsdata.obj
 0002:0000afe8       ??_C@_08HCHEGEOA@November@ 000000014004dfe8     libucrtd:nlsdata.obj
 0002:0000aff8       ??_C@_08EDHMEBNP@December@ 000000014004dff8     libucrtd:nlsdata.obj
 0002:0000b004       ??_C@_02DEDBPAFC@AM@       000000014004e004     libucrtd:nlsdata.obj
 0002:0000b008       ??_C@_02CJNFDJBF@PM@       000000014004e008     libucrtd:nlsdata.obj
 0002:0000b010       ??_C@_08BPBNCDIB@MM?1dd?1yy@ 000000014004e010     libucrtd:nlsdata.obj
 0002:0000b020       ??_C@_0BE@CKGJFCPC@dddd?0?5MMMM?5dd?0?5yyyy@ 000000014004e020     libucrtd:nlsdata.obj
 0002:0000b038       ??_C@_08JCCMCCIL@HH?3mm?3ss@ 000000014004e038     libucrtd:nlsdata.obj
 0002:0000b048       ??_C@_17MBGCMIPB@?$AAS?$AAu?$AAn@ 000000014004e048     libucrtd:nlsdata.obj
 0002:0000b050       ??_C@_17KBOMKBF@?$AAM?$AAo?$AAn@ 000000014004e050     libucrtd:nlsdata.obj
 0002:0000b058       ??_C@_17BMKGEGOJ@?$AAT?$AAu?$AAe@ 000000014004e058     libucrtd:nlsdata.obj
 0002:0000b060       ??_C@_17CJEDCEPE@?$AAW?$AAe?$AAd@ 000000014004e060     libucrtd:nlsdata.obj
 0002:0000b068       ??_C@_17PDPHAADD@?$AAT?$AAh?$AAu@ 000000014004e068     libucrtd:nlsdata.obj
 0002:0000b070       ??_C@_17HFOLPPLP@?$AAF?$AAr?$AAi@ 000000014004e070     libucrtd:nlsdata.obj
 0002:0000b078       ??_C@_17GGIBDPIH@?$AAS?$AAa?$AAt@ 000000014004e078     libucrtd:nlsdata.obj
 0002:0000b080       ??_C@_1O@IHNHDHPB@?$AAS?$AAu?$AAn?$AAd?$AAa?$AAy@ 000000014004e080     libucrtd:nlsdata.obj
 0002:0000b090       ??_C@_1O@MMNBFLIA@?$AAM?$AAo?$AAn?$AAd?$AAa?$AAy@ 000000014004e090     libucrtd:nlsdata.obj
 0002:0000b0a0       ??_C@_1BA@ENFBFFEK@?$AAT?$AAu?$AAe?$AAs?$AAd?$AAa?$AAy@ 000000014004e0a0     libucrtd:nlsdata.obj
 0002:0000b0b0       ??_C@_1BE@EBOGMDOH@?$AAW?$AAe?$AAd?$AAn?$AAe?$AAs?$AAd?$AAa?$AAy@ 000000014004e0b0     libucrtd:nlsdata.obj
 0002:0000b0c8       ??_C@_1BC@HHMNLIHE@?$AAT?$AAh?$AAu?$AAr?$AAs?$AAd?$AAa?$AAy@ 000000014004e0c8     libucrtd:nlsdata.obj
 0002:0000b0e0       ??_C@_1O@PDICJHAG@?$AAF?$AAr?$AAi?$AAd?$AAa?$AAy@ 000000014004e0e0     libucrtd:nlsdata.obj
 0002:0000b0f0       ??_C@_1BC@ENMNNPAJ@?$AAS?$AAa?$AAt?$AAu?$AAr?$AAd?$AAa?$AAy@ 000000014004e0f0     libucrtd:nlsdata.obj
 0002:0000b108       ??_C@_17DKNBKCHM@?$AAJ?$AAa?$AAn@ 000000014004e108     libucrtd:nlsdata.obj
 0002:0000b110       ??_C@_17LMDJEKJN@?$AAF?$AAe?$AAb@ 000000014004e110     libucrtd:nlsdata.obj
 0002:0000b118       ??_C@_17CKNLEDEC@?$AAM?$AAa?$AAr@ 000000014004e118     libucrtd:nlsdata.obj
 0002:0000b120       ??_C@_17LFPOIHDD@?$AAA?$AAp?$AAr@ 000000014004e120     libucrtd:nlsdata.obj
 0002:0000b128       ??_C@_17PNNKMEED@?$AAM?$AAa?$AAy@ 000000014004e128     libucrtd:nlsdata.obj
 0002:0000b130       ??_C@_17KCJGOCPB@?$AAJ?$AAu?$AAn@ 000000014004e130     libucrtd:nlsdata.obj
 0002:0000b138       ??_C@_17IJPCKHK@?$AAJ?$AAu?$AAl@ 000000014004e138     libucrtd:nlsdata.obj
 0002:0000b140       ??_C@_17ICPELBCN@?$AAA?$AAu?$AAg@ 000000014004e140     libucrtd:nlsdata.obj
 0002:0000b148       ??_C@_17HCHCOKMG@?$AAS?$AAe?$AAp@ 000000014004e148     libucrtd:nlsdata.obj
 0002:0000b150       ??_C@_17FNLKOI@?$AAO?$AAc?$AAt@ 000000014004e150     libucrtd:nlsdata.obj
 0002:0000b158       ??_C@_17BBDMLCIG@?$AAN?$AAo?$AAv@ 000000014004e158     libucrtd:nlsdata.obj
 0002:0000b160       ??_C@_17EGKACKIF@?$AAD?$AAe?$AAc@ 000000014004e160     libucrtd:nlsdata.obj
 0002:0000b168       ??_C@_1BA@EFMEIEBA@?$AAJ?$AAa?$AAn?$AAu?$AAa?$AAr?$AAy@ 000000014004e168     libucrtd:nlsdata.obj
 0002:0000b178       ??_C@_1BC@JGDDFFAM@?$AAF?$AAe?$AAb?$AAr?$AAu?$AAa?$AAr?$AAy@ 000000014004e178     libucrtd:nlsdata.obj
 0002:0000b190       ??_C@_1M@IKEENEDF@?$AAM?$AAa?$AAr?$AAc?$AAh@ 000000014004e190     libucrtd:nlsdata.obj
 0002:0000b1a0       ??_C@_1M@GJNLMHFD@?$AAA?$AAp?$AAr?$AAi?$AAl@ 000000014004e1a0     libucrtd:nlsdata.obj
 0002:0000b1b0       ??_C@_19EPFLPGAP@?$AAJ?$AAu?$AAn?$AAe@ 000000014004e1b0     libucrtd:nlsdata.obj
 0002:0000b1c0       ??_C@_19BIFMLPCD@?$AAJ?$AAu?$AAl?$AAy@ 000000014004e1c0     libucrtd:nlsdata.obj
 0002:0000b1d0       ??_C@_1O@PAHLKOAC@?$AAA?$AAu?$AAg?$AAu?$AAs?$AAt@ 000000014004e1d0     libucrtd:nlsdata.obj
 0002:0000b1e0       ??_C@_1BE@DKAAMBJL@?$AAS?$AAe?$AAp?$AAt?$AAe?$AAm?$AAb?$AAe?$AAr@ 000000014004e1e0     libucrtd:nlsdata.obj
 0002:0000b1f8       ??_C@_1BA@EPANDLNG@?$AAO?$AAc?$AAt?$AAo?$AAb?$AAe?$AAr@ 000000014004e1f8     libucrtd:nlsdata.obj
 0002:0000b208       ??_C@_1BC@BGLIFPF@?$AAN?$AAo?$AAv?$AAe?$AAm?$AAb?$AAe?$AAr@ 000000014004e208     libucrtd:nlsdata.obj
 0002:0000b220       ??_C@_1BC@FEMKIFH@?$AAD?$AAe?$AAc?$AAe?$AAm?$AAb?$AAe?$AAr@ 000000014004e220     libucrtd:nlsdata.obj
 0002:0000b234       ??_C@_15ODEHAHHF@?$AAA?$AAM@ 000000014004e234     libucrtd:nlsdata.obj
 0002:0000b23c       ??_C@_15CLMNNGEL@?$AAP?$AAM@ 000000014004e23c     libucrtd:nlsdata.obj
 0002:0000b248       ??_C@_1BC@IEBCMHCM@?$AAM?$AAM?$AA?1?$AAd?$AAd?$AA?1?$AAy?$AAy@ 000000014004e248     libucrtd:nlsdata.obj
 0002:0000b260       ??_C@_1CI@KNAKOEBC@?$AAd?$AAd?$AAd?$AAd?$AA?0?$AA?5?$AAM?$AAM?$AAM?$AAM?$AA?5?$AAd?$AAd?$AA?0?$AA?5@ 000000014004e260     libucrtd:nlsdata.obj
 0002:0000b288       ??_C@_1BC@GDGBMEMK@?$AAH?$AAH?$AA?3?$AAm?$AAm?$AA?3?$AAs?$AAs@ 000000014004e288     libucrtd:nlsdata.obj
 0002:0000b2a0       ??_C@_1M@BMHNFIME@?$AAe?$AAn?$AA?9?$AAU?$AAS@ 000000014004e2a0     libucrtd:nlsdata.obj
 0002:0000b2b0       __newctype                 000000014004e2b0     libucrtd:ctype.obj
 0002:0000b5b0       __newclmap                 000000014004e5b0     libucrtd:ctype.obj
 0002:0000b730       __newcumap                 000000014004e730     libucrtd:ctype.obj
 0002:0000b8b0       _wctype                    000000014004e8b0     libucrtd:ctype.obj
 0002:0000bab8       ??_C@_1CI@JELMFMDH@?$AAc?$AA?5?$AA?$DO?$AA?$DN?$AA?5?$AA?9?$AA1?$AA?5?$AA?$CG?$AA?$CG?$AA?5?$AAc?$AA?5?$AA?$DM?$AA?$DN@ 000000014004eab8     libucrtd:isctype.obj
 0002:0000bae0       ??_C@_1GG@KPBGDFHJ@?$AAm?$AAi?$AAn?$AAk?$AAe?$AAr?$AAn?$AAe?$AAl?$AA?2?$AAc?$AAr?$AAt?$AAs?$AA?2@ 000000014004eae0     libucrtd:isctype.obj
 0002:0000bb50       ??_C@_1FE@KNPCCODH@?$AA?$CI?$AA?$CC?$AAC?$AAo?$AAr?$AAr?$AAu?$AAp?$AAt?$AAe?$AAd?$AA?5?$AAp?$AAo?$AAi@ 000000014004eb50     libucrtd:getstringtypea.obj
 0002:0000bbb0       ??_C@_1EM@GPJLADAA@?$AAV?$AAC?$AAC?$AAR?$AAT?$AA?2?$AAv?$AAc?$AAr?$AAu?$AAn?$AAt?$AAi?$AAm?$AAe@ 000000014004ebb0     libucrtd:getstringtypea.obj
 0002:0000bc00       ??_C@_0DJ@HCPJODDK@minkernel?2crts?2ucrt?2src?2appcrt?2@ 000000014004ec00     libucrtd:getstringtypea.obj
 0002:0000bc40       ??_C@_1BKC@NBNHJIDM@?$AA?$CI?$AAp?$AAt?$AAl?$AAo?$AAc?$AAi?$AA?9?$AA?$DO?$AAl?$AAc?$AA_?$AAc?$AAa?$AAt@ 000000014004ec40     libucrtd:locale_refcounting.obj
 0002:0000bdf0       ??_C@_1HK@HCNMEOLA@?$AAm?$AAi?$AAn?$AAk?$AAe?$AAr?$AAn?$AAe?$AAl?$AA?2?$AAc?$AAr?$AAt?$AAs?$AA?2@ 000000014004edf0     libucrtd:locale_refcounting.obj
 0002:0000be6c       ??_C@_15PJPFLCCM@?$AAu?$AAk@ 000000014004ee6c     libucrtd:get_qualified_locale.obj
 0002:0000bf20       ??_C@_1EA@JGEFHKEI@?$AAa?$AAp?$AAi?$AA?9?$AAm?$AAs?$AA?9?$AAw?$AAi?$AAn?$AA?9?$AAc?$AAo?$AAr?$AAe@ 000000014004ef20     libucrtd:winapi_thunks.obj
 0002:0000bf60       ??_C@_1DI@IJCEHOCB@?$AAa?$AAp?$AAi?$AA?9?$AAm?$AAs?$AA?9?$AAw?$AAi?$AAn?$AA?9?$AAc?$AAo?$AAr?$AAe@ 000000014004ef60     libucrtd:winapi_thunks.obj
 0002:0000bfa0       ??_C@_1EI@MPIAOHOC@?$AAa?$AAp?$AAi?$AA?9?$AAm?$AAs?$AA?9?$AAw?$AAi?$AAn?$AA?9?$AAc?$AAo?$AAr?$AAe@ 000000014004efa0     libucrtd:winapi_thunks.obj
 0002:0000bff0       ??_C@_1FK@FPHCKFIE@?$AAa?$AAp?$AAi?$AA?9?$AAm?$AAs?$AA?9?$AAw?$AAi?$AAn?$AA?9?$AAc?$AAo?$AAr?$AAe@ 000000014004eff0     libucrtd:winapi_thunks.obj
 0002:0000c050       ??_C@_1EM@DILCGIIO@?$AAa?$AAp?$AAi?$AA?9?$AAm?$AAs?$AA?9?$AAw?$AAi?$AAn?$AA?9?$AAc?$AAo?$AAr?$AAe@ 000000014004f050     libucrtd:winapi_thunks.obj
 0002:0000c0a0       ??_C@_1DM@LNCGDDPN@?$AAa?$AAp?$AAi?$AA?9?$AAm?$AAs?$AA?9?$AAw?$AAi?$AAn?$AA?9?$AAc?$AAo?$AAr?$AAe@ 000000014004f0a0     libucrtd:winapi_thunks.obj
 0002:0000c0e0       ??_C@_1DO@FPAPJEMD@?$AAa?$AAp?$AAi?$AA?9?$AAm?$AAs?$AA?9?$AAw?$AAi?$AAn?$AA?9?$AAc?$AAo?$AAr?$AAe@ 000000014004f0e0     libucrtd:winapi_thunks.obj
 0002:0000c120       ??_C@_1DK@NDHNAHIO@?$AAa?$AAp?$AAi?$AA?9?$AAm?$AAs?$AA?9?$AAw?$AAi?$AAn?$AA?9?$AAc?$AAo?$AAr?$AAe@ 000000014004f120     libucrtd:winapi_thunks.obj
 0002:0000c160       ??_C@_1DM@KGHDGBCM@?$AAa?$AAp?$AAi?$AA?9?$AAm?$AAs?$AA?9?$AAw?$AAi?$AAn?$AA?9?$AAc?$AAo?$AAr?$AAe@ 000000014004f160     libucrtd:winapi_thunks.obj
 0002:0000c1a0       ??_C@_1EO@IJIOEFOH@?$AAa?$AAp?$AAi?$AA?9?$AAm?$AAs?$AA?9?$AAw?$AAi?$AAn?$AA?9?$AAr?$AAt?$AAc?$AAo@ 000000014004f1a0     libucrtd:winapi_thunks.obj
 0002:0000c1f0       ??_C@_1FG@HHGEKANL@?$AAa?$AAp?$AAi?$AA?9?$AAm?$AAs?$AA?9?$AAw?$AAi?$AAn?$AA?9?$AAs?$AAe?$AAc?$AAu@ 000000014004f1f0     libucrtd:winapi_thunks.obj
 0002:0000c250       ??_C@_1EG@DBIOJECG@?$AAe?$AAx?$AAt?$AA?9?$AAm?$AAs?$AA?9?$AAw?$AAi?$AAn?$AA?9?$AAn?$AAt?$AAu?$AAs@ 000000014004f250     libucrtd:winapi_thunks.obj
 0002:0000c2a0       ??_C@_1EO@FIHMJCLF@?$AAe?$AAx?$AAt?$AA?9?$AAm?$AAs?$AA?9?$AAw?$AAi?$AAn?$AA?9?$AAn?$AAt?$AAu?$AAs@ 000000014004f2a0     libucrtd:winapi_thunks.obj
 0002:0000c2f0       ??_C@_1BC@DNHGCMLG@?$AAa?$AAd?$AAv?$AAa?$AAp?$AAi?$AA3?$AA2@ 000000014004f2f0     libucrtd:winapi_thunks.obj
 0002:0000c308       ??_C@_1M@OAIMIKLP@?$AAn?$AAt?$AAd?$AAl?$AAl@ 000000014004f308     libucrtd:winapi_thunks.obj
 0002:0000c320       ??_C@_1EG@DPGNFKGC@?$AAa?$AAp?$AAi?$AA?9?$AAm?$AAs?$AA?9?$AAw?$AAi?$AAn?$AA?9?$AAa?$AAp?$AAp?$AAm@ 000000014004f320     libucrtd:winapi_thunks.obj
 0002:0000c368       ??_C@_1O@BCCLBEOE@?$AAu?$AAs?$AAe?$AAr?$AA3?$AA2@ 000000014004f368     libucrtd:winapi_thunks.obj
 0002:0000c378       ??_C@_1BA@IAIFMGEF@?$AAe?$AAx?$AAt?$AA?9?$AAm?$AAs?$AA?9@ 000000014004f378     libucrtd:winapi_thunks.obj
 0002:0000c390       ??_C@_1HE@OILMBOBA@?$AAm?$AAi?$AAn?$AAk?$AAe?$AAr?$AAn?$AAe?$AAl?$AA?2?$AAc?$AAr?$AAt?$AAs?$AA?2@ 000000014004f390     libucrtd:winapi_thunks.obj
 0002:0000c408       ??_C@_0BA@FHFNEAED@AreFileApisANSI@ 000000014004f408     libucrtd:winapi_thunks.obj
 0002:0000c440       ??_C@_0BA@HNOPNCHB@GetActiveWindow@ 000000014004f440     libucrtd:winapi_thunks.obj
 0002:0000c458       ??_C@_0BD@HHGDFDBJ@GetLastActivePopup@ 000000014004f458     libucrtd:winapi_thunks.obj
 0002:0000c478       ??_C@_0BI@DFKBFLJE@GetProcessWindowStation@ 000000014004f478     libucrtd:winapi_thunks.obj
 0002:0000c498       ??_C@_0BK@DEKFELLI@GetUserObjectInformationW@ 000000014004f498     libucrtd:winapi_thunks.obj
 0002:0000c4c8       ??_C@_0O@KKBNKAPF@LCMapStringEx@ 000000014004f4c8     libucrtd:winapi_thunks.obj
 0002:0000c4e0       ??_C@_0BB@HBDEELFH@LocaleNameToLCID@ 000000014004f4e0     libucrtd:winapi_thunks.obj
 0002:0000c500       ??_C@_0M@CHKKJDAI@MessageBoxA@ 000000014004f500     libucrtd:winapi_thunks.obj
 0002:0000c518       ??_C@_0M@DLDCCGNP@MessageBoxW@ 000000014004f518     libucrtd:winapi_thunks.obj
 0002:0000c528       ??_C@_0CF@OJOFEIGO@AppPolicyGetProcessTerminationM@ 000000014004f528     libucrtd:winapi_thunks.obj
 0002:0000c558       ??_C@_0CE@OICFMIKE@AppPolicyGetShowDeveloperDiagno@ 000000014004f558     libucrtd:winapi_thunks.obj
 0002:0000c580       ??_C@_0BL@ODDJNEDA@AppPolicyGetWindowingModel@ 000000014004f580     libucrtd:winapi_thunks.obj
 0002:0000c5a0       ??_C@_1GC@GBMDABED@?$AAm?$AAi?$AAn?$AAk?$AAe?$AAr?$AAn?$AAe?$AAl?$AA?2?$AAc?$AAr?$AAt?$AAs?$AA?2@ 000000014004f5a0     libucrtd:_sftbuf.obj
 0002:0000c608       ??_C@_0DB@EPIHMFLB@minkernel?2crts?2ucrt?2src?2appcrt?2@ 000000014004f608     libucrtd:_sftbuf.obj
 0002:0000c640       ??_C@_1FO@GEKPJHID@?$AAm?$AAi?$AAn?$AAk?$AAe?$AAr?$AAn?$AAe?$AAl?$AA?2?$AAc?$AAr?$AAt?$AAs?$AA?2@ 000000014004f640     libucrtd:expand.obj
 0002:0000c6a0       ??_C@_1BK@JMCGJOCC@?$AA_?$AAe?$AAx?$AAp?$AAa?$AAn?$AAd?$AA_?$AAb?$AAa?$AAs?$AAe@ 000000014004f6a0     libucrtd:expand.obj
 0002:0000c6c0       ??_C@_1BBC@DECGKMGJ@?$AA_?$AAl?$AAo?$AAc?$AA_?$AAu?$AAp?$AAd?$AAa?$AAt?$AAe?$AA?4?$AAG?$AAe?$AAt@ 000000014004f6c0     libucrtd:mbtowc.obj
 0002:0000c7e0       ??_C@_1GE@CGIHMDEJ@?$AAm?$AAi?$AAn?$AAk?$AAe?$AAr?$AAn?$AAe?$AAl?$AA?2?$AAc?$AAr?$AAt?$AAs?$AA?2@ 000000014004f7e0     libucrtd:mbtowc.obj
 0002:0000c850       ??_C@_1HA@KNBGJAIN@?$AAU?$AAT?$AAF?$AA?9?$AA8?$AA?5?$AAi?$AAs?$AAn?$AA?8?$AAt?$AA?5?$AAs?$AAu?$AAp@ 000000014004f850     libucrtd:mbtowc.obj
 0002:0000c8c0       ??_C@_1BBA@EIIJPPL@?$AA_?$AAl?$AAo?$AAc?$AA_?$AAu?$AAp?$AAd?$AAa?$AAt?$AAe?$AA?4?$AAG?$AAe?$AAt@ 000000014004f8c0     libucrtd:mbtowc.obj
 0002:0000c9d0       ??_C@_1IE@CDCHDACI@?$AA_?$AAl?$AAo?$AAc?$AA_?$AAu?$AAp?$AAd?$AAa?$AAt?$AAe?$AA?4?$AAG?$AAe?$AAt@ 000000014004f9d0     libucrtd:mbtowc.obj
 0002:0000ca58       ??_C@_1DK@NBNOAGKB@?$AAd?$AAe?$AAs?$AAt?$AAi?$AAn?$AAa?$AAt?$AAi?$AAo?$AAn?$AA_?$AAc?$AAo?$AAu@ 000000014004fa58     libucrtd:wctomb.obj
 0002:0000caa0       ??_C@_1GE@FCCEPHFG@?$AAm?$AAi?$AAn?$AAk?$AAe?$AAr?$AAn?$AAe?$AAl?$AA?2?$AAc?$AAr?$AAt?$AAs?$AA?2@ 000000014004faa0     libucrtd:wctomb.obj
 0002:0000cb08       ??_C@_1BI@IEADNOHF@?$AA_?$AAw?$AAc?$AAt?$AAo?$AAm?$AAb?$AA_?$AAs?$AA_?$AAl@ 000000014004fb08     libucrtd:wctomb.obj
 0002:0000cb20       ??_C@_1CM@ENFEGCNE@?$AAd?$AAe?$AAs?$AAt?$AAi?$AAn?$AAa?$AAt?$AAi?$AAo?$AAn?$AA_?$AAc?$AAo?$AAu@ 000000014004fb20     libucrtd:wctomb.obj
 0002:0000cc00       ??_C@_03OEIAHPBN@INF@      000000014004fc00     libucrtd:cvt.obj
 0002:0000cc04       ??_C@_03OJHLLCGB@inf@      000000014004fc04     libucrtd:cvt.obj
 0002:0000cc08       ??_C@_03LKNCIKJB@NAN@      000000014004fc08     libucrtd:cvt.obj
 0002:0000cc0c       ??_C@_03LHCJEHON@nan@      000000014004fc0c     libucrtd:cvt.obj
 0002:0000cc10       ??_C@_09OFJJIMPC@NAN?$CISNAN?$CJ@ 000000014004fc10     libucrtd:cvt.obj
 0002:0000cc20       ??_C@_09IPFBKMDL@nan?$CIsnan?$CJ@ 000000014004fc20     libucrtd:cvt.obj
 0002:0000cc30       ??_C@_08IKHNHAJ@NAN?$CIIND?$CJ@ 000000014004fc30     libucrtd:cvt.obj
 0002:0000cc40       ??_C@_08OFCDMILK@nan?$CIind?$CJ@ 000000014004fc40     libucrtd:cvt.obj
 0002:0000cc50       ??_C@_1FO@GKAKAPLI@?$AAm?$AAi?$AAn?$AAk?$AAe?$AAr?$AAn?$AAe?$AAl?$AA?2?$AAc?$AAr?$AAt?$AAs?$AA?2@ 000000014004fc50     libucrtd:cvt.obj
 0002:0000ccb0       ??_C@_1DE@EHGIGIDK@?$AAf?$AAp?$AA_?$AAf?$AAo?$AAr?$AAm?$AAa?$AAt?$AA_?$AAn?$AAa?$AAn?$AA_?$AAo@ 000000014004fcb0     libucrtd:cvt.obj
 0002:0000ccf0       ??_C@_1LI@PCMLJPCO@?$AAs?$AAt?$AAr?$AAc?$AAp?$AAy?$AA_?$AAs?$AA?$CI?$AA?5?$AAr?$AAe?$AAs?$AAu?$AAl@ 000000014004fcf0     libucrtd:cvt.obj
 0002:0000cdb0       ??_C@_1KO@LJHOFBCD@?$AAr?$AAe?$AAs?$AAu?$AAl?$AAt?$AA_?$AAb?$AAu?$AAf?$AAf?$AAe?$AAr?$AA_?$AAc@ 000000014004fdb0     libucrtd:cvt.obj
 0002:0000ce60       ??_C@_1CK@BOLHOMFO@?$AAf?$AAp?$AA_?$AAf?$AAo?$AAr?$AAm?$AAa?$AAt?$AA_?$AAe?$AA_?$AAi?$AAn?$AAt@ 000000014004fe60     libucrtd:cvt.obj
 0002:0000ce90       ??_C@_1BBE@LHDOMEDC@?$AAs?$AAt?$AAr?$AAc?$AAp?$AAy?$AA_?$AAs?$AA?$CI?$AA?5?$AAp?$AA?0?$AA?5?$AAr?$AAe@ 000000014004fe90     libucrtd:cvt.obj
 0002:0000cfa4       ??_C@_05KLBDPFGC@e?$CL000@ 000000014004ffa4     libucrtd:cvt.obj
 0002:0000cfb0       ??_C@_1IC@FILKPBAB@?$AAr?$AAe?$AAs?$AAu?$AAl?$AAt?$AA_?$AAb?$AAu?$AAf?$AAf?$AAe?$AAr?$AA_?$AAc@ 000000014004ffb0     libucrtd:cvt.obj
 0002:0000d038       ??_C@_1BI@PNBDLNBB@?$AAf?$AAp?$AA_?$AAf?$AAo?$AAr?$AAm?$AAa?$AAt?$AA_?$AAa@ 0000000140050038     libucrtd:cvt.obj
 0002:0000d050       ??_C@_1DC@MGKAFPFD@?$AAr?$AAe?$AAs?$AAu?$AAl?$AAt?$AA_?$AAb?$AAu?$AAf?$AAf?$AAe?$AAr?$AA?5?$AA?$CB@ 0000000140050050     libucrtd:cvt.obj
 0002:0000d088       ??_C@_1CC@LDAHJAKK@?$AA_?$AA_?$AAa?$AAc?$AAr?$AAt?$AA_?$AAf?$AAp?$AA_?$AAf?$AAo?$AAr?$AAm?$AAa@ 0000000140050088     libucrtd:cvt.obj
 0002:0000d0b0       ??_C@_1DA@NMLJJOCO@?$AAr?$AAe?$AAs?$AAu?$AAl?$AAt?$AA_?$AAb?$AAu?$AAf?$AAf?$AAe?$AAr?$AA_?$AAc@ 00000001400500b0     libucrtd:cvt.obj
 0002:0000d0e0       ??_C@_1DE@MNOPBCOK@?$AAs?$AAc?$AAr?$AAa?$AAt?$AAc?$AAh?$AA_?$AAb?$AAu?$AAf?$AAf?$AAe?$AAr?$AA?5@ 00000001400500e0     libucrtd:cvt.obj
 0002:0000d118       ??_C@_1DC@CKBKNFKH@?$AAs?$AAc?$AAr?$AAa?$AAt?$AAc?$AAh?$AA_?$AAb?$AAu?$AAf?$AAf?$AAe?$AAr?$AA_@ 0000000140050118     libucrtd:cvt.obj
 0002:0000d150       ??_C@_1EI@JAHBOGIM@?$AA?$CI?$AA?$CC?$AAU?$AAn?$AAs?$AAu?$AAp?$AAp?$AAo?$AAr?$AAt?$AAe?$AAd?$AA?5?$AAf@ 0000000140050150     libucrtd:cvt.obj
 0002:0000d1a0       ??_C@_1GA@KCAHHNGP@?$AAm?$AAi?$AAn?$AAk?$AAe?$AAr?$AAn?$AAe?$AAl?$AA?2?$AAc?$AAr?$AAt?$AAs?$AA?2@ 00000001400501a0     libucrtd:fileno.obj
 0002:0000d200       ??_C@_1BA@JGHIEKKM@?$AA_?$AAf?$AAi?$AAl?$AAe?$AAn?$AAo@ 0000000140050200     libucrtd:fileno.obj
 0002:0000d210       ??_C@_1GA@LFAOKOOP@?$AAm?$AAi?$AAn?$AAk?$AAe?$AAr?$AAn?$AAe?$AAl?$AA?2?$AAc?$AAr?$AAt?$AAs?$AA?2@ 0000000140050210     libucrtd:dbgrptt.obj
 0002:0000d270       ??_C@_1CA@KHJHLKA@?$AA_?$AAV?$AAC?$AAr?$AAt?$AAD?$AAb?$AAg?$AAR?$AAe?$AAp?$AAo?$AAr?$AAt?$AAA@ 0000000140050270     libucrtd:dbgrptt.obj
 0002:0000d290       ??_C@_1FA@JPHJBHEM@?$AA_?$AAi?$AAt?$AAo?$AAa?$AA_?$AAs?$AA?$CI?$AAn?$AAL?$AAi?$AAn?$AAe?$AA?0?$AA?5@ 0000000140050290     libucrtd:dbgrptt.obj
 0002:0000d2e0       ??_C@_0CG@BNGLOCEO@Second?5Chance?5Assertion?5Failed?3@ 00000001400502e0     libucrtd:dbgrptt.obj
 0002:0000d308       ??_C@_0P@DFJNDPOP@?$DMfile?5unknown?$DO@ 0000000140050308     libucrtd:dbgrptt.obj
 0002:0000d318       ??_C@_07BHGABMGB@?0?5Line?5@ 0000000140050318     libucrtd:dbgrptt.obj
 0002:0000d320       ??_C@_1JI@GAALPGBM@?$AAs?$AAt?$AAr?$AAc?$AAp?$AAy?$AA_?$AAs?$AA?$CI?$AAs?$AAz?$AAU?$AAs?$AAe?$AAr@ 0000000140050320     libucrtd:dbgrptt.obj
 0002:0000d3b8       ??_C@_0CL@EACFGMNB@_CrtDbgReport?3?5String?5too?5long?5@ 00000001400503b8     libucrtd:dbgrptt.obj
 0002:0000d3f0       ??_C@_1KK@GIGAEDMO@?$AAs?$AAt?$AAr?$AAc?$AAp?$AAy?$AA_?$AAs?$AA?$CI?$AAs?$AAz?$AAL?$AAi?$AAn?$AAe@ 00000001400503f0     libucrtd:dbgrptt.obj
 0002:0000d4a0       ??_C@_0BD@CAENFOHP@Assertion?5failed?3?5@ 00000001400504a0     libucrtd:dbgrptt.obj
 0002:0000d4c0       ??_C@_1FK@NPGBPOFO@?$AAs?$AAt?$AAr?$AAc?$AAa?$AAt?$AA_?$AAs?$AA?$CI?$AAs?$AAz?$AAL?$AAi?$AAn?$AAe@ 00000001400504c0     libucrtd:dbgrptt.obj
 0002:0000d520       ??_C@_1EI@CACDLAFK@?$AAs?$AAt?$AAr?$AAc?$AAa?$AAt?$AA_?$AAs?$AA?$CI?$AAs?$AAz?$AAL?$AAi?$AAn?$AAe@ 0000000140050520     libucrtd:dbgrptt.obj
 0002:0000d568       ??_C@_01LIIJDEN@?$AN@      0000000140050568     libucrtd:dbgrptt.obj
 0002:0000d570       ??_C@_1EI@LDHJEDO@?$AAs?$AAt?$AAr?$AAc?$AAa?$AAt?$AA_?$AAs?$AA?$CI?$AAs?$AAz?$AAL?$AAi?$AAn?$AAe@ 0000000140050570     libucrtd:dbgrptt.obj
 0002:0000d5b8       ??_C@_0M@IPILFDFN@?$CFs?$CI?$CFd?$CJ?5?3?5?$CFs@ 00000001400505b8     libucrtd:dbgrptt.obj
 0002:0000d5d0       ??_C@_1JG@CPKCIOEE@?$AAs?$AAt?$AAr?$AAc?$AAp?$AAy?$AA_?$AAs?$AA?$CI?$AAs?$AAz?$AAO?$AAu?$AAt?$AAM@ 00000001400505d0     libucrtd:dbgrptt.obj
 0002:0000d670       ??_C@_1FI@IBIOIHEG@?$AAs?$AAt?$AAr?$AAc?$AAp?$AAy?$AA_?$AAs?$AA?$CI?$AAs?$AAz?$AAO?$AAu?$AAt?$AAM@ 0000000140050670     libucrtd:dbgrptt.obj
 0002:0000d6d0       ??_C@_1IM@OOKIFKOH@?$AAe?$AA?5?$AA?$DN?$AA?5?$AAm?$AAb?$AAs?$AAt?$AAo?$AAw?$AAc?$AAs?$AA_?$AAs?$AA?$CI@ 00000001400506d0     libucrtd:dbgrptt.obj
 0002:0000d760       ??_C@_1MC@IGEECMDB@?$AAw?$AAc?$AAs?$AAc?$AAp?$AAy?$AA_?$AAs?$AA?$CI?$AAs?$AAz?$AAO?$AAu?$AAt?$AAM@ 0000000140050760     libucrtd:dbgrptt.obj
 0002:0000d830       ??_C@_1HO@PJOFIKFE@?$AA_?$AAC?$AAr?$AAt?$AAD?$AAb?$AAg?$AAR?$AAe?$AAp?$AAo?$AAr?$AAt?$AA?3?$AA?5@ 0000000140050830     libucrtd:dbgrptt.obj
 0002:0000d8b0       ??_C@_1CA@HPALHDOD@?$AA_?$AAV?$AAC?$AAr?$AAt?$AAD?$AAb?$AAg?$AAR?$AAe?$AAp?$AAo?$AAr?$AAt?$AAW@ 00000001400508b0     libucrtd:dbgrptt.obj
 0002:0000d8d0       ??_C@_1FA@CNLLOMHI@?$AA_?$AAi?$AAt?$AAo?$AAw?$AA_?$AAs?$AA?$CI?$AAn?$AAL?$AAi?$AAn?$AAe?$AA?0?$AA?5@ 00000001400508d0     libucrtd:dbgrptt.obj
 0002:0000d920       ??_C@_1EM@MJFLEDMB@?$AAS?$AAe?$AAc?$AAo?$AAn?$AAd?$AA?5?$AAC?$AAh?$AAa?$AAn?$AAc?$AAe?$AA?5?$AAA@ 0000000140050920     libucrtd:dbgrptt.obj
 0002:0000d970       ??_C@_1BO@OCHMLCAG@?$AA?$DM?$AAf?$AAi?$AAl?$AAe?$AA?5?$AAu?$AAn?$AAk?$AAn?$AAo?$AAw?$AAn?$AA?$DO@ 0000000140050970     libucrtd:dbgrptt.obj
 0002:0000d990       ??_C@_1BA@ELMMDCFC@?$AA?0?$AA?5?$AAL?$AAi?$AAn?$AAe?$AA?5@ 0000000140050990     libucrtd:dbgrptt.obj
 0002:0000d9a0       ??_C@_1JK@KHFABAEO@?$AAw?$AAc?$AAs?$AAc?$AAp?$AAy?$AA_?$AAs?$AA?$CI?$AAs?$AAz?$AAU?$AAs?$AAe?$AAr@ 00000001400509a0     libucrtd:dbgrptt.obj
 0002:0000da40       ??_C@_1KO@DGAHENCH@?$AAw?$AAc?$AAs?$AAc?$AAp?$AAy?$AA_?$AAs?$AA?$CI?$AAs?$AAz?$AAL?$AAi?$AAn?$AAe@ 0000000140050a40     libucrtd:dbgrptt.obj
 0002:0000daf0       ??_C@_1CG@FFFGGODN@?$AAA?$AAs?$AAs?$AAe?$AAr?$AAt?$AAi?$AAo?$AAn?$AA?5?$AAf?$AAa?$AAi?$AAl?$AAe@ 0000000140050af0     libucrtd:dbgrptt.obj
 0002:0000db20       ??_C@_1FK@HPADHBBD@?$AAw?$AAc?$AAs?$AAc?$AAa?$AAt?$AA_?$AAs?$AA?$CI?$AAs?$AAz?$AAL?$AAi?$AAn?$AAe@ 0000000140050b20     libucrtd:dbgrptt.obj
 0002:0000db80       ??_C@_1EK@NMDFGHMF@?$AAw?$AAc?$AAs?$AAc?$AAa?$AAt?$AA_?$AAs?$AA?$CI?$AAs?$AAz?$AAL?$AAi?$AAn?$AAe@ 0000000140050b80     libucrtd:dbgrptt.obj
 0002:0000dbcc       ??_C@_13CMNBPIDO@?$AA?$AN@ 0000000140050bcc     libucrtd:dbgrptt.obj
 0002:0000dbd0       ??_C@_1EK@PHCBEDKB@?$AAw?$AAc?$AAs?$AAc?$AAa?$AAt?$AA_?$AAs?$AA?$CI?$AAs?$AAz?$AAL?$AAi?$AAn?$AAe@ 0000000140050bd0     libucrtd:dbgrptt.obj
 0002:0000dc20       ??_C@_1BM@GIBPMLNL@?$AA?$CF?$AAl?$AAs?$AA?$CI?$AA?$CF?$AAd?$AA?$CJ?$AA?5?$AA?3?$AA?5?$AA?$CF?$AAl?$AAs@ 0000000140050c20     libucrtd:dbgrptt.obj
 0002:0000dc40       ??_C@_1JI@EACPGHID@?$AAw?$AAc?$AAs?$AAc?$AAp?$AAy?$AA_?$AAs?$AA?$CI?$AAs?$AAz?$AAO?$AAu?$AAt?$AAM@ 0000000140050c40     libucrtd:dbgrptt.obj
 0002:0000dce0       ??_C@_1FI@DBAIJPJE@?$AAw?$AAc?$AAs?$AAc?$AAp?$AAy?$AA_?$AAs?$AA?$CI?$AAs?$AAz?$AAO?$AAu?$AAt?$AAM@ 0000000140050ce0     libucrtd:dbgrptt.obj
 0002:0000dd40       ??_C@_1IK@LEBMBAP@?$AAw?$AAc?$AAs?$AAt?$AAo?$AAm?$AAb?$AAs?$AA_?$AAs?$AA?$CI?$AAn?$AAu?$AAl?$AAl@ 0000000140050d40     libucrtd:dbgrptt.obj
 0002:0000ddd0       ??_C@_1MA@LBAMNNOB@?$AAs?$AAt?$AAr?$AAc?$AAp?$AAy?$AA_?$AAs?$AA?$CI?$AAs?$AAz?$AAO?$AAu?$AAt?$AAM@ 0000000140050dd0     libucrtd:dbgrptt.obj
 0002:0000de90       ??_C@_0DP@GNPEPHJD@_CrtDbgReport?3?5String?5too?5long?5@ 0000000140050e90     libucrtd:dbgrptt.obj
 0002:0000ded0       ??_C@_1IE@CPGKIAGP@?$AAw?$AAc?$AAs?$AAt?$AAo?$AAm?$AAb?$AAs?$AA_?$AAs?$AA?$CI?$AA?$CG?$AAr?$AAe?$AAt@ 0000000140050ed0     libucrtd:dbgrptt.obj
 0002:0000df60       ??_C@_1GE@GPOPIOIG@?$AAm?$AAi?$AAn?$AAk?$AAe?$AAr?$AAn?$AAe?$AAl?$AA?2?$AAc?$AAr?$AAt?$AAs?$AA?2@ 0000000140050f60     libucrtd:_freebuf.obj
 0002:0000dfd0       ??_C@_1GA@MPOOLHCO@?$AAm?$AAi?$AAn?$AAk?$AAe?$AAr?$AAn?$AAe?$AAl?$AA?2?$AAc?$AAr?$AAt?$AAs?$AA?2@ 0000000140050fd0     libucrtd:commit.obj
 0002:0000e030       ??_C@_1BA@FLNMBBIM@?$AA_?$AAc?$AAo?$AAm?$AAm?$AAi?$AAt@ 0000000140051030     libucrtd:commit.obj
 0002:0000e040       ??_C@_1FO@CAMPMGCN@?$AAm?$AAi?$AAn?$AAk?$AAe?$AAr?$AAn?$AAe?$AAl?$AA?2?$AAc?$AAr?$AAt?$AAs?$AA?2@ 0000000140051040     libucrtd:write.obj
 0002:0000e0a0       ??_C@_1O@KOFKDHPL@?$AA_?$AAw?$AAr?$AAi?$AAt?$AAe@ 00000001400510a0     libucrtd:write.obj
 0002:0000e0b0       ??_C@_1CK@MMEFCHHN@?$AA?$CB?$AA_?$AAd?$AAb?$AAc?$AAs?$AAB?$AAu?$AAf?$AAf?$AAe?$AAr?$AAU?$AAs?$AAe@ 00000001400510b0     libucrtd:write.obj
 0002:0000e0e0       ??_C@_1EG@LICJGLJJ@?$AA1?$AA?5?$AA?$DM?$AA?5?$AAm?$AAb?$AA_?$AAl?$AAe?$AAn?$AA?5?$AA?$CG?$AA?$CG?$AA?5?$AAm@ 00000001400510e0     libucrtd:write.obj
 0002:0000e130       ??_C@_1FC@NFILPJB@?$AAm?$AAb?$AA_?$AAb?$AAu?$AAf?$AA_?$AAu?$AAs?$AAe?$AAd?$AA?5?$AA?$CL?$AA?5?$AAb@ 0000000140051130     libucrtd:write.obj
 0002:0000e190       ??_C@_1FC@HEJOPHLA@?$AAa?$AAv?$AAa?$AAi?$AAl?$AAa?$AAb?$AAl?$AAe?$AA_?$AAb?$AAy?$AAt?$AAe?$AAs@ 0000000140051190     libucrtd:write.obj
 0002:0000e1e8       ??_C@_1DI@CNMHHHLG@?$AAi?$AAs?$AAl?$AAe?$AAa?$AAd?$AAb?$AAy?$AAt?$AAe?$AA?$CI?$AA_?$AAd?$AAb?$AAc@ 00000001400511e8     libucrtd:write.obj
 0002:0000e220       ??_C@_1BM@NCANHCIP@?$AA_?$AAw?$AAr?$AAi?$AAt?$AAe?$AA_?$AAn?$AAo?$AAl?$AAo?$AAc?$AAk@ 0000000140051220     libucrtd:write.obj
 0002:0000e240       ??_C@_1CK@CPEAGIIP@?$AAb?$AAu?$AAf?$AAf?$AAe?$AAr?$AA_?$AAs?$AAi?$AAz?$AAe?$AA?5?$AA?$CF?$AA?5?$AA2@ 0000000140051240     libucrtd:write.obj
 0002:0000e298       ??_C@_1DI@OOEEHOBJ@?$AAb?$AAa?$AAs?$AAe?$AA?5?$AA?$CB?$AA?$DN?$AA?5?$AAn?$AAu?$AAl?$AAl?$AAp?$AAt?$AAr@ 0000000140051298     libucrtd:qsort.obj
 0002:0000e2d0       ??_C@_1GA@KPPCKKGE@?$AAm?$AAi?$AAn?$AAk?$AAe?$AAr?$AAn?$AAe?$AAl?$AA?2?$AAc?$AAr?$AAt?$AAs?$AA?2@ 00000001400512d0     libucrtd:qsort.obj
 0002:0000e330       ??_C@_1M@INMHODIG@?$AAq?$AAs?$AAo?$AAr?$AAt@ 0000000140051330     libucrtd:qsort.obj
 0002:0000e340       ??_C@_1BE@NJBEBBME@?$AAw?$AAi?$AAd?$AAt?$AAh?$AA?5?$AA?$DO?$AA?5?$AA0@ 0000000140051340     libucrtd:qsort.obj
 0002:0000e358       ??_C@_1CA@LIDFOMIN@?$AAc?$AAo?$AAm?$AAp?$AA?5?$AA?$CB?$AA?$DN?$AA?5?$AAn?$AAu?$AAl?$AAl?$AAp?$AAt?$AAr@ 0000000140051358     libucrtd:qsort.obj
 0002:0000e378       ??_C@_1CE@BLLJFLOH@?$AAs?$AAt?$AAr?$AAi?$AAn?$AAg?$AA?5?$AA?$CB?$AA?$DN?$AA?5?$AAn?$AAu?$AAl?$AAl?$AAp@ 0000000140051378     libucrtd:mbsdec.obj
 0002:0000e3a0       ??_C@_1GO@DDOMFNGF@?$AAm?$AAi?$AAn?$AAk?$AAe?$AAr?$AAn?$AAe?$AAl?$AA?2?$AAc?$AAr?$AAt?$AAs?$AA?2@ 00000001400513a0     libucrtd:mbsdec.obj
 0002:0000e410       ??_C@_1BE@KLNCOLCD@?$AA_?$AAm?$AAb?$AAs?$AAd?$AAe?$AAc?$AA_?$AAl@ 0000000140051410     libucrtd:mbsdec.obj
 0002:0000e428       ??_C@_1CG@CMGPGAOD@?$AAc?$AAu?$AAr?$AAr?$AAe?$AAn?$AAt?$AA?5?$AA?$CB?$AA?$DN?$AA?5?$AAn?$AAu?$AAl?$AAl@ 0000000140051428     libucrtd:mbsdec.obj
 0002:0000e450       ??_C@_0DH@IKPCBLP@minkernel?2crts?2ucrt?2src?2appcrt?2@ 0000000140051450     libucrtd:lcmapstringa.obj
 0002:0000f2d0       ??_C@_15EMKDOKLE@?$AAa?$AAr@ 00000001400522d0     libucrtd:lcidtoname_downlevel.obj
 0002:0000f2d8       ??_C@_15KNPADPLH@?$AAb?$AAg@ 00000001400522d8     libucrtd:lcidtoname_downlevel.obj
 0002:0000f2e0       ??_C@_15EDMHLDMO@?$AAc?$AAa@ 00000001400522e0     libucrtd:lcidtoname_downlevel.obj
 0002:0000f2e8       ??_C@_1O@BPEAJADD@?$AAz?$AAh?$AA?9?$AAC?$AAH?$AAS@ 00000001400522e8     libucrtd:lcidtoname_downlevel.obj
 0002:0000f2f8       ??_C@_15LJNHCMNK@?$AAc?$AAs@ 00000001400522f8     libucrtd:lcidtoname_downlevel.obj
 0002:0000f300       ??_C@_15FOMCIDHG@?$AAd?$AAa@ 0000000140052300     libucrtd:lcidtoname_downlevel.obj
 0002:0000f308       ??_C@_15NBKABECB@?$AAd?$AAe@ 0000000140052308     libucrtd:lcidtoname_downlevel.obj
 0002:0000f310       ??_C@_15GHPEIIAO@?$AAe?$AAl@ 0000000140052310     libucrtd:lcidtoname_downlevel.obj
 0002:0000f318       ??_C@_15MNPNEAIF@?$AAe?$AAn@ 0000000140052318     libucrtd:lcidtoname_downlevel.obj
 0002:0000f320       ??_C@_15GPIOMPMH@?$AAe?$AAs@ 0000000140052320     libucrtd:lcidtoname_downlevel.obj
 0002:0000f328       ??_C@_15NGLOAKJC@?$AAf?$AAi@ 0000000140052328     libucrtd:lcidtoname_downlevel.obj
 0002:0000f330       ??_C@_15FBKGNKAM@?$AAf?$AAr@ 0000000140052330     libucrtd:lcidtoname_downlevel.obj
 0002:0000f338       ??_C@_15KGGCNEFK@?$AAh?$AAe@ 0000000140052338     libucrtd:lcidtoname_downlevel.obj
 0002:0000f340       ??_C@_15PGHLIDMF@?$AAh?$AAu@ 0000000140052340     libucrtd:lcidtoname_downlevel.obj
 0002:0000f348       ??_C@_15BIEMAPLM@?$AAi?$AAs@ 0000000140052348     libucrtd:lcidtoname_downlevel.obj
 0002:0000f350       ??_C@_15IFJLDHAF@?$AAi?$AAt@ 0000000140052350     libucrtd:lcidtoname_downlevel.obj
 0002:0000f358       ??_C@_15GEMIOCAG@?$AAj?$AAa@ 0000000140052358     libucrtd:lcidtoname_downlevel.obj
 0002:0000f360       ??_C@_15EPELEGJA@?$AAk?$AAo@ 0000000140052360     libucrtd:lcidtoname_downlevel.obj
 0002:0000f368       ??_C@_15NDDHIMN@?$AAn?$AAl@ 0000000140052368     libucrtd:lcidtoname_downlevel.obj
 0002:0000f370       ??_C@_15BPIGNHCD@?$AAn?$AAo@ 0000000140052370     libucrtd:lcidtoname_downlevel.obj
 0002:0000f378       ??_C@_15DEOPBLCG@?$AAp?$AAl@ 0000000140052378     libucrtd:lcidtoname_downlevel.obj
 0002:0000f380       ??_C@_15KBECGEFG@?$AAp?$AAt@ 0000000140052380     libucrtd:lcidtoname_downlevel.obj
 0002:0000f388       ??_C@_15GLJCBFMD@?$AAr?$AAo@ 0000000140052388     libucrtd:lcidtoname_downlevel.obj
 0002:0000f390       ??_C@_15FEDGKCDI@?$AAr?$AAu@ 0000000140052390     libucrtd:lcidtoname_downlevel.obj
 0002:0000f398       ??_C@_15GLKMLLHM@?$AAh?$AAr@ 0000000140052398     libucrtd:lcidtoname_downlevel.obj
 0002:0000f3a0       ??_C@_15CPKMFBDB@?$AAs?$AAk@ 00000001400523a0     libucrtd:lcidtoname_downlevel.obj
 0002:0000f3a8       ??_C@_15BAAIOGMK@?$AAs?$AAq@ 00000001400523a8     libucrtd:lcidtoname_downlevel.obj
 0002:0000f3b0       ??_C@_15INNPNOHD@?$AAs?$AAv@ 00000001400523b0     libucrtd:lcidtoname_downlevel.obj
 0002:0000f3b8       ??_C@_15CABMMOGH@?$AAt?$AAh@ 00000001400523b8     libucrtd:lcidtoname_downlevel.obj
 0002:0000f3c0       ??_C@_15BPLIHJJM@?$AAt?$AAr@ 00000001400523c0     libucrtd:lcidtoname_downlevel.obj
 0002:0000f3c8       ??_C@_15NEOEKKDJ@?$AAu?$AAr@ 00000001400523c8     libucrtd:lcidtoname_downlevel.obj
 0002:0000f3d0       ??_C@_15NFICGAJK@?$AAi?$AAd@ 00000001400523d0     libucrtd:lcidtoname_downlevel.obj
 0002:0000f3d8       ??_C@_15HPJPHDM@?$AAb?$AAe@ 00000001400523d8     libucrtd:lcidtoname_downlevel.obj
 0002:0000f3e0       ??_C@_15LCHLGJII@?$AAs?$AAl@ 00000001400523e0     libucrtd:lcidtoname_downlevel.obj
 0002:0000f3e8       ??_C@_15PCFJPHHO@?$AAe?$AAt@ 00000001400523e8     libucrtd:lcidtoname_downlevel.obj
 0002:0000f3f0       ??_C@_15HPFPGODN@?$AAl?$AAv@ 00000001400523f0     libucrtd:lcidtoname_downlevel.obj
 0002:0000f3f8       ??_C@_15NFFGKGLG@?$AAl?$AAt@ 00000001400523f8     libucrtd:lcidtoname_downlevel.obj
 0002:0000f400       ??_C@_15BDAKCCHN@?$AAf?$AAa@ 0000000140052400     libucrtd:lcidtoname_downlevel.obj
 0002:0000f408       ??_C@_15NFGIAIAJ@?$AAv?$AAi@ 0000000140052408     libucrtd:lcidtoname_downlevel.obj
 0002:0000f410       ??_C@_15LMKNDMHN@?$AAh?$AAy@ 0000000140052410     libucrtd:lcidtoname_downlevel.obj
 0002:0000f418       ??_C@_15IJBHMCFL@?$AAa?$AAz@ 0000000140052418     libucrtd:lcidtoname_downlevel.obj
 0002:0000f420       ??_C@_15EKOFJABL@?$AAe?$AAu@ 0000000140052420     libucrtd:lcidtoname_downlevel.obj
 0002:0000f428       ??_C@_15BGHADCNK@?$AAm?$AAk@ 0000000140052428     libucrtd:lcidtoname_downlevel.obj
 0002:0000f430       ??_C@_15JDNICKHM@?$AAa?$AAf@ 0000000140052430     libucrtd:lcidtoname_downlevel.obj
 0002:0000f438       ??_C@_15KPJEDBKD@?$AAk?$AAa@ 0000000140052438     libucrtd:lcidtoname_downlevel.obj
 0002:0000f440       ??_C@_15PDNFFFEO@?$AAf?$AAo@ 0000000140052440     libucrtd:lcidtoname_downlevel.obj
 0002:0000f448       ??_C@_15OMLEGLOC@?$AAh?$AAi@ 0000000140052448     libucrtd:lcidtoname_downlevel.obj
 0002:0000f450       ??_C@_15IDNNENKK@?$AAm?$AAs@ 0000000140052450     libucrtd:lcidtoname_downlevel.obj
 0002:0000f458       ??_C@_15MACJNBMH@?$AAk?$AAk@ 0000000140052458     libucrtd:lcidtoname_downlevel.obj
 0002:0000f460       ??_C@_15DKDJEOND@?$AAk?$AAy@ 0000000140052460     libucrtd:lcidtoname_downlevel.obj
 0002:0000f468       ??_C@_15DFGDLJBG@?$AAs?$AAw@ 0000000140052468     libucrtd:lcidtoname_downlevel.obj
 0002:0000f470       ??_C@_15BBFAICNG@?$AAu?$AAz@ 0000000140052470     libucrtd:lcidtoname_downlevel.obj
 0002:0000f478       ??_C@_15DKNDCGEA@?$AAt?$AAt@ 0000000140052478     libucrtd:lcidtoname_downlevel.obj
 0002:0000f480       ??_C@_15MGIFMDPL@?$AAp?$AAa@ 0000000140052480     libucrtd:lcidtoname_downlevel.obj
 0002:0000f488       ??_C@_15HCNDBBA@?$AAg?$AAu@ 0000000140052488     libucrtd:lcidtoname_downlevel.obj
 0002:0000f490       ??_C@_15FNBEIBON@?$AAt?$AAa@ 0000000140052490     libucrtd:lcidtoname_downlevel.obj
 0002:0000f498       ??_C@_15NCHGBGLK@?$AAt?$AAe@ 0000000140052498     libucrtd:lcidtoname_downlevel.obj
 0002:0000f4a0       ??_C@_15PHPHCBPF@?$AAk?$AAn@ 00000001400524a0     libucrtd:lcidtoname_downlevel.obj
 0002:0000f4a8       ??_C@_15DLGBCKMP@?$AAm?$AAr@ 00000001400524a8     libucrtd:lcidtoname_downlevel.obj
 0002:0000f4b0       ??_C@_15EABBLBFF@?$AAs?$AAa@ 00000001400524b0     libucrtd:lcidtoname_downlevel.obj
 0002:0000f4b8       ??_C@_15CBKOMCOI@?$AAm?$AAn@ 00000001400524b8     libucrtd:lcidtoname_downlevel.obj
 0002:0000f4c0       ??_C@_15CKDMCJAF@?$AAg?$AAl@ 00000001400524c0     libucrtd:lcidtoname_downlevel.obj
 0002:0000f4c8       ??_C@_17CNJFBPG@?$AAk?$AAo?$AAk@ 00000001400524c8     libucrtd:lcidtoname_downlevel.obj
 0002:0000f4d0       ??_C@_17FFBJICPL@?$AAs?$AAy?$AAr@ 00000001400524d0     libucrtd:lcidtoname_downlevel.obj
 0002:0000f4d8       ??_C@_17KPNDCPAF@?$AAd?$AAi?$AAv@ 00000001400524d8     libucrtd:lcidtoname_downlevel.obj
 0002:0000f4e0       ??_C@_1M@OKAHONE@?$AAa?$AAr?$AA?9?$AAS?$AAA@ 00000001400524e0     libucrtd:lcidtoname_downlevel.obj
 0002:0000f4f0       ??_C@_1M@FFFIGIGK@?$AAb?$AAg?$AA?9?$AAB?$AAG@ 00000001400524f0     libucrtd:lcidtoname_downlevel.obj
 0002:0000f500       ??_C@_1M@BJNKEDC@?$AAc?$AAa?$AA?9?$AAE?$AAS@ 0000000140052500     libucrtd:lcidtoname_downlevel.obj
 0002:0000f510       ??_C@_1M@IJJHFJHA@?$AAc?$AAs?$AA?9?$AAC?$AAZ@ 0000000140052510     libucrtd:lcidtoname_downlevel.obj
 0002:0000f520       ??_C@_1M@CLPEOBGI@?$AAd?$AAa?$AA?9?$AAD?$AAK@ 0000000140052520     libucrtd:lcidtoname_downlevel.obj
 0002:0000f530       ??_C@_1M@MCMADGCB@?$AAd?$AAe?$AA?9?$AAD?$AAE@ 0000000140052530     libucrtd:lcidtoname_downlevel.obj
 0002:0000f540       ??_C@_1M@OOCKEMAM@?$AAe?$AAl?$AA?9?$AAG?$AAR@ 0000000140052540     libucrtd:lcidtoname_downlevel.obj
 0002:0000f550       ??_C@_1M@DDNJFGID@?$AAf?$AAi?$AA?9?$AAF?$AAI@ 0000000140052550     libucrtd:lcidtoname_downlevel.obj
 0002:0000f560       ??_C@_1M@GLIPPMAC@?$AAf?$AAr?$AA?9?$AAF?$AAR@ 0000000140052560     libucrtd:lcidtoname_downlevel.obj
 0002:0000f570       ??_C@_1M@GFMCHPE@?$AAh?$AAe?$AA?9?$AAI?$AAL@ 0000000140052570     libucrtd:lcidtoname_downlevel.obj
 0002:0000f580       ??_C@_1M@MHLPGNKM@?$AAh?$AAu?$AA?9?$AAH?$AAU@ 0000000140052580     libucrtd:lcidtoname_downlevel.obj
 0002:0000f590       ??_C@_1M@LPDDNNPN@?$AAi?$AAs?$AA?9?$AAI?$AAS@ 0000000140052590     libucrtd:lcidtoname_downlevel.obj
 0002:0000f5a0       ??_C@_1M@MADIPODN@?$AAi?$AAt?$AA?9?$AAI?$AAT@ 00000001400525a0     libucrtd:lcidtoname_downlevel.obj
 0002:0000f5b0       ??_C@_1M@IHBJJGG@?$AAn?$AAl?$AA?9?$AAN?$AAL@ 00000001400525b0     libucrtd:lcidtoname_downlevel.obj
 0002:0000f5c0       ??_C@_1M@EANAGDL@?$AAn?$AAb?$AA?9?$AAN?$AAO@ 00000001400525c0     libucrtd:lcidtoname_downlevel.obj
 0002:0000f5d0       ??_C@_1M@NEIEMEGP@?$AAp?$AAl?$AA?9?$AAP?$AAL@ 00000001400525d0     libucrtd:lcidtoname_downlevel.obj
 0002:0000f5e0       ??_C@_1M@BOCFIGEP@?$AAp?$AAt?$AA?9?$AAB?$AAR@ 00000001400525e0     libucrtd:lcidtoname_downlevel.obj
 0002:0000f5f0       ??_C@_1M@IMPFOPBG@?$AAr?$AAo?$AA?9?$AAR?$AAO@ 00000001400525f0     libucrtd:lcidtoname_downlevel.obj
 0002:0000f600       ??_C@_1M@IDNNEJMM@?$AAr?$AAu?$AA?9?$AAR?$AAU@ 0000000140052600     libucrtd:lcidtoname_downlevel.obj
 0002:0000f610       ??_C@_1M@LILEEOGM@?$AAh?$AAr?$AA?9?$AAH?$AAR@ 0000000140052610     libucrtd:lcidtoname_downlevel.obj
 0002:0000f620       ??_C@_1M@FKIFEHPB@?$AAs?$AAk?$AA?9?$AAS?$AAK@ 0000000140052620     libucrtd:lcidtoname_downlevel.obj
 0002:0000f630       ??_C@_1M@LJMAMNPJ@?$AAs?$AAq?$AA?9?$AAA?$AAL@ 0000000140052630     libucrtd:lcidtoname_downlevel.obj
 0002:0000f640       ??_C@_1M@GIAKDKJK@?$AAs?$AAv?$AA?9?$AAS?$AAE@ 0000000140052640     libucrtd:lcidtoname_downlevel.obj
 0002:0000f650       ??_C@_1M@MKJKIKCL@?$AAt?$AAh?$AA?9?$AAT?$AAH@ 0000000140052650     libucrtd:lcidtoname_downlevel.obj
 0002:0000f660       ??_C@_1M@MFLCCMPB@?$AAt?$AAr?$AA?9?$AAT?$AAR@ 0000000140052660     libucrtd:lcidtoname_downlevel.obj
 0002:0000f670       ??_C@_1M@OIJHDKJN@?$AAu?$AAr?$AA?9?$AAP?$AAK@ 0000000140052670     libucrtd:lcidtoname_downlevel.obj
 0002:0000f680       ??_C@_1M@LHIPCIEK@?$AAi?$AAd?$AA?9?$AAI?$AAD@ 0000000140052680     libucrtd:lcidtoname_downlevel.obj
 0002:0000f690       ??_C@_1M@MFMOBGI@?$AAu?$AAk?$AA?9?$AAU?$AAA@ 0000000140052690     libucrtd:lcidtoname_downlevel.obj
 0002:0000f6a0       ??_C@_1M@OBGLJIPL@?$AAb?$AAe?$AA?9?$AAB?$AAY@ 00000001400526a0     libucrtd:lcidtoname_downlevel.obj
 0002:0000f6b0       ??_C@_1M@BCFAJEAD@?$AAs?$AAl?$AA?9?$AAS?$AAI@ 00000001400526b0     libucrtd:lcidtoname_downlevel.obj
 0002:0000f6c0       ??_C@_1M@FKFFEDDN@?$AAe?$AAt?$AA?9?$AAE?$AAE@ 00000001400526c0     libucrtd:lcidtoname_downlevel.obj
 0002:0000f6d0       ??_C@_1M@KGKKAACI@?$AAl?$AAv?$AA?9?$AAL?$AAV@ 00000001400526d0     libucrtd:lcidtoname_downlevel.obj
 0002:0000f6e0       ??_C@_1M@IFGBIJO@?$AAl?$AAt?$AA?9?$AAL?$AAT@ 00000001400526e0     libucrtd:lcidtoname_downlevel.obj
 0002:0000f6f0       ??_C@_1M@FGEAHEDM@?$AAf?$AAa?$AA?9?$AAI?$AAR@ 00000001400526f0     libucrtd:lcidtoname_downlevel.obj
 0002:0000f700       ??_C@_1M@KBMAIBFN@?$AAv?$AAi?$AA?9?$AAV?$AAN@ 0000000140052700     libucrtd:lcidtoname_downlevel.obj
 0002:0000f710       ??_C@_1M@GPCBKDJK@?$AAh?$AAy?$AA?9?$AAA?$AAM@ 0000000140052710     libucrtd:lcidtoname_downlevel.obj
 0002:0000f720       ??_C@_1BG@BECMDDJB@?$AAa?$AAz?$AA?9?$AAA?$AAZ?$AA?9?$AAL?$AAa?$AAt?$AAn@ 0000000140052720     libucrtd:lcidtoname_downlevel.obj
 0002:0000f738       ??_C@_1M@MAOFCAEA@?$AAe?$AAu?$AA?9?$AAE?$AAS@ 0000000140052738     libucrtd:lcidtoname_downlevel.obj
 0002:0000f748       ??_C@_1M@IGHABKPI@?$AAm?$AAk?$AA?9?$AAM?$AAK@ 0000000140052748     libucrtd:lcidtoname_downlevel.obj
 0002:0000f758       ??_C@_1M@IAIGNEJG@?$AAt?$AAn?$AA?9?$AAZ?$AAA@ 0000000140052758     libucrtd:lcidtoname_downlevel.obj
 0002:0000f768       ??_C@_1M@IIJCOJFA@?$AAx?$AAh?$AA?9?$AAZ?$AAA@ 0000000140052768     libucrtd:lcidtoname_downlevel.obj
 0002:0000f778       ??_C@_1M@LGPJHNJH@?$AAz?$AAu?$AA?9?$AAZ?$AAA@ 0000000140052778     libucrtd:lcidtoname_downlevel.obj
 0002:0000f788       ??_C@_1M@HOKAOIO@?$AAa?$AAf?$AA?9?$AAZ?$AAA@ 0000000140052788     libucrtd:lcidtoname_downlevel.obj
 0002:0000f798       ??_C@_1M@DPCLHLIE@?$AAk?$AAa?$AA?9?$AAG?$AAE@ 0000000140052798     libucrtd:lcidtoname_downlevel.obj
 0002:0000f7a8       ??_C@_1M@BLKMHJBI@?$AAf?$AAo?$AA?9?$AAF?$AAO@ 00000001400527a8     libucrtd:lcidtoname_downlevel.obj
 0002:0000f7b8       ??_C@_1M@LGGJAPPB@?$AAh?$AAi?$AA?9?$AAI?$AAN@ 00000001400527b8     libucrtd:lcidtoname_downlevel.obj
 0002:0000f7c8       ??_C@_1M@FIKPIHFE@?$AAm?$AAt?$AA?9?$AAM?$AAT@ 00000001400527c8     libucrtd:lcidtoname_downlevel.obj
 0002:0000f7d8       ??_C@_1M@HEGGPBFA@?$AAs?$AAe?$AA?9?$AAN?$AAO@ 00000001400527d8     libucrtd:lcidtoname_downlevel.obj
 0002:0000f7e8       ??_C@_1M@EIBJEEPA@?$AAm?$AAs?$AA?9?$AAM?$AAY@ 00000001400527e8     libucrtd:lcidtoname_downlevel.obj
 0002:0000f7f8       ??_C@_1M@FHLBGMPP@?$AAk?$AAk?$AA?9?$AAK?$AAZ@ 00000001400527f8     libucrtd:lcidtoname_downlevel.obj
 0002:0000f808       ??_C@_1M@NGJJLCGI@?$AAk?$AAy?$AA?9?$AAK?$AAG@ 0000000140052808     libucrtd:lcidtoname_downlevel.obj
 0002:0000f818       ??_C@_1M@GIENNBFC@?$AAs?$AAw?$AA?9?$AAK?$AAE@ 0000000140052818     libucrtd:lcidtoname_downlevel.obj
 0002:0000f828       ??_C@_1BG@NDGMJIMJ@?$AAu?$AAz?$AA?9?$AAU?$AAZ?$AA?9?$AAL?$AAa?$AAt?$AAn@ 0000000140052828     libucrtd:lcidtoname_downlevel.obj
 0002:0000f840       ??_C@_1M@IDCCIHBC@?$AAt?$AAt?$AA?9?$AAR?$AAU@ 0000000140052840     libucrtd:lcidtoname_downlevel.obj
 0002:0000f850       ??_C@_1M@LOICPMOJ@?$AAb?$AAn?$AA?9?$AAI?$AAN@ 0000000140052850     libucrtd:lcidtoname_downlevel.obj
 0002:0000f860       ??_C@_1M@KPKKNEAH@?$AAp?$AAa?$AA?9?$AAI?$AAN@ 0000000140052860     libucrtd:lcidtoname_downlevel.obj
 0002:0000f870       ??_C@_1M@PJGPPBOG@?$AAg?$AAu?$AA?9?$AAI?$AAN@ 0000000140052870     libucrtd:lcidtoname_downlevel.obj
 0002:0000f880       ??_C@_1M@KMKMOPHI@?$AAt?$AAa?$AA?9?$AAI?$AAN@ 0000000140052880     libucrtd:lcidtoname_downlevel.obj
 0002:0000f890       ??_C@_1M@KFEHEPAC@?$AAt?$AAe?$AA?9?$AAI?$AAN@ 0000000140052890     libucrtd:lcidtoname_downlevel.obj
 0002:0000f8a0       ??_C@_1M@CDCLMGHI@?$AAk?$AAn?$AA?9?$AAI?$AAN@ 00000001400528a0     libucrtd:lcidtoname_downlevel.obj
 0002:0000f8b0       ??_C@_1M@MIODLDKF@?$AAm?$AAl?$AA?9?$AAI?$AAN@ 00000001400528b0     libucrtd:lcidtoname_downlevel.obj
 0002:0000f8c0       ??_C@_1M@PBIEACPO@?$AAm?$AAr?$AA?9?$AAI?$AAN@ 00000001400528c0     libucrtd:lcidtoname_downlevel.obj
 0002:0000f8d0       ??_C@_1M@NIDEAGPH@?$AAs?$AAa?$AA?9?$AAI?$AAN@ 00000001400528d0     libucrtd:lcidtoname_downlevel.obj
 0002:0000f8e0       ??_C@_1M@FHIHCBIO@?$AAm?$AAn?$AA?9?$AAM?$AAN@ 00000001400528e0     libucrtd:lcidtoname_downlevel.obj
 0002:0000f8f0       ??_C@_1M@JAIJPENP@?$AAc?$AAy?$AA?9?$AAG?$AAB@ 00000001400528f0     libucrtd:lcidtoname_downlevel.obj
 0002:0000f900       ??_C@_1M@PHGFBEPN@?$AAg?$AAl?$AA?9?$AAE?$AAS@ 0000000140052900     libucrtd:lcidtoname_downlevel.obj
 0002:0000f910       ??_C@_1O@KPIPDNCP@?$AAk?$AAo?$AAk?$AA?9?$AAI?$AAN@ 0000000140052910     libucrtd:lcidtoname_downlevel.obj
 0002:0000f920       ??_C@_1O@KNHJLDJA@?$AAs?$AAy?$AAr?$AA?9?$AAS?$AAY@ 0000000140052920     libucrtd:lcidtoname_downlevel.obj
 0002:0000f930       ??_C@_1O@MKEKBLAH@?$AAd?$AAi?$AAv?$AA?9?$AAM?$AAV@ 0000000140052930     libucrtd:lcidtoname_downlevel.obj
 0002:0000f940       ??_C@_1O@OHDCKDDF@?$AAq?$AAu?$AAz?$AA?9?$AAB?$AAO@ 0000000140052940     libucrtd:lcidtoname_downlevel.obj
 0002:0000f950       ??_C@_1M@LEPJNLFD@?$AAn?$AAs?$AA?9?$AAZ?$AAA@ 0000000140052950     libucrtd:lcidtoname_downlevel.obj
 0002:0000f960       ??_C@_1M@OMLEIIJB@?$AAm?$AAi?$AA?9?$AAN?$AAZ@ 0000000140052960     libucrtd:lcidtoname_downlevel.obj
 0002:0000f970       ??_C@_1M@PMPEAILG@?$AAa?$AAr?$AA?9?$AAI?$AAQ@ 0000000140052970     libucrtd:lcidtoname_downlevel.obj
 0002:0000f980       ??_C@_1M@CNKPNOEE@?$AAd?$AAe?$AA?9?$AAC?$AAH@ 0000000140052980     libucrtd:lcidtoname_downlevel.obj
 0002:0000f990       ??_C@_1M@LKMGMLKO@?$AAe?$AAn?$AA?9?$AAG?$AAB@ 0000000140052990     libucrtd:lcidtoname_downlevel.obj
 0002:0000f9a0       ??_C@_1M@PGKJFFGL@?$AAe?$AAs?$AA?9?$AAM?$AAX@ 00000001400529a0     libucrtd:lcidtoname_downlevel.obj
 0002:0000f9b0       ??_C@_1M@DNNANBDC@?$AAf?$AAr?$AA?9?$AAB?$AAE@ 00000001400529b0     libucrtd:lcidtoname_downlevel.obj
 0002:0000f9c0       ??_C@_1M@HLGMDFHM@?$AAi?$AAt?$AA?9?$AAC?$AAH@ 00000001400529c0     libucrtd:lcidtoname_downlevel.obj
 0002:0000f9d0       ??_C@_1M@CLLBGJH@?$AAn?$AAl?$AA?9?$AAB?$AAE@ 00000001400529d0     libucrtd:lcidtoname_downlevel.obj
 0002:0000f9e0       ??_C@_1M@BODBOGLF@?$AAn?$AAn?$AA?9?$AAN?$AAO@ 00000001400529e0     libucrtd:lcidtoname_downlevel.obj
 0002:0000f9f0       ??_C@_1M@HFFAHKAD@?$AAp?$AAt?$AA?9?$AAP?$AAT@ 00000001400529f0     libucrtd:lcidtoname_downlevel.obj
 0002:0000fa00       ??_C@_1BG@LNOAKHIE@?$AAs?$AAr?$AA?9?$AAS?$AAP?$AA?9?$AAL?$AAa?$AAt?$AAn@ 0000000140052a00     libucrtd:lcidtoname_downlevel.obj
 0002:0000fa18       ??_C@_1M@HBMHBGAK@?$AAs?$AAv?$AA?9?$AAF?$AAI@ 0000000140052a18     libucrtd:lcidtoname_downlevel.obj
 0002:0000fa28       ??_C@_1BG@DGCJGJBE@?$AAa?$AAz?$AA?9?$AAA?$AAZ?$AA?9?$AAC?$AAy?$AAr?$AAl@ 0000000140052a28     libucrtd:lcidtoname_downlevel.obj
 0002:0000fa40       ??_C@_1M@KEJDAAHB@?$AAs?$AAe?$AA?9?$AAS?$AAE@ 0000000140052a40     libucrtd:lcidtoname_downlevel.obj
 0002:0000fa50       ??_C@_1M@HEIBJJAD@?$AAm?$AAs?$AA?9?$AAB?$AAN@ 0000000140052a50     libucrtd:lcidtoname_downlevel.obj
 0002:0000fa60       ??_C@_1BG@PBGJMCEM@?$AAu?$AAz?$AA?9?$AAU?$AAZ?$AA?9?$AAC?$AAy?$AAr?$AAl@ 0000000140052a60     libucrtd:lcidtoname_downlevel.obj
 0002:0000fa78       ??_C@_1O@LAOBCMDF@?$AAq?$AAu?$AAz?$AA?9?$AAE?$AAC@ 0000000140052a78     libucrtd:lcidtoname_downlevel.obj
 0002:0000fa88       ??_C@_1M@POEEMAIO@?$AAa?$AAr?$AA?9?$AAE?$AAG@ 0000000140052a88     libucrtd:lcidtoname_downlevel.obj
 0002:0000fa98       ??_C@_1M@EFAKDEDL@?$AAz?$AAh?$AA?9?$AAH?$AAK@ 0000000140052a98     libucrtd:lcidtoname_downlevel.obj
 0002:0000faa8       ??_C@_1M@HKKIJHGI@?$AAd?$AAe?$AA?9?$AAA?$AAT@ 0000000140052aa8     libucrtd:lcidtoname_downlevel.obj
 0002:0000fab8       ??_C@_1M@KBFBEHJF@?$AAe?$AAn?$AA?9?$AAA?$AAU@ 0000000140052ab8     libucrtd:lcidtoname_downlevel.obj
 0002:0000fac8       ??_C@_1M@MNPLFAAH@?$AAe?$AAs?$AA?9?$AAE?$AAS@ 0000000140052ac8     libucrtd:lcidtoname_downlevel.obj
 0002:0000fad8       ??_C@_1M@HJOOJFMA@?$AAf?$AAr?$AA?9?$AAC?$AAA@ 0000000140052ad8     libucrtd:lcidtoname_downlevel.obj
 0002:0000fae8       ??_C@_1BG@JPOFPNAB@?$AAs?$AAr?$AA?9?$AAS?$AAP?$AA?9?$AAC?$AAy?$AAr?$AAl@ 0000000140052ae8     libucrtd:lcidtoname_downlevel.obj
 0002:0000fb00       ??_C@_1M@LNFOCMOB@?$AAs?$AAe?$AA?9?$AAF?$AAI@ 0000000140052b00     libucrtd:lcidtoname_downlevel.obj
 0002:0000fb10       ??_C@_1O@MGJBOAMB@?$AAq?$AAu?$AAz?$AA?9?$AAP?$AAE@ 0000000140052b10     libucrtd:lcidtoname_downlevel.obj
 0002:0000fb20       ??_C@_1M@GJINLBOK@?$AAa?$AAr?$AA?9?$AAL?$AAY@ 0000000140052b20     libucrtd:lcidtoname_downlevel.obj
 0002:0000fb30       ??_C@_1M@GGMNHJNL@?$AAz?$AAh?$AA?9?$AAS?$AAG@ 0000000140052b30     libucrtd:lcidtoname_downlevel.obj
 0002:0000fb40       ??_C@_1M@HOIKODND@?$AAd?$AAe?$AA?9?$AAL?$AAU@ 0000000140052b40     libucrtd:lcidtoname_downlevel.obj
 0002:0000fb50       ??_C@_1M@DDOCCGFG@?$AAe?$AAn?$AA?9?$AAC?$AAA@ 0000000140052b50     libucrtd:lcidtoname_downlevel.obj
 0002:0000fb60       ??_C@_1M@BNOEMJLF@?$AAe?$AAs?$AA?9?$AAG?$AAT@ 0000000140052b60     libucrtd:lcidtoname_downlevel.obj
 0002:0000fb70       ??_C@_1M@EOGNKEK@?$AAf?$AAr?$AA?9?$AAC?$AAH@ 0000000140052b70     libucrtd:lcidtoname_downlevel.obj
 0002:0000fb80       ??_C@_1M@FLIDJFHL@?$AAh?$AAr?$AA?9?$AAB?$AAA@ 0000000140052b80     libucrtd:lcidtoname_downlevel.obj
 0002:0000fb90       ??_C@_1O@FMCELNAJ@?$AAs?$AAm?$AAj?$AA?9?$AAN?$AAO@ 0000000140052b90     libucrtd:lcidtoname_downlevel.obj
 0002:0000fba0       ??_C@_1M@JHGLJMGJ@?$AAa?$AAr?$AA?9?$AAD?$AAZ@ 0000000140052ba0     libucrtd:lcidtoname_downlevel.obj
 0002:0000fbb0       ??_C@_1M@JKKFDCNP@?$AAz?$AAh?$AA?9?$AAM?$AAO@ 0000000140052bb0     libucrtd:lcidtoname_downlevel.obj
 0002:0000fbc0       ??_C@_1M@GEEFALPE@?$AAd?$AAe?$AA?9?$AAL?$AAI@ 0000000140052bc0     libucrtd:lcidtoname_downlevel.obj
 0002:0000fbd0       ??_C@_1M@IGEOFBG@?$AAe?$AAn?$AA?9?$AAN?$AAZ@ 0000000140052bd0     libucrtd:lcidtoname_downlevel.obj
 0002:0000fbe0       ??_C@_1M@KDBONEHP@?$AAe?$AAs?$AA?9?$AAC?$AAR@ 0000000140052be0     libucrtd:lcidtoname_downlevel.obj
 0002:0000fbf0       ??_C@_1M@FHMDOHNN@?$AAf?$AAr?$AA?9?$AAL?$AAU@ 0000000140052bf0     libucrtd:lcidtoname_downlevel.obj
 0002:0000fc00       ??_C@_1BG@NFKKMAFG@?$AAb?$AAs?$AA?9?$AAB?$AAA?$AA?9?$AAL?$AAa?$AAt?$AAn@ 0000000140052c00     libucrtd:lcidtoname_downlevel.obj
 0002:0000fc18       ??_C@_1O@IMNBEMCI@?$AAs?$AAm?$AAj?$AA?9?$AAS?$AAE@ 0000000140052c18     libucrtd:lcidtoname_downlevel.obj
 0002:0000fc28       ??_C@_1M@DHHMBNDP@?$AAa?$AAr?$AA?9?$AAM?$AAA@ 0000000140052c28     libucrtd:lcidtoname_downlevel.obj
 0002:0000fc38       ??_C@_1M@BNBLJCGH@?$AAe?$AAn?$AA?9?$AAI?$AAE@ 0000000140052c38     libucrtd:lcidtoname_downlevel.obj
 0002:0000fc48       ??_C@_1M@GEPAFMDL@?$AAe?$AAs?$AA?9?$AAP?$AAA@ 0000000140052c48     libucrtd:lcidtoname_downlevel.obj
 0002:0000fc58       ??_C@_1M@OJONDMDL@?$AAf?$AAr?$AA?9?$AAM?$AAC@ 0000000140052c58     libucrtd:lcidtoname_downlevel.obj
 0002:0000fc68       ??_C@_1BG@OBCNFJB@?$AAs?$AAr?$AA?9?$AAB?$AAA?$AA?9?$AAL?$AAa?$AAt?$AAn@ 0000000140052c68     libucrtd:lcidtoname_downlevel.obj
 0002:0000fc80       ??_C@_1O@KEMEEGPO@?$AAs?$AAm?$AAa?$AA?9?$AAN?$AAO@ 0000000140052c80     libucrtd:lcidtoname_downlevel.obj
 0002:0000fc90       ??_C@_1M@ELMGFODK@?$AAa?$AAr?$AA?9?$AAT?$AAN@ 0000000140052c90     libucrtd:lcidtoname_downlevel.obj
 0002:0000fca0       ??_C@_1M@BHDLHFAF@?$AAe?$AAn?$AA?9?$AAZ?$AAA@ 0000000140052ca0     libucrtd:lcidtoname_downlevel.obj
 0002:0000fcb0       ??_C@_1M@BMGIGLIF@?$AAe?$AAs?$AA?9?$AAD?$AAO@ 0000000140052cb0     libucrtd:lcidtoname_downlevel.obj
 0002:0000fcc0       ??_C@_1BG@CMBHIPBE@?$AAs?$AAr?$AA?9?$AAB?$AAA?$AA?9?$AAC?$AAy?$AAr?$AAl@ 0000000140052cc0     libucrtd:lcidtoname_downlevel.obj
 0002:0000fcd8       ??_C@_1O@HEDBLHNP@?$AAs?$AAm?$AAa?$AA?9?$AAS?$AAE@ 0000000140052cd8     libucrtd:lcidtoname_downlevel.obj
 0002:0000fce8       ??_C@_1M@DAGCADIM@?$AAa?$AAr?$AA?9?$AAO?$AAM@ 0000000140052ce8     libucrtd:lcidtoname_downlevel.obj
 0002:0000fcf8       ??_C@_1M@FODLMICG@?$AAe?$AAn?$AA?9?$AAJ?$AAM@ 0000000140052cf8     libucrtd:lcidtoname_downlevel.obj
 0002:0000fd08       ??_C@_1M@DNMLCIHB@?$AAe?$AAs?$AA?9?$AAV?$AAE@ 0000000140052d08     libucrtd:lcidtoname_downlevel.obj
 0002:0000fd18       ??_C@_1O@EOKHMKJK@?$AAs?$AAm?$AAs?$AA?9?$AAF?$AAI@ 0000000140052d18     libucrtd:lcidtoname_downlevel.obj
 0002:0000fd28       ??_C@_1M@CAFJMKOF@?$AAa?$AAr?$AA?9?$AAY?$AAE@ 0000000140052d28     libucrtd:lcidtoname_downlevel.obj
 0002:0000fd38       ??_C@_1M@CBFHIJLI@?$AAe?$AAn?$AA?9?$AAC?$AAB@ 0000000140052d38     libucrtd:lcidtoname_downlevel.obj
 0002:0000fd48       ??_C@_1M@BGNFLDN@?$AAe?$AAs?$AA?9?$AAC?$AAO@ 0000000140052d48     libucrtd:lcidtoname_downlevel.obj
 0002:0000fd58       ??_C@_1O@JMPHMAMC@?$AAs?$AAm?$AAn?$AA?9?$AAF?$AAI@ 0000000140052d58     libucrtd:lcidtoname_downlevel.obj
 0002:0000fd68       ??_C@_1M@JLANABKE@?$AAa?$AAr?$AA?9?$AAS?$AAY@ 0000000140052d68     libucrtd:lcidtoname_downlevel.obj
 0002:0000fd78       ??_C@_1M@HPKGCFGN@?$AAe?$AAn?$AA?9?$AAB?$AAZ@ 0000000140052d78     libucrtd:lcidtoname_downlevel.obj
 0002:0000fd88       ??_C@_1M@OLJCMLGM@?$AAe?$AAs?$AA?9?$AAP?$AAE@ 0000000140052d88     libucrtd:lcidtoname_downlevel.obj
 0002:0000fd98       ??_C@_1M@MKKGFKLE@?$AAa?$AAr?$AA?9?$AAJ?$AAO@ 0000000140052d98     libucrtd:lcidtoname_downlevel.obj
 0002:0000fda8       ??_C@_1M@EKPGLDNI@?$AAe?$AAn?$AA?9?$AAT?$AAT@ 0000000140052da8     libucrtd:lcidtoname_downlevel.obj
 0002:0000fdb8       ??_C@_1M@OONGHFHE@?$AAe?$AAs?$AA?9?$AAA?$AAR@ 0000000140052db8     libucrtd:lcidtoname_downlevel.obj
 0002:0000fdc8       ??_C@_1M@OOJFGBHE@?$AAa?$AAr?$AA?9?$AAL?$AAB@ 0000000140052dc8     libucrtd:lcidtoname_downlevel.obj
 0002:0000fdd8       ??_C@_1M@GCEJHNEG@?$AAe?$AAn?$AA?9?$AAZ?$AAW@ 0000000140052dd8     libucrtd:lcidtoname_downlevel.obj
 0002:0000fde8       ??_C@_1M@JNOCAHJI@?$AAe?$AAs?$AA?9?$AAE?$AAC@ 0000000140052de8     libucrtd:lcidtoname_downlevel.obj
 0002:0000fdf8       ??_C@_1M@JEFHPGGB@?$AAa?$AAr?$AA?9?$AAK?$AAW@ 0000000140052df8     libucrtd:lcidtoname_downlevel.obj
 0002:0000fe08       ??_C@_1M@MLKIBJOJ@?$AAe?$AAn?$AA?9?$AAP?$AAH@ 0000000140052e08     libucrtd:lcidtoname_downlevel.obj
 0002:0000fe18       ??_C@_1M@BDNIPEND@?$AAe?$AAs?$AA?9?$AAC?$AAL@ 0000000140052e18     libucrtd:lcidtoname_downlevel.obj
 0002:0000fe28       ??_C@_1M@MPNMEKBD@?$AAa?$AAr?$AA?9?$AAA?$AAE@ 0000000140052e28     libucrtd:lcidtoname_downlevel.obj
 0002:0000fe38       ??_C@_1M@KBJALCPI@?$AAe?$AAs?$AA?9?$AAU?$AAY@ 0000000140052e38     libucrtd:lcidtoname_downlevel.obj
 0002:0000fe48       ??_C@_1M@LLCCOAGA@?$AAa?$AAr?$AA?9?$AAB?$AAH@ 0000000140052e48     libucrtd:lcidtoname_downlevel.obj
 0002:0000fe58       ??_C@_1M@PBFNCDEL@?$AAe?$AAs?$AA?9?$AAP?$AAY@ 0000000140052e58     libucrtd:lcidtoname_downlevel.obj
 0002:0000fe68       ??_C@_1M@EDGINPNP@?$AAa?$AAr?$AA?9?$AAQ?$AAA@ 0000000140052e68     libucrtd:lcidtoname_downlevel.obj
 0002:0000fe78       ??_C@_1M@MKDBIIJI@?$AAe?$AAs?$AA?9?$AAB?$AAO@ 0000000140052e78     libucrtd:lcidtoname_downlevel.obj
 0002:0000fe88       ??_C@_1M@CPKKEBLD@?$AAe?$AAs?$AA?9?$AAS?$AAV@ 0000000140052e88     libucrtd:lcidtoname_downlevel.obj
 0002:0000fe98       ??_C@_1M@NDBGMMJL@?$AAe?$AAs?$AA?9?$AAH?$AAN@ 0000000140052e98     libucrtd:lcidtoname_downlevel.obj
 0002:0000fea8       ??_C@_1M@JIJIBHDP@?$AAe?$AAs?$AA?9?$AAN?$AAI@ 0000000140052ea8     libucrtd:lcidtoname_downlevel.obj
 0002:0000feb8       ??_C@_1M@CGFMKEEK@?$AAe?$AAs?$AA?9?$AAP?$AAR@ 0000000140052eb8     libucrtd:lcidtoname_downlevel.obj
 0002:0000fec8       ??_C@_1O@ICJHKIIK@?$AAz?$AAh?$AA?9?$AAC?$AAH?$AAT@ 0000000140052ec8     libucrtd:lcidtoname_downlevel.obj
 0002:0000fed8       ??_C@_15CLNEJCE@?$AAs?$AAr@ 0000000140052ed8     libucrtd:lcidtoname_downlevel.obj
 0002:00010d20       ??_C@_1M@KAHEKEIG@?$AAa?$AAf?$AA?9?$AAz?$AAa@ 0000000140053d20     libucrtd:lcidtoname_downlevel.obj
 0002:00010d30       ??_C@_1M@GIECOABL@?$AAa?$AAr?$AA?9?$AAa?$AAe@ 0000000140053d30     libucrtd:lcidtoname_downlevel.obj
 0002:00010d40       ??_C@_1M@BMLMEKGI@?$AAa?$AAr?$AA?9?$AAb?$AAh@ 0000000140053d40     libucrtd:lcidtoname_downlevel.obj
 0002:00010d50       ??_C@_1M@DAPFDGGB@?$AAa?$AAr?$AA?9?$AAd?$AAz@ 0000000140053d50     libucrtd:lcidtoname_downlevel.obj
 0002:00010d60       ??_C@_1M@FJNKGKIG@?$AAa?$AAr?$AA?9?$AAe?$AAg@ 0000000140053d60     libucrtd:lcidtoname_downlevel.obj
 0002:00010d70       ??_C@_1M@FLGKKCLO@?$AAa?$AAr?$AA?9?$AAi?$AAq@ 0000000140053d70     libucrtd:lcidtoname_downlevel.obj
 0002:00010d80       ??_C@_1M@GNDIPALM@?$AAa?$AAr?$AA?9?$AAj?$AAo@ 0000000140053d80     libucrtd:lcidtoname_downlevel.obj
 0002:00010d90       ??_C@_1M@DDMJFMGJ@?$AAa?$AAr?$AA?9?$AAk?$AAw@ 0000000140053d90     libucrtd:lcidtoname_downlevel.obj
 0002:00010da0       ??_C@_1M@EJALMLHM@?$AAa?$AAr?$AA?9?$AAl?$AAb@ 0000000140053da0     libucrtd:lcidtoname_downlevel.obj
 0002:00010db0       ??_C@_1M@MOBDBLOC@?$AAa?$AAr?$AA?9?$AAl?$AAy@ 0000000140053db0     libucrtd:lcidtoname_downlevel.obj
 0002:00010dc0       ??_C@_1M@JAOCLHDH@?$AAa?$AAr?$AA?9?$AAm?$AAa@ 0000000140053dc0     libucrtd:lcidtoname_downlevel.obj
 0002:00010dd0       ??_C@_1M@JHPMKJIE@?$AAa?$AAr?$AA?9?$AAo?$AAm@ 0000000140053dd0     libucrtd:lcidtoname_downlevel.obj
 0002:00010de0       ??_C@_1M@OEPGHFNH@?$AAa?$AAr?$AA?9?$AAq?$AAa@ 0000000140053de0     libucrtd:lcidtoname_downlevel.obj
 0002:00010df0       ??_C@_1M@KJDONENM@?$AAa?$AAr?$AA?9?$AAs?$AAa@ 0000000140053df0     libucrtd:lcidtoname_downlevel.obj
 0002:00010e00       ??_C@_1M@DMJDKLKM@?$AAa?$AAr?$AA?9?$AAs?$AAy@ 0000000140053e00     libucrtd:lcidtoname_downlevel.obj
 0002:00010e10       ??_C@_1M@OMFIPEDC@?$AAa?$AAr?$AA?9?$AAt?$AAn@ 0000000140053e10     libucrtd:lcidtoname_downlevel.obj
 0002:00010e20       ??_C@_1M@IHMHGAON@?$AAa?$AAr?$AA?9?$AAy?$AAe@ 0000000140053e20     libucrtd:lcidtoname_downlevel.obj
 0002:00010e30       ??_C@_1BG@KDCPGJGB@?$AAa?$AAz?$AA?9?$AAa?$AAz?$AA?9?$AAc?$AAy?$AAr?$AAl@ 0000000140053e30     libucrtd:lcidtoname_downlevel.obj
 0002:00010e48       ??_C@_1BG@IBCKDDOE@?$AAa?$AAz?$AA?9?$AAa?$AAz?$AA?9?$AAl?$AAa?$AAt?$AAn@ 0000000140053e48     libucrtd:lcidtoname_downlevel.obj
 0002:00010e60       ??_C@_1M@EGPFDCPD@?$AAb?$AAe?$AA?9?$AAb?$AAy@ 0000000140053e60     libucrtd:lcidtoname_downlevel.obj
 0002:00010e70       ??_C@_1M@PCMGMCGC@?$AAb?$AAg?$AA?9?$AAb?$AAg@ 0000000140053e70     libucrtd:lcidtoname_downlevel.obj
 0002:00010e80       ??_C@_1M@BJBMFGOB@?$AAb?$AAn?$AA?9?$AAi?$AAn@ 0000000140053e80     libucrtd:lcidtoname_downlevel.obj
 0002:00010e90       ??_C@_1BG@EAKMMACD@?$AAb?$AAs?$AA?9?$AAb?$AAa?$AA?9?$AAl?$AAa?$AAt?$AAn@ 0000000140053e90     libucrtd:lcidtoname_downlevel.obj
 0002:00010ea8       ??_C@_1M@KGADAODK@?$AAc?$AAa?$AA?9?$AAe?$AAs@ 0000000140053ea8     libucrtd:lcidtoname_downlevel.obj
 0002:00010eb8       ??_C@_1M@COAJPDHI@?$AAc?$AAs?$AA?9?$AAc?$AAz@ 0000000140053eb8     libucrtd:lcidtoname_downlevel.obj
 0002:00010ec8       ??_C@_1M@DHBHFONH@?$AAc?$AAy?$AA?9?$AAg?$AAb@ 0000000140053ec8     libucrtd:lcidtoname_downlevel.obj
 0002:00010ed8       ??_C@_1M@IMGKELGA@?$AAd?$AAa?$AA?9?$AAd?$AAk@ 0000000140053ed8     libucrtd:lcidtoname_downlevel.obj
 0002:00010ee8       ??_C@_1M@NNDGDNGA@?$AAd?$AAe?$AA?9?$AAa?$AAt@ 0000000140053ee8     libucrtd:lcidtoname_downlevel.obj
 0002:00010ef8       ??_C@_1M@IKDBHEEM@?$AAd?$AAe?$AA?9?$AAc?$AAh@ 0000000140053ef8     libucrtd:lcidtoname_downlevel.obj
 0002:00010f08       ??_C@_1M@GFFOJMCJ@?$AAd?$AAe?$AA?9?$AAd?$AAe@ 0000000140053f08     libucrtd:lcidtoname_downlevel.obj
 0002:00010f18       ??_C@_1M@MDNLKBPM@?$AAd?$AAe?$AA?9?$AAl?$AAi@ 0000000140053f18     libucrtd:lcidtoname_downlevel.obj
 0002:00010f28       ??_C@_1M@NJBEEJNL@?$AAd?$AAe?$AA?9?$AAl?$AAu@ 0000000140053f28     libucrtd:lcidtoname_downlevel.obj
 0002:00010f38       ??_C@_1O@GNNELBAP@?$AAd?$AAi?$AAv?$AA?9?$AAm?$AAv@ 0000000140053f38     libucrtd:lcidtoname_downlevel.obj
 0002:00010f48       ??_C@_1M@EJLEOGAE@?$AAe?$AAl?$AA?9?$AAg?$AAr@ 0000000140053f48     libucrtd:lcidtoname_downlevel.obj
 0002:00010f58       ??_C@_1M@GMPONJN@?$AAe?$AAn?$AA?9?$AAa?$AAu@ 0000000140053f58     libucrtd:lcidtoname_downlevel.obj
 0002:00010f68       ??_C@_1M@NIDIIPGF@?$AAe?$AAn?$AA?9?$AAb?$AAz@ 0000000140053f68     libucrtd:lcidtoname_downlevel.obj
 0002:00010f78       ??_C@_1M@JEHMIMFO@?$AAe?$AAn?$AA?9?$AAc?$AAa@ 0000000140053f78     libucrtd:lcidtoname_downlevel.obj
 0002:00010f88       ??_C@_1M@IGMJCDLA@?$AAe?$AAn?$AA?9?$AAc?$AAb@ 0000000140053f88     libucrtd:lcidtoname_downlevel.obj
 0002:00010f98       ??_C@_1M@BNFIGBKG@?$AAe?$AAn?$AA?9?$AAg?$AAb@ 0000000140053f98     libucrtd:lcidtoname_downlevel.obj
 0002:00010fa8       ??_C@_1M@LKIFDIGP@?$AAe?$AAn?$AA?9?$AAi?$AAe@ 0000000140053fa8     libucrtd:lcidtoname_downlevel.obj
 0002:00010fb8       ??_C@_1M@PJKFGCCO@?$AAe?$AAn?$AA?9?$AAj?$AAm@ 0000000140053fb8     libucrtd:lcidtoname_downlevel.obj
 0002:00010fc8       ??_C@_1M@KPPKEPBO@?$AAe?$AAn?$AA?9?$AAn?$AAz@ 0000000140053fc8     libucrtd:lcidtoname_downlevel.obj
 0002:00010fd8       ??_C@_1M@GMDGLDOB@?$AAe?$AAn?$AA?9?$AAp?$AAh@ 0000000140053fd8     libucrtd:lcidtoname_downlevel.obj
 0002:00010fe8       ??_C@_1M@ONGIBJNA@?$AAe?$AAn?$AA?9?$AAt?$AAt@ 0000000140053fe8     libucrtd:lcidtoname_downlevel.obj
 0002:00010ff8       ??_C@_1M@LLODPCMM@?$AAe?$AAn?$AA?9?$AAu?$AAs@ 0000000140053ff8     libucrtd:lcidtoname_downlevel.obj
 0002:00011008       ??_C@_1M@LAKFNPAN@?$AAe?$AAn?$AA?9?$AAz?$AAa@ 0000000140054008     libucrtd:lcidtoname_downlevel.obj
 0002:00011018       ??_C@_1M@MFNHNHEO@?$AAe?$AAn?$AA?9?$AAz?$AAw@ 0000000140054018     libucrtd:lcidtoname_downlevel.obj
 0002:00011028       ??_C@_1M@EJEINPHM@?$AAe?$AAs?$AA?9?$AAa?$AAr@ 0000000140054028     libucrtd:lcidtoname_downlevel.obj
 0002:00011038       ??_C@_1M@GNKPCCJA@?$AAe?$AAs?$AA?9?$AAb?$AAo@ 0000000140054038     libucrtd:lcidtoname_downlevel.obj
 0002:00011048       ??_C@_1M@LEEGFONL@?$AAe?$AAs?$AA?9?$AAc?$AAl@ 0000000140054048     libucrtd:lcidtoname_downlevel.obj
 0002:00011058       ??_C@_1M@KGPDPBDF@?$AAe?$AAs?$AA?9?$AAc?$AAo@ 0000000140054058     libucrtd:lcidtoname_downlevel.obj
 0002:00011068       ??_C@_1M@EIAHOHH@?$AAe?$AAs?$AA?9?$AAc?$AAr@ 0000000140054068     libucrtd:lcidtoname_downlevel.obj
 0002:00011078       ??_C@_1M@LLPGMBIN@?$AAe?$AAs?$AA?9?$AAd?$AAo@ 0000000140054078     libucrtd:lcidtoname_downlevel.obj
 0002:00011088       ??_C@_1M@DKHMKNJA@?$AAe?$AAs?$AA?9?$AAe?$AAc@ 0000000140054088     libucrtd:lcidtoname_downlevel.obj
 0002:00011098       ??_C@_1M@GKGFPKAP@?$AAe?$AAs?$AA?9?$AAe?$AAs@ 0000000140054098     libucrtd:lcidtoname_downlevel.obj
 0002:000110a8       ??_C@_1M@LKHKGDLN@?$AAe?$AAs?$AA?9?$AAg?$AAt@ 00000001400540a8     libucrtd:lcidtoname_downlevel.obj
 0002:000110b8       ??_C@_1M@HEIIGGJD@?$AAe?$AAs?$AA?9?$AAh?$AAn@ 00000001400540b8     libucrtd:lcidtoname_downlevel.obj
 0002:000110c8       ??_C@_1M@FBDHPPGD@?$AAe?$AAs?$AA?9?$AAm?$AAx@ 00000001400540c8     libucrtd:lcidtoname_downlevel.obj
 0002:000110d8       ??_C@_1M@DPAGLNDH@?$AAe?$AAs?$AA?9?$AAn?$AAi@ 00000001400540d8     libucrtd:lcidtoname_downlevel.obj
 0002:000110e8       ??_C@_1M@MDGOPGDD@?$AAe?$AAs?$AA?9?$AAp?$AAa@ 00000001400540e8     libucrtd:lcidtoname_downlevel.obj
 0002:000110f8       ??_C@_1M@EMAMGBGE@?$AAe?$AAs?$AA?9?$AAp?$AAe@ 00000001400540f8     libucrtd:lcidtoname_downlevel.obj
 0002:00011108       ??_C@_1M@IBMCAOEC@?$AAe?$AAs?$AA?9?$AAp?$AAr@ 0000000140054108     libucrtd:lcidtoname_downlevel.obj
 0002:00011118       ??_C@_1M@FGMDIJED@?$AAe?$AAs?$AA?9?$AAp?$AAy@ 0000000140054118     libucrtd:lcidtoname_downlevel.obj
 0002:00011128       ??_C@_1M@IIDEOLLL@?$AAe?$AAs?$AA?9?$AAs?$AAv@ 0000000140054128     libucrtd:lcidtoname_downlevel.obj
 0002:00011138       ??_C@_1M@GAOBIPA@?$AAe?$AAs?$AA?9?$AAu?$AAy@ 0000000140054138     libucrtd:lcidtoname_downlevel.obj
 0002:00011148       ??_C@_1M@JKFFICHJ@?$AAe?$AAs?$AA?9?$AAv?$AAe@ 0000000140054148     libucrtd:lcidtoname_downlevel.obj
 0002:00011158       ??_C@_1M@PNMLOJDF@?$AAe?$AAt?$AA?9?$AAe?$AAe@ 0000000140054158     libucrtd:lcidtoname_downlevel.obj
 0002:00011168       ??_C@_1M@GHHLIKEI@?$AAe?$AAu?$AA?9?$AAe?$AAs@ 0000000140054168     libucrtd:lcidtoname_downlevel.obj
 0002:00011178       ??_C@_1M@PBNONODE@?$AAf?$AAa?$AA?9?$AAi?$AAr@ 0000000140054178     libucrtd:lcidtoname_downlevel.obj
 0002:00011188       ??_C@_1M@JEEHPMIL@?$AAf?$AAi?$AA?9?$AAf?$AAi@ 0000000140054188     libucrtd:lcidtoname_downlevel.obj
 0002:00011198       ??_C@_1M@LMDCNDBA@?$AAf?$AAo?$AA?9?$AAf?$AAo@ 0000000140054198     libucrtd:lcidtoname_downlevel.obj
 0002:000111a8       ??_C@_1M@JKEOHLDK@?$AAf?$AAr?$AA?9?$AAb?$AAe@ 00000001400541a8     libucrtd:lcidtoname_downlevel.obj
 0002:000111b8       ??_C@_1M@NOHADPMI@?$AAf?$AAr?$AA?9?$AAc?$AAa@ 00000001400541b8     libucrtd:lcidtoname_downlevel.obj
 0002:000111c8       ??_C@_1M@KDHIHAEC@?$AAf?$AAr?$AA?9?$AAc?$AAh@ 00000001400541c8     libucrtd:lcidtoname_downlevel.obj
 0002:000111d8       ??_C@_1M@MMBBFGAK@?$AAf?$AAr?$AA?9?$AAf?$AAr@ 00000001400541d8     libucrtd:lcidtoname_downlevel.obj
 0002:000111e8       ??_C@_1M@PAFNENNF@?$AAf?$AAr?$AA?9?$AAl?$AAu@ 00000001400541e8     libucrtd:lcidtoname_downlevel.obj
 0002:000111f8       ??_C@_1M@EOHDJGDD@?$AAf?$AAr?$AA?9?$AAm?$AAc@ 00000001400541f8     libucrtd:lcidtoname_downlevel.obj
 0002:00011208       ??_C@_1M@FAPLLOPF@?$AAg?$AAl?$AA?9?$AAe?$AAs@ 0000000140054208     libucrtd:lcidtoname_downlevel.obj
 0002:00011218       ??_C@_1M@FOPBFLOO@?$AAg?$AAu?$AA?9?$AAi?$AAn@ 0000000140054218     libucrtd:lcidtoname_downlevel.obj
 0002:00011228       ??_C@_1M@KBMCINPM@?$AAh?$AAe?$AA?9?$AAi?$AAl@ 0000000140054228     libucrtd:lcidtoname_downlevel.obj
 0002:00011238       ??_C@_1M@BBPHKFPJ@?$AAh?$AAi?$AA?9?$AAi?$AAn@ 0000000140054238     libucrtd:lcidtoname_downlevel.obj
 0002:00011248       ??_C@_1M@PMBNDPHD@?$AAh?$AAr?$AA?9?$AAb?$AAa@ 0000000140054248     libucrtd:lcidtoname_downlevel.obj
 0002:00011258       ??_C@_1M@BPCKOEGE@?$AAh?$AAr?$AA?9?$AAh?$AAr@ 0000000140054258     libucrtd:lcidtoname_downlevel.obj
 0002:00011268       ??_C@_1M@GACBMHKE@?$AAh?$AAu?$AA?9?$AAh?$AAu@ 0000000140054268     libucrtd:lcidtoname_downlevel.obj
 0002:00011278       ??_C@_1M@MILPAJJC@?$AAh?$AAy?$AA?9?$AAa?$AAm@ 0000000140054278     libucrtd:lcidtoname_downlevel.obj
 0002:00011288       ??_C@_1M@BABBICEC@?$AAi?$AAd?$AA?9?$AAi?$AAd@ 0000000140054288     libucrtd:lcidtoname_downlevel.obj
 0002:00011298       ??_C@_1M@BIKNHHPF@?$AAi?$AAs?$AA?9?$AAi?$AAs@ 0000000140054298     libucrtd:lcidtoname_downlevel.obj
 0002:000112a8       ??_C@_1M@NMPCJPHE@?$AAi?$AAt?$AA?9?$AAc?$AAh@ 00000001400542a8     libucrtd:lcidtoname_downlevel.obj
 0002:000112b8       ??_C@_1M@GHKGFEDF@?$AAi?$AAt?$AA?9?$AAi?$AAt@ 00000001400542b8     libucrtd:lcidtoname_downlevel.obj
 0002:000112c8       ??_C@_1M@NIEJCJJA@?$AAj?$AAa?$AA?9?$AAj?$AAp@ 00000001400542c8     libucrtd:lcidtoname_downlevel.obj
 0002:000112d8       ??_C@_1M@JILFNBIM@?$AAk?$AAa?$AA?9?$AAg?$AAe@ 00000001400542d8     libucrtd:lcidtoname_downlevel.obj
 0002:000112e8       ??_C@_1M@PACPMGPH@?$AAk?$AAk?$AA?9?$AAk?$AAz@ 00000001400542e8     libucrtd:lcidtoname_downlevel.obj
 0002:000112f8       ??_C@_1M@IELFGMHA@?$AAk?$AAn?$AA?9?$AAi?$AAn@ 00000001400542f8     libucrtd:lcidtoname_downlevel.obj
 0002:00011308       ??_C@_1O@IBBJHCH@?$AAk?$AAo?$AAk?$AA?9?$AAi?$AAn@ 0000000140054308     libucrtd:lcidtoname_downlevel.obj
 0002:00011318       ??_C@_1M@DMHAEOGC@?$AAk?$AAo?$AA?9?$AAk?$AAr@ 0000000140054318     libucrtd:lcidtoname_downlevel.obj
 0002:00011328       ??_C@_1M@HBAHBIGA@?$AAk?$AAy?$AA?9?$AAk?$AAg@ 0000000140054328     libucrtd:lcidtoname_downlevel.obj
 0002:00011338       ??_C@_1M@KPMILCJG@?$AAl?$AAt?$AA?9?$AAl?$AAt@ 0000000140054338     libucrtd:lcidtoname_downlevel.obj
 0002:00011348       ??_C@_1M@BDEKKCA@?$AAl?$AAv?$AA?9?$AAl?$AAv@ 0000000140054348     libucrtd:lcidtoname_downlevel.obj
 0002:00011358       ??_C@_1M@ELCKCCJJ@?$AAm?$AAi?$AA?9?$AAn?$AAz@ 0000000140054358     libucrtd:lcidtoname_downlevel.obj
 0002:00011368       ??_C@_1M@CBOOLAPA@?$AAm?$AAk?$AA?9?$AAm?$AAk@ 0000000140054368     libucrtd:lcidtoname_downlevel.obj
 0002:00011378       ??_C@_1M@GPHNBJKN@?$AAm?$AAl?$AA?9?$AAi?$AAn@ 0000000140054378     libucrtd:lcidtoname_downlevel.obj
 0002:00011388       ??_C@_1M@PABJILIG@?$AAm?$AAn?$AA?9?$AAm?$AAn@ 0000000140054388     libucrtd:lcidtoname_downlevel.obj
 0002:00011398       ??_C@_1M@FGBKKIPG@?$AAm?$AAr?$AA?9?$AAi?$AAn@ 0000000140054398     libucrtd:lcidtoname_downlevel.obj
 0002:000113a8       ??_C@_1M@NDBPDDAL@?$AAm?$AAs?$AA?9?$AAb?$AAn@ 00000001400543a8     libucrtd:lcidtoname_downlevel.obj
 0002:000113b8       ??_C@_1M@OPIHOOPI@?$AAm?$AAs?$AA?9?$AAm?$AAy@ 00000001400543b8     libucrtd:lcidtoname_downlevel.obj
 0002:000113c8       ??_C@_1M@PPDBCNFM@?$AAm?$AAt?$AA?9?$AAm?$AAt@ 00000001400543c8     libucrtd:lcidtoname_downlevel.obj
 0002:000113d8       ??_C@_1M@KDJDKMDD@?$AAn?$AAb?$AA?9?$AAn?$AAo@ 00000001400543d8     libucrtd:lcidtoname_downlevel.obj
 0002:000113e8       ??_C@_1M@KFCFLMJP@?$AAn?$AAl?$AA?9?$AAb?$AAe@ 00000001400543e8     libucrtd:lcidtoname_downlevel.obj
 0002:000113f8       ??_C@_1M@KPOPDDGO@?$AAn?$AAl?$AA?9?$AAn?$AAl@ 00000001400543f8     libucrtd:lcidtoname_downlevel.obj
 0002:00011408       ??_C@_1M@LJKPEMLN@?$AAn?$AAn?$AA?9?$AAn?$AAo@ 0000000140054408     libucrtd:lcidtoname_downlevel.obj
 0002:00011418       ??_C@_1M@BDGHHBFL@?$AAn?$AAs?$AA?9?$AAz?$AAa@ 0000000140054418     libucrtd:lcidtoname_downlevel.obj
 0002:00011428       ??_C@_1M@IDEHOAP@?$AAp?$AAa?$AA?9?$AAi?$AAn@ 0000000140054428     libucrtd:lcidtoname_downlevel.obj
 0002:00011438       ??_C@_1M@HDBKGOGH@?$AAp?$AAl?$AA?9?$AAp?$AAl@ 0000000140054438     libucrtd:lcidtoname_downlevel.obj
 0002:00011448       ??_C@_1M@LJLLCMEH@?$AAp?$AAt?$AA?9?$AAb?$AAr@ 0000000140054448     libucrtd:lcidtoname_downlevel.obj
 0002:00011458       ??_C@_1M@NCMONAAL@?$AAp?$AAt?$AA?9?$AAp?$AAt@ 0000000140054458     libucrtd:lcidtoname_downlevel.obj
 0002:00011468       ??_C@_1O@EAKMAJDN@?$AAq?$AAu?$AAz?$AA?9?$AAb?$AAo@ 0000000140054468     libucrtd:lcidtoname_downlevel.obj
 0002:00011478       ??_C@_1O@BHHPIGDN@?$AAq?$AAu?$AAz?$AA?9?$AAe?$AAc@ 0000000140054478     libucrtd:lcidtoname_downlevel.obj
 0002:00011488       ??_C@_1O@GBAPEKMJ@?$AAq?$AAu?$AAz?$AA?9?$AAp?$AAe@ 0000000140054488     libucrtd:lcidtoname_downlevel.obj
 0002:00011498       ??_C@_1M@CLGLEFBO@?$AAr?$AAo?$AA?9?$AAr?$AAo@ 0000000140054498     libucrtd:lcidtoname_downlevel.obj
 0002:000114a8       ??_C@_1M@CEEDODME@?$AAr?$AAu?$AA?9?$AAr?$AAu@ 00000001400544a8     libucrtd:lcidtoname_downlevel.obj
 0002:000114b8       ??_C@_1M@HPKKKMPP@?$AAs?$AAa?$AA?9?$AAi?$AAn@ 00000001400544b8     libucrtd:lcidtoname_downlevel.obj
 0002:000114c8       ??_C@_1M@BKMAIGOJ@?$AAs?$AAe?$AA?9?$AAf?$AAi@ 00000001400544c8     libucrtd:lcidtoname_downlevel.obj
 0002:000114d8       ??_C@_1M@NDPIFLFI@?$AAs?$AAe?$AA?9?$AAn?$AAo@ 00000001400544d8     libucrtd:lcidtoname_downlevel.obj
 0002:000114e8       ??_C@_1M@DANKKHJ@?$AAs?$AAe?$AA?9?$AAs?$AAe@ 00000001400544e8     libucrtd:lcidtoname_downlevel.obj
 0002:000114f8       ??_C@_1M@PNBLONPJ@?$AAs?$AAk?$AA?9?$AAs?$AAk@ 00000001400544f8     libucrtd:lcidtoname_downlevel.obj
 0002:00011508       ??_C@_1M@LFMODOAL@?$AAs?$AAl?$AA?9?$AAs?$AAi@ 0000000140054508     libucrtd:lcidtoname_downlevel.obj
 0002:00011518       ??_C@_1O@DFKOMPG@?$AAs?$AAm?$AAa?$AA?9?$AAn?$AAo@ 0000000140054518     libucrtd:lcidtoname_downlevel.obj
 0002:00011528       ??_C@_1O@NDKPBNNH@?$AAs?$AAm?$AAa?$AA?9?$AAs?$AAe@ 0000000140054528     libucrtd:lcidtoname_downlevel.obj
 0002:00011538       ??_C@_1O@PLLKBHAB@?$AAs?$AAm?$AAj?$AA?9?$AAn?$AAo@ 0000000140054538     libucrtd:lcidtoname_downlevel.obj
 0002:00011548       ??_C@_1O@CLEPOGCA@?$AAs?$AAm?$AAj?$AA?9?$AAs?$AAe@ 0000000140054548     libucrtd:lcidtoname_downlevel.obj
 0002:00011558       ??_C@_1O@DLGJGKMK@?$AAs?$AAm?$AAn?$AA?9?$AAf?$AAi@ 0000000140054558     libucrtd:lcidtoname_downlevel.obj
 0002:00011568       ??_C@_1O@OJDJGAJC@?$AAs?$AAm?$AAs?$AA?9?$AAf?$AAi@ 0000000140054568     libucrtd:lcidtoname_downlevel.obj
 0002:00011578       ??_C@_1M@BOFOGHPB@?$AAs?$AAq?$AA?9?$AAa?$AAl@ 0000000140054578     libucrtd:lcidtoname_downlevel.obj
 0002:00011588       ??_C@_1BG@LJBBIPGB@?$AAs?$AAr?$AA?9?$AAb?$AAa?$AA?9?$AAc?$AAy?$AAr?$AAl@ 0000000140054588     libucrtd:lcidtoname_downlevel.obj
 0002:000115a0       ??_C@_1BG@JLBENFOE@?$AAs?$AAr?$AA?9?$AAb?$AAa?$AA?9?$AAl?$AAa?$AAt?$AAn@ 00000001400545a0     libucrtd:lcidtoname_downlevel.obj
 0002:000115b8       ??_C@_1BG@KODPNHE@?$AAs?$AAr?$AA?9?$AAs?$AAp?$AA?9?$AAc?$AAy?$AAr?$AAl@ 00000001400545b8     libucrtd:lcidtoname_downlevel.obj
 0002:000115d0       ??_C@_1BG@CIOGKHPB@?$AAs?$AAr?$AA?9?$AAs?$AAp?$AA?9?$AAl?$AAa?$AAt?$AAn@ 00000001400545d0     libucrtd:lcidtoname_downlevel.obj
 0002:000115e8       ??_C@_1M@NGFJLMAC@?$AAs?$AAv?$AA?9?$AAf?$AAi@ 00000001400545e8     libucrtd:lcidtoname_downlevel.obj
 0002:000115f8       ??_C@_1M@MPJEJAJC@?$AAs?$AAv?$AA?9?$AAs?$AAe@ 00000001400545f8     libucrtd:lcidtoname_downlevel.obj
 0002:00011608       ??_C@_1M@MPNDHLFK@?$AAs?$AAw?$AA?9?$AAk?$AAe@ 0000000140054608     libucrtd:lcidtoname_downlevel.obj
 0002:00011618       ??_C@_1O@KOHBJJI@?$AAs?$AAy?$AAr?$AA?9?$AAs?$AAy@ 0000000140054618     libucrtd:lcidtoname_downlevel.obj
 0002:00011628       ??_C@_1M@LDCEFHA@?$AAt?$AAa?$AA?9?$AAi?$AAn@ 0000000140054628     libucrtd:lcidtoname_downlevel.obj
 0002:00011638       ??_C@_1M@CNJOFAK@?$AAt?$AAe?$AA?9?$AAi?$AAn@ 0000000140054638     libucrtd:lcidtoname_downlevel.obj
 0002:00011648       ??_C@_1M@GNAECACD@?$AAt?$AAh?$AA?9?$AAt?$AAh@ 0000000140054648     libucrtd:lcidtoname_downlevel.obj
 0002:00011658       ??_C@_1M@CHBIHOJO@?$AAt?$AAn?$AA?9?$AAz?$AAa@ 0000000140054658     libucrtd:lcidtoname_downlevel.obj
 0002:00011668       ??_C@_1M@GCCMIGPJ@?$AAt?$AAr?$AA?9?$AAt?$AAr@ 0000000140054668     libucrtd:lcidtoname_downlevel.obj
 0002:00011678       ??_C@_1M@CELMCNBK@?$AAt?$AAt?$AA?9?$AAr?$AAu@ 0000000140054678     libucrtd:lcidtoname_downlevel.obj
 0002:00011688       ??_C@_1M@KLMCELGA@?$AAu?$AAk?$AA?9?$AAu?$AAa@ 0000000140054688     libucrtd:lcidtoname_downlevel.obj
 0002:00011698       ??_C@_1M@EPAJJAJF@?$AAu?$AAr?$AA?9?$AAp?$AAk@ 0000000140054698     libucrtd:lcidtoname_downlevel.obj
 0002:000116a8       ??_C@_1BG@GEGPMCDJ@?$AAu?$AAz?$AA?9?$AAu?$AAz?$AA?9?$AAc?$AAy?$AAr?$AAl@ 00000001400546a8     libucrtd:lcidtoname_downlevel.obj
 0002:000116c0       ??_C@_1BG@EGGKJILM@?$AAu?$AAz?$AA?9?$AAu?$AAz?$AA?9?$AAl?$AAa?$AAt?$AAn@ 00000001400546c0     libucrtd:lcidtoname_downlevel.obj
 0002:000116d8       ??_C@_1M@GFOCLFF@?$AAv?$AAi?$AA?9?$AAv?$AAn@ 00000001400546d8     libucrtd:lcidtoname_downlevel.obj
 0002:000116e8       ??_C@_1M@CPAMEDFI@?$AAx?$AAh?$AA?9?$AAz?$AAa@ 00000001400546e8     libucrtd:lcidtoname_downlevel.obj
 0002:000116f8       ??_C@_1O@EBKIFIGN@?$AAz?$AAh?$AA?9?$AAc?$AAh?$AAs@ 00000001400546f8     libucrtd:lcidtoname_downlevel.obj
 0002:00011708       ??_C@_1O@NMHPGANE@?$AAz?$AAh?$AA?9?$AAc?$AAh?$AAt@ 0000000140054708     libucrtd:lcidtoname_downlevel.obj
 0002:00011718       ??_C@_1M@LPINJOMC@?$AAz?$AAh?$AA?9?$AAc?$AAn@ 0000000140054718     libucrtd:lcidtoname_downlevel.obj
 0002:00011728       ??_C@_1M@OCJEJODD@?$AAz?$AAh?$AA?9?$AAh?$AAk@ 0000000140054728     libucrtd:lcidtoname_downlevel.obj
 0002:00011738       ??_C@_1M@DNDLJINH@?$AAz?$AAh?$AA?9?$AAm?$AAo@ 0000000140054738     libucrtd:lcidtoname_downlevel.obj
 0002:00011748       ??_C@_1M@MBFDNDND@?$AAz?$AAh?$AA?9?$AAs?$AAg@ 0000000140054748     libucrtd:lcidtoname_downlevel.obj
 0002:00011758       ??_C@_1M@IMEPLEPE@?$AAz?$AAh?$AA?9?$AAt?$AAw@ 0000000140054758     libucrtd:lcidtoname_downlevel.obj
 0002:00011768       ??_C@_1M@BBGHNHJP@?$AAz?$AAu?$AA?9?$AAz?$AAa@ 0000000140054768     libucrtd:lcidtoname_downlevel.obj
 0002:00011780       ??_C@_1GA@DEPMKPD@?$AAm?$AAi?$AAn?$AAk?$AAe?$AAr?$AAn?$AAe?$AAl?$AA?2?$AAc?$AAr?$AAt?$AAs?$AA?2@ 0000000140054780     libucrtd:isatty.obj
 0002:000117e0       ??_C@_1BA@LEBDGIHM@?$AA_?$AAi?$AAs?$AAa?$AAt?$AAt?$AAy@ 00000001400547e0     libucrtd:isatty.obj
 0002:000117f0       ??_C@_1GG@MCCIENJO@?$AAm?$AAi?$AAn?$AAk?$AAe?$AAr?$AAn?$AAe?$AAl?$AA?2?$AAc?$AAr?$AAt?$AAs?$AA?2@ 00000001400547f0     libucrtd:mbrtowc.obj
 0002:00011860       ??_C@_1EK@MCEFBPIK@?$AAr?$AAe?$AAt?$AAv?$AAa?$AAl?$AA?5?$AA?$CB?$AA?$DN?$AA?5?$AA_?$AA_?$AAc?$AAr?$AAt@ 0000000140054860     libucrtd:mbrtowc.obj
 0002:000118b0       ??_C@_1EK@OANGPA@?$AA1?$AA?5?$AA?$DM?$AA?$DN?$AA?5?$AAt?$AAr?$AAa?$AAi?$AAl?$AA_?$AAb?$AAy?$AAt?$AAe@ 00000001400548b0     libucrtd:c32rtomb.obj
 0002:00011900       ??_C@_1GI@FBFKMNDD@?$AAm?$AAi?$AAn?$AAk?$AAe?$AAr?$AAn?$AAe?$AAl?$AA?2?$AAc?$AAr?$AAt?$AAs?$AA?2@ 0000000140054900     libucrtd:c32rtomb.obj
 0002:00011970       ??_C@_1EA@DDDCIHI@?$AAc?$AA3?$AA2?$AA?5?$AA?$DM?$AA?5?$AA?$CI?$AA1?$AAu?$AA?5?$AA?$DM?$AA?$DM?$AA?5?$AA?$CI?$AA7@ 0000000140054970     libucrtd:c32rtomb.obj
 0002:000119b0       ??_C@_1GI@IMEEHIAK@?$AAm?$AAi?$AAn?$AAk?$AAe?$AAr?$AAn?$AAe?$AAl?$AA?2?$AAc?$AAr?$AAt?$AAs?$AA?2@ 00000001400549b0     libucrtd:_fptostr.obj
 0002:00011a18       ??_C@_1DG@NMGBKPMI@?$AA_?$AA_?$AAa?$AAc?$AAr?$AAt?$AA_?$AAf?$AAp?$AA_?$AAs?$AAt?$AAr?$AAf?$AAl@ 0000000140054a18     libucrtd:_fptostr.obj
 0002:00011a50       ??_C@_1IE@EAOKIIFP@?$AAb?$AAu?$AAf?$AAf?$AAe?$AAr?$AA_?$AAc?$AAo?$AAu?$AAn?$AAt?$AA?5?$AA?$DO?$AA?5@ 0000000140054a50     libucrtd:_fptostr.obj
 0002:00011ad8       ??_C@_1CA@EDEEBMBB@?$AAp?$AAf?$AAl?$AAt?$AA?5?$AA?$CB?$AA?$DN?$AA?5?$AAn?$AAu?$AAl?$AAl?$AAp?$AAt?$AAr@ 0000000140054ad8     libucrtd:_fptostr.obj
 0002:00011b00       ?large_power_data@?1??multiply_by_power_of_ten@__crt_strtox@@YA_NAEAUbig_integer@2@I@Z@4QBIB 0000000140054b00     libucrtd:cfout.obj
 0002:00012410       ?large_power_indices@?1??multiply_by_power_of_ten@__crt_strtox@@YA_NAEAUbig_integer@2@I@Z@4QBUunpack_index@?1??12@YA_N0I@Z@B 0000000140055410     libucrtd:cfout.obj
 0002:000124a8       ?small_powers_of_ten@?1??multiply_by_power_of_ten@__crt_strtox@@YA_NAEAUbig_integer@2@I@Z@4QBIB 00000001400554a8     libucrtd:cfout.obj
 0002:000124d0       ??_C@_1DI@GICAMMFM@?$AA?$CI?$AA?$CC?$AAD?$AAi?$AAv?$AAi?$AAs?$AAi?$AAo?$AAn?$AA?5?$AAb?$AAy?$AA?5?$AAz@ 00000001400554d0     libucrtd:cfout.obj
 0002:00012510       ??_C@_1GO@BFGDDONN@?$AAm?$AAi?$AAn?$AAk?$AAe?$AAr?$AAn?$AAe?$AAl?$AA?2?$AAc?$AAr?$AAt?$AAs?$AA?2@ 0000000140055510     libucrtd:cfout.obj
 0002:00012580       ??_C@_1GC@DDAKNBNC@?$AAm?$AAi?$AAn?$AAk?$AAe?$AAr?$AAn?$AAe?$AAl?$AA?2?$AAc?$AAr?$AAt?$AAs?$AA?2@ 0000000140055580     libucrtd:cfout.obj
 0002:000125e8       ??_C@_1BM@FAAOAKKO@?$AA_?$AA_?$AAa?$AAc?$AAr?$AAt?$AA_?$AAf?$AAl?$AAt?$AAo?$AAu?$AAt@ 00000001400555e8     libucrtd:cfout.obj
 0002:00012610       ??_C@_1EI@OACEJKEP@?$AAs?$AAt?$AAr?$AAc?$AAp?$AAy?$AA_?$AAs?$AA?$CI?$AAr?$AAe?$AAs?$AAu?$AAl?$AAt@ 0000000140055610     libucrtd:cfout.obj
 0002:00012658       ??_C@_01GBGANLPD@0@        0000000140055658     libucrtd:cfout.obj
 0002:00012660       ??_C@_1FC@KIECGFMP@?$AAs?$AAt?$AAr?$AAc?$AAp?$AAy?$AA_?$AAs?$AA?$CI?$AAr?$AAe?$AAs?$AAu?$AAl?$AAt@ 0000000140055660     libucrtd:cfout.obj
 0002:000126b4       ??_C@_05DNEBIAHO@1?$CDINF@ 00000001400556b4     libucrtd:cfout.obj
 0002:000126c0       ??_C@_1FC@NFPJEIBD@?$AAs?$AAt?$AAr?$AAc?$AAp?$AAy?$AA_?$AAs?$AA?$CI?$AAr?$AAe?$AAs?$AAu?$AAl?$AAt@ 00000001400556c0     libucrtd:cfout.obj
 0002:00012714       ??_C@_06IMKFLFPG@1?$CDQNAN@ 0000000140055714     libucrtd:cfout.obj
 0002:00012720       ??_C@_1FC@DEJHIMLO@?$AAs?$AAt?$AAr?$AAc?$AAp?$AAy?$AA_?$AAs?$AA?$CI?$AAr?$AAe?$AAs?$AAu?$AAl?$AAt@ 0000000140055720     libucrtd:cfout.obj
 0002:00012774       ??_C@_06PGGFOGJG@1?$CDSNAN@ 0000000140055774     libucrtd:cfout.obj
 0002:00012780       ??_C@_1FC@KMLHLFPC@?$AAs?$AAt?$AAr?$AAc?$AAp?$AAy?$AA_?$AAs?$AA?$CI?$AAr?$AAe?$AAs?$AAu?$AAl?$AAt@ 0000000140055780     libucrtd:cfout.obj
 0002:000127d4       ??_C@_05PHHOCPM@1?$CDIND@  00000001400557d4     libucrtd:cfout.obj
 0002:000127e0       ??_C@_1DE@KHKADFOO@?$AAm?$AAa?$AAn?$AAt?$AAi?$AAs?$AAs?$AAa?$AA_?$AAb?$AAu?$AAf?$AAf?$AAe?$AAr@ 00000001400557e0     libucrtd:cfout.obj
 0002:00012820       ??_C@_1FI@LFKLOPAC@?$AA?$CI?$AA?$CC?$AAu?$AAn?$AAe?$AAx?$AAp?$AAe?$AAc?$AAt?$AAe?$AAd?$AA?5?$AAi?$AAn@ 0000000140055820     libucrtd:cfout.obj
 0002:00012880       ??_C@_1FG@MLHBDPBG@?$AAq?$AAu?$AAo?$AAt?$AAi?$AAe?$AAn?$AAt?$AA?5?$AA?$DM?$AA?5?$AAd?$AAi?$AAg?$AAi@ 0000000140055880     libucrtd:cfout.obj
 0002:000128e0       ??_C@_1GC@DFIGBGJI@?$AAm?$AAi?$AAn?$AAk?$AAe?$AAr?$AAn?$AAe?$AAl?$AA?2?$AAc?$AAr?$AAt?$AAs?$AA?2@ 00000001400558e0     libucrtd:_flsbuf.obj
 0002:00012950       ??_C@_1HO@MLMGPAFH@?$AA?$CI?$AA?$CC?$AAi?$AAn?$AAc?$AAo?$AAn?$AAs?$AAi?$AAs?$AAt?$AAe?$AAn?$AAt?$AA?5@ 0000000140055950     libucrtd:_flsbuf.obj
 0002:000129d0       ??_C@_1BK@FPAMLIDG@?$AAs?$AA?5?$AA?$CB?$AA?$DN?$AA?5?$AAn?$AAu?$AAl?$AAl?$AAp?$AAt?$AAr@ 00000001400559d0     libucrtd:mbstowcs.obj
 0002:000129f0       ??_C@_1GI@KABMHNPH@?$AAm?$AAi?$AAn?$AAk?$AAe?$AAr?$AAn?$AAe?$AAl?$AA?2?$AAc?$AAr?$AAt?$AAs?$AA?2@ 00000001400559f0     libucrtd:mbstowcs.obj
 0002:00012a58       ??_C@_1CG@JEHFHLNG@?$AA_?$AAm?$AAb?$AAs?$AAt?$AAo?$AAw?$AAc?$AAs?$AA_?$AAl?$AA_?$AAh?$AAe?$AAl@ 0000000140055a58     libucrtd:mbstowcs.obj
 0002:00012a80       ??_C@_1JM@MEKBACIG@?$AA?$CI?$AAp?$AAw?$AAc?$AAs?$AA?5?$AA?$DN?$AA?$DN?$AA?5?$AAn?$AAu?$AAl?$AAl?$AAp?$AAt@ 0000000140055a80     libucrtd:mbstowcs.obj
 0002:00012b20       ??_C@_1BM@PHENIGHD@?$AA_?$AAm?$AAb?$AAs?$AAt?$AAo?$AAw?$AAc?$AAs?$AA_?$AAs?$AA_?$AAl@ 0000000140055b20     libucrtd:mbstowcs.obj
 0002:00012b40       ??_C@_1CM@LLECFMFH@?$AAb?$AAu?$AAf?$AAf?$AAe?$AAr?$AAS?$AAi?$AAz?$AAe?$AA?5?$AA?$DM?$AA?$DN?$AA?5?$AAI@ 0000000140055b40     libucrtd:mbstowcs.obj
 0002:00012b70       ??_C@_1CO@JNPEPJAL@?$AAr?$AAe?$AAt?$AAs?$AAi?$AAz?$AAe?$AA?5?$AA?$DM?$AA?$DN?$AA?5?$AAs?$AAi?$AAz?$AAe@ 0000000140055b70     libucrtd:mbstowcs.obj
 0002:00012bc8       ??_C@_1CA@NOKNKDIG@?$AAp?$AAw?$AAc?$AAs?$AA?5?$AA?$CB?$AA?$DN?$AA?5?$AAn?$AAu?$AAl?$AAl?$AAp?$AAt?$AAr@ 0000000140055bc8     libucrtd:wcstombs.obj
 0002:00012bf0       ??_C@_1GI@EEJDEALP@?$AAm?$AAi?$AAn?$AAk?$AAe?$AAr?$AAn?$AAe?$AAl?$AA?2?$AAc?$AAr?$AAt?$AAs?$AA?2@ 0000000140055bf0     libucrtd:wcstombs.obj
 0002:00012c58       ??_C@_1CG@LLJCAOHF@?$AA_?$AAw?$AAc?$AAs?$AAt?$AAo?$AAm?$AAb?$AAs?$AA_?$AAl?$AA_?$AAh?$AAe?$AAl@ 0000000140055c58     libucrtd:wcstombs.obj
 0002:00012c80       ??_C@_1JI@DFNKFCLG@?$AA?$CI?$AAd?$AAs?$AAt?$AA?5?$AA?$CB?$AA?$DN?$AA?5?$AAn?$AAu?$AAl?$AAl?$AAp?$AAt?$AAr@ 0000000140055c80     libucrtd:wcstombs.obj
 0002:00012d18       ??_C@_1BM@BDMCLLDL@?$AA_?$AAw?$AAc?$AAs?$AAt?$AAo?$AAm?$AAb?$AAs?$AA_?$AAs?$AA_?$AAl@ 0000000140055d18     libucrtd:wcstombs.obj
 0002:00012d38       ??_C@_1CM@KEOGBFLI@?$AAs?$AAi?$AAz?$AAe?$AAI?$AAn?$AAB?$AAy?$AAt?$AAe?$AAs?$AA?5?$AA?$DO?$AA?5?$AAr@ 0000000140055d38     libucrtd:wcstombs.obj
 0002:00012d70       ??_C@_1GA@DKNOMDCL@?$AAm?$AAi?$AAn?$AAk?$AAe?$AAr?$AAn?$AAe?$AAl?$AA?2?$AAc?$AAr?$AAt?$AAs?$AA?2@ 0000000140055d70     libucrtd:fclose.obj
 0002:00012dd0       ??_C@_1O@EGMJNCOI@?$AAf?$AAc?$AAl?$AAo?$AAs?$AAe@ 0000000140055dd0     libucrtd:fclose.obj
 0002:00012de0       ??_C@_1BO@JINCABEC@?$AA_?$AAf?$AAc?$AAl?$AAo?$AAs?$AAe?$AA_?$AAn?$AAo?$AAl?$AAo?$AAc?$AAk@ 0000000140055de0     libucrtd:fclose.obj
 0002:00012e00       ??_C@_1FO@KIIHJNFN@?$AAm?$AAi?$AAn?$AAk?$AAe?$AAr?$AAn?$AAe?$AAl?$AA?2?$AAc?$AAr?$AAt?$AAs?$AA?2@ 0000000140055e00     libucrtd:lseek.obj
 0002:00012e60       ??_C@_1BK@JOMBNFIM@?$AAc?$AAo?$AAm?$AAm?$AAo?$AAn?$AA_?$AAl?$AAs?$AAe?$AAe?$AAk@ 0000000140055e60     libucrtd:lseek.obj
 0002:00012e80       ??_C@_1DM@LMLOLGJ@?$AA?$CI?$AA?$CC?$AAI?$AAn?$AAv?$AAa?$AAl?$AAi?$AAd?$AA?5?$AAf?$AAi?$AAl?$AAe?$AA?5@ 0000000140055e80     libucrtd:lseek.obj
 0002:00012ebc       ??_C@_05HGHHAHAP@log10@    0000000140055ebc     libucrtd:fpexcept.obj
 0002:00013120       __real@3ff0000000000000    0000000140056120     libucrtd:ceil.obj
 0002:00013128       ??_C@_1DG@JNDMIEJL@?$AA?$CI?$AA?$CC?$AAI?$AAn?$AAv?$AAa?$AAl?$AAi?$AAd?$AA?5?$AAi?$AAn?$AAp?$AAu?$AAt@ 0000000140056128     libucrtd:contrlfp.obj
 0002:00013160       ??_C@_1FO@HHLKCIKB@?$AAm?$AAi?$AAn?$AAk?$AAe?$AAr?$AAn?$AAe?$AAl?$AA?2?$AAc?$AAr?$AAt?$AAs?$AA?2@ 0000000140056160     libucrtd:contrlfp.obj
 0002:000131c0       ??_C@_1BK@CDOALEA@?$AA_?$AAc?$AAo?$AAn?$AAt?$AAr?$AAo?$AAl?$AAf?$AAp?$AA_?$AAs@ 00000001400561c0     libucrtd:contrlfp.obj
 0002:000131e0       ??_C@_1GC@DLDMJFMI@?$AAm?$AAi?$AAn?$AAk?$AAe?$AAr?$AAn?$AAe?$AAl?$AA?2?$AAc?$AAr?$AAt?$AAs?$AA?2@ 00000001400561e0     libucrtd:_getbuf.obj
 0002:00013248       ??_C@_0DB@LKJPMJPL@minkernel?2crts?2ucrt?2src?2appcrt?2@ 0000000140056248     libucrtd:_getbuf.obj
 0002:00013280       ??_C@_1FO@IPDGALOE@?$AAm?$AAi?$AAn?$AAk?$AAe?$AAr?$AAn?$AAe?$AAl?$AA?2?$AAc?$AAr?$AAt?$AAs?$AA?2@ 0000000140056280     libucrtd:close.obj
 0002:000132e0       ??_C@_1O@EDEJGJBM@?$AA_?$AAc?$AAl?$AAo?$AAs?$AAe@ 00000001400562e0     libucrtd:close.obj
 0002:000132f0       ??_C@_1BA@BALFACEM@?$AAC?$AAO?$AAN?$AAO?$AAU?$AAT?$AA$@ 00000001400562f0     libucrtd:initcon.obj
 0002:00013310       __log10_256_lead           0000000140056310     libucrtd:log10_256_lead_tail_table.obj
 0002:00013b20       __log10_256_tail           0000000140056b20     libucrtd:log10_256_lead_tail_table.obj
 0002:00014330       __log_F_inv_qword          0000000140057330     libucrtd:log_f_inv_qword_table.obj
 0002:00014b40       ??_C@_1EK@PDBKILLM@?$AA?$CI?$AAm?$AAa?$AAs?$AAk?$AA?$CG?$AA?$HO?$AA?$CI?$AA_?$AAM?$AAC?$AAW?$AA_?$AAD?$AAN@ 0000000140057b40     libucrtd:ieee.obj
 0002:00014b90       ??_C@_1GC@IEFABLII@?$AAm?$AAi?$AAn?$AAk?$AAe?$AAr?$AAn?$AAe?$AAl?$AA?2?$AAc?$AAr?$AAt?$AAs?$AA?2@ 0000000140057b90     libucrtd:ieee.obj
 0002:00014c00       ??_7type_info@@6B@         0000000140057c00     LIBCMTD:std_type_info_static.obj
 0002:00014c60       _load_config_used          0000000140057c60     LIBCMTD:loadcfg.obj
 0002:00014e00       ??_R4exception@std@@6B@    0000000140057e00     libvcruntimed:frame.obj
 0002:00014e28       ??_R3exception@std@@8      0000000140057e28     libvcruntimed:frame.obj
 0002:00014e40       ??_R2exception@std@@8      0000000140057e40     libvcruntimed:frame.obj
 0002:00014e50       ??_R1A@?0A@EA@exception@std@@8 0000000140057e50     libvcruntimed:frame.obj
 0002:00014e78       ??_R4bad_exception@std@@6B@ 0000000140057e78     libvcruntimed:frame.obj
 0002:00014ea0       ??_R3bad_exception@std@@8  0000000140057ea0     libvcruntimed:frame.obj
 0002:00014eb8       ??_R2bad_exception@std@@8  0000000140057eb8     libvcruntimed:frame.obj
 0002:00014ed0       ??_R1A@?0A@EA@bad_exception@std@@8 0000000140057ed0     libvcruntimed:frame.obj
 0002:00014ef8       ??_R4type_info@@6B@        0000000140057ef8     LIBCMTD:std_type_info_static.obj
 0002:00014f20       ??_R3type_info@@8          0000000140057f20     LIBCMTD:std_type_info_static.obj
 0002:00014f38       ??_R2type_info@@8          0000000140057f38     LIBCMTD:std_type_info_static.obj
 0002:00014f48       ??_R1A@?0A@EA@type_info@@8 0000000140057f48     LIBCMTD:std_type_info_static.obj
 0002:000152a8       __rtc_iaa                  00000001400582a8     LIBCMTD:initsect.obj
 0002:000152b0       __rtc_izz                  00000001400582b0     LIBCMTD:initsect.obj
 0002:000152b8       __rtc_taa                  00000001400582b8     LIBCMTD:initsect.obj
 0002:000152c0       __rtc_tzz                  00000001400582c0     LIBCMTD:initsect.obj
 0002:00016498       _TI2?AVbad_exception@std@@ 0000000140059498     libvcruntimed:frame.obj
 0002:000164b8       _CTA2?AVbad_exception@std@@ 00000001400594b8     libvcruntimed:frame.obj
 0002:000164d0       _CT??_R0?AVbad_exception@std@@@8??0bad_exception@std@@QEAA@AEBV01@@Z24 00000001400594d0     libvcruntimed:frame.obj
 0002:000164f8       _CT??_R0?AVexception@std@@@8??0exception@std@@QEAA@AEBV01@@Z24 00000001400594f8     libvcruntimed:frame.obj
 0002:0001651c       __IMPORT_DESCRIPTOR_USER32 000000014005951c     user32:USER32.dll
 0002:00016530       __IMPORT_DESCRIPTOR_d3d11  0000000140059530     d3d11:d3d11.dll
 0002:00016544       __IMPORT_DESCRIPTOR_D3DCOMPILER_47 0000000140059544     d3dcompiler:D3DCOMPILER_47.dll
 0002:00016558       __IMPORT_DESCRIPTOR_KERNEL32 0000000140059558     kernel32:KERNEL32.dll
 0002:0001656c       __NULL_IMPORT_DESCRIPTOR   000000014005956c     user32:USER32.dll
 0003:00000010       __security_cookie_complement 000000014005a010     LIBCMTD:gs_cookie.obj
 0003:00000018       __security_cookie          000000014005a018     LIBCMTD:gs_cookie.obj
 0003:00000020       _fltused                   000000014005a020     LIBCMTD:fltused.obj
 0003:00000024       __scrt_native_dllmain_reason 000000014005a024     LIBCMTD:utility.obj
 0003:00000028       __scrt_default_matherr     000000014005a028     LIBCMTD:matherr.obj
 0003:00000030       __isa_available            000000014005a030     LIBCMTD:cpu_disp.obj
 0003:00000034       __isa_enabled              000000014005a034     LIBCMTD:cpu_disp.obj
 0003:00000038       __memcpy_nt_iters          000000014005a038     LIBCMTD:cpu_disp.obj
 0003:00000040       __memset_nt_iters          000000014005a040     LIBCMTD:cpu_disp.obj
 0003:00000064       _crtDbgFlag                000000014005a064     libucrtd:debug_heap.obj
 0003:00000068       _crtBreakAlloc             000000014005a068     libucrtd:debug_heap.obj
 0003:00000070       __abort_behavior           000000014005a070     libucrtd:abort.obj
 0003:00000090       _iob                       000000014005a090     libucrtd:_file.obj
 0003:000001b0       __acrt_initial_multibyte_data 000000014005a1b0     libucrtd:mbctype.obj
 0003:000006f0       __badioinfo                000000014005a6f0     libucrtd:ioinit.obj
 0003:00000740       __acrt_initial_locale_data 000000014005a740     libucrtd:nlsdata.obj
 0003:00000898       __acrt_initial_locale_pointers 000000014005a898     libucrtd:nlsdata.obj
 0003:000008a8       __acrt_wide_c_locale_string 000000014005a8a8     libucrtd:nlsdata.obj
 0003:000008b0       _pwctype                   000000014005a8b0     libucrtd:ctype.obj
 0003:000008c0       __acrt_lconv_c             000000014005a8c0     libucrtd:localeconv.obj
 0003:00000958       __acrt_lconv_static_decimal 000000014005a958     libucrtd:localeconv.obj
 0003:0000095c       __acrt_lconv_static_W_decimal 000000014005a95c     libucrtd:localeconv.obj
 0003:00000960       __globallocalestatus       000000014005a960     libucrtd:glstatus.obj
 0003:00000968       _pfnAllocHook              000000014005a968     libucrtd:debug_heap_hook.obj
 0003:00000978       _crtAssertBusy             000000014005a978     libucrtd:dbgrptt.obj
 0003:00000980       _CrtDbgMode                000000014005a980     libucrtd:dbgrptt.obj
 0003:00000990       _CrtDbgFile                000000014005a990     libucrtd:dbgrptt.obj
 0003:000009b0       _lookuptrailbytes          000000014005a9b0     libucrtd:read.obj
 0003:00000ae0       ??_R0?AVbad_exception@std@@@8 000000014005aae0     libvcruntimed:frame.obj
 0003:00000b08       ??_R0?AVexception@std@@@8  000000014005ab08     libvcruntimed:frame.obj
 0003:00000b30       ??_R0?AVtype_info@@@8      000000014005ab30     LIBCMTD:std_type_info_static.obj
 0003:000010d0       __scrt_current_native_startup_state 000000014005b0d0     LIBCMTD:utility.obj
 0003:000010d8       __scrt_native_startup_lock 000000014005b0d8     LIBCMTD:utility.obj
 0003:00001120       ?__type_info_root_node@@3U__type_info_node@@A 000000014005b120     LIBCMTD:tncleanup.obj
 0003:00001130       ?_OptionsStorage@?1??__local_stdio_printf_options@@9@4_KA 000000014005b130     LIBCMTD:default_local_stdio_options.obj
 0003:00001138       ?_OptionsStorage@?1??__local_stdio_scanf_options@@9@4_KA 000000014005b138     LIBCMTD:default_local_stdio_options.obj
 0003:00001140       __scrt_debugger_hook_flag  000000014005b140     LIBCMTD:utility_desktop.obj
 0003:00001148       __castguard_check_failure_os_handled_fptr 000000014005b148     LIBCMTD:guard_support.obj
 0003:00001150       __favor                    000000014005b150     LIBCMTD:cpu_disp.obj
 0003:00001158       ?__WinRTOutOfMemoryExceptionCallback@@3P6APEAXXZEA 000000014005b158     libvcruntimed:ehhelpers.obj
 0003:00001210       ?pArgList@UnDecorator@@0PEAVReplicator@@EA 000000014005b210     libvcruntimed:undname.obj
 0003:00001218       ?pZNameList@UnDecorator@@0PEAVReplicator@@EA 000000014005b218     libvcruntimed:undname.obj
 0003:00001220       ?pTemplateArgList@UnDecorator@@0PEAVReplicator@@EA 000000014005b220     libvcruntimed:undname.obj
 0003:00001228       ?gName@UnDecorator@@0PEBDEB 000000014005b228     libvcruntimed:undname.obj
 0003:00001230       ?name@UnDecorator@@0PEBDEB 000000014005b230     libvcruntimed:undname.obj
 0003:00001238       ?disableFlags@UnDecorator@@0KA 000000014005b238     libvcruntimed:undname.obj
 0003:0000123c       ?fExplicitTemplateParams@UnDecorator@@0_NA 000000014005b23c     libvcruntimed:undname.obj
 0003:0000123d       ?fGetTemplateArgumentList@UnDecorator@@0_NA 000000014005b23d     libvcruntimed:undname.obj
 0003:00001240       ?m_pGetParameter@UnDecorator@@0P6APEADJ@ZEA 000000014005b240     libvcruntimed:undname.obj
 0003:00001248       ?m_CHPENameOffset@UnDecorator@@0KA 000000014005b248     libvcruntimed:undname.obj
 0003:0000124c       ?m_recursionLevel@UnDecorator@@0KA 000000014005b24c     libvcruntimed:undname.obj
 0003:000012b8       __pPurecall                000000014005b2b8     libvcruntimed:purevirt_data.obj
 0003:00001a08       _environ_table             000000014005ba08     libucrtd:environment_initialization.obj
 0003:00001a10       _wenviron_table            000000014005ba10     libucrtd:environment_initialization.obj
 0003:00001a18       __dcrt_initial_wide_environment 000000014005ba18     libucrtd:environment_initialization.obj
 0003:00001a20       __dcrt_initial_narrow_environment 000000014005ba20     libucrtd:environment_initialization.obj
 0003:00001a38       ?c_exit_complete@?1???R<lambda_6e4b09c48022b2350581041d5f6b0c4c>@@QEBA@XZ@4_NA 000000014005ba38     libucrtd:exit.obj
 0003:00001a3c       __acrt_locale_changed_data 000000014005ba3c     libucrtd:wsetlocale.obj
 0003:00001a44       _commode                   000000014005ba44     libucrtd:ncommode.obj
 0003:00001a48       __acrt_atexit_table        000000014005ba48     libucrtd:onexit.obj
 0003:00001a60       __acrt_at_quick_exit_table 000000014005ba60     libucrtd:onexit.obj
 0003:00001aa8       _pfnDumpClient             000000014005baa8     libucrtd:debug_heap.obj
 0003:00001ac8       _nstream                   000000014005bac8     libucrtd:_file.obj
 0003:00001ad0       __piob                     000000014005bad0     libucrtd:_file.obj
 0003:00001ad8       _cflush                    000000014005bad8     libucrtd:_file.obj
 0003:00001b00       __fma3_is_available        000000014005bb00     libucrtd:fma3_available.obj
 0003:00001b04       __use_fma3_lib             000000014005bb04     libucrtd:fma3_available.obj
 0003:00001b08       _mbctype                   000000014005bb08     libucrtd:mbctype.obj
 0003:00001b10       _mbcasemap                 000000014005bb10     libucrtd:mbctype.obj
 0003:00001b18       __acrt_current_multibyte_data 000000014005bb18     libucrtd:mbctype.obj
 0003:00001b28       _pgmptr                    000000014005bb28     libucrtd:argv_data.obj
 0003:00001b30       __argc                     000000014005bb30     libucrtd:argv_data.obj
 0003:00001b38       __argv                     000000014005bb38     libucrtd:argv_data.obj
 0003:00001b40       __wargv                    000000014005bb40     libucrtd:argv_data.obj
 0003:00001b48       _acmdln                    000000014005bb48     libucrtd:argv_data.obj
 0003:00001b50       _wcmdln                    000000014005bb50     libucrtd:argv_data.obj
 0003:00001d9c       _fmode                     000000014005bd9c     libucrtd:txtmode.obj
 0003:00001da0       __pioinfo                  000000014005bda0     libucrtd:ioinit.obj
 0003:000021a0       _nhandle                   000000014005c1a0     libucrtd:ioinit.obj
 0003:000021a8       __acrt_current_locale_data 000000014005c1a8     libucrtd:nlsdata.obj
 0003:00002360       __acrt_lconv_static_null   000000014005c360     libucrtd:localeconv.obj
 0003:00002364       __acrt_lconv_static_W_null 000000014005c364     libucrtd:localeconv.obj
 0003:00002368       __acrt_heap                000000014005c368     libucrtd:heap_handle.obj
 0003:00002378       __acrt_stdout_buffer       000000014005c378     libucrtd:_sftbuf.obj
 0003:00002380       __acrt_stderr_buffer       000000014005c380     libucrtd:_sftbuf.obj
 0003:00002398       _pfnReportHook             000000014005c398     libucrtd:dbgrptt.obj
 0003:000023a0       _pReportHookList           000000014005c3a0     libucrtd:dbgrptt.obj
 0003:000023a8       _pReportHookListW          000000014005c3a8     libucrtd:dbgrptt.obj
 0003:000023c0       __scrt_ucrt_dll_is_in_use  000000014005c3c0     <common>
 0003:000023c8       __dyn_tls_dtor_callback    000000014005c3c8     <common>
 0003:000023d0       __dyn_tls_init_callback    000000014005c3d0     <common>

 entry point at        0001:000024a0

 Static symbols

 0000:fff9d000       .debug$S                   0000000140000000     d3d11:d3d11.dll
 0000:fff9d000       .debug$S                   0000000140000000     d3dcompiler:D3DCOMPILER_47.dll
 0000:fff9d000       .debug$S                   0000000140000000     kernel32:KERNEL32.dll
 0000:fff9d000       .debug$S                   0000000140000000     kernel32:KERNEL32.dll
 0000:fff9d000       .debug$S                   0000000140000000     kernel32:KERNEL32.dll
 0000:fff9d000       .debug$S                   0000000140000000     kernel32:KERNEL32.dll
 0000:fff9d000       .debug$S                   0000000140000000     kernel32:KERNEL32.dll
 0000:fff9d000       .debug$S                   0000000140000000     kernel32:KERNEL32.dll
 0000:fff9d000       .debug$S                   0000000140000000     kernel32:KERNEL32.dll
 0000:fff9d000       .debug$S                   0000000140000000     kernel32:KERNEL32.dll
 0000:fff9d000       .debug$S                   0000000140000000     kernel32:KERNEL32.dll
 0000:fff9d000       .debug$S                   0000000140000000     kernel32:KERNEL32.dll
 0000:fff9d000       .debug$S                   0000000140000000     kernel32:KERNEL32.dll
 0000:fff9d000       .debug$S                   0000000140000000     kernel32:KERNEL32.dll
 0000:fff9d000       .debug$S                   0000000140000000     kernel32:KERNEL32.dll
 0000:fff9d000       .debug$S                   0000000140000000     kernel32:KERNEL32.dll
 0000:fff9d000       .debug$S                   0000000140000000     kernel32:KERNEL32.dll
 0000:fff9d000       .debug$S                   0000000140000000     kernel32:KERNEL32.dll
 0000:fff9d000       .debug$S                   0000000140000000     kernel32:KERNEL32.dll
 0000:fff9d000       .debug$S                   0000000140000000     kernel32:KERNEL32.dll
 0000:fff9d000       .debug$S                   0000000140000000     kernel32:KERNEL32.dll
 0000:fff9d000       .debug$S                   0000000140000000     kernel32:KERNEL32.dll
 0000:fff9d000       .debug$S                   0000000140000000     kernel32:KERNEL32.dll
 0000:fff9d000       .debug$S                   0000000140000000     kernel32:KERNEL32.dll
 0000:fff9d000       .debug$S                   0000000140000000     kernel32:KERNEL32.dll
 0000:fff9d000       .debug$S                   0000000140000000     kernel32:KERNEL32.dll
 0000:fff9d000       .debug$S                   0000000140000000     kernel32:KERNEL32.dll
 0000:fff9d000       .debug$S                   0000000140000000     kernel32:KERNEL32.dll
 0000:fff9d000       .debug$S                   0000000140000000     kernel32:KERNEL32.dll
 0000:fff9d000       .debug$S                   0000000140000000     kernel32:KERNEL32.dll
 0000:fff9d000       .debug$S                   0000000140000000     kernel32:KERNEL32.dll
 0000:fff9d000       .debug$S                   0000000140000000     kernel32:KERNEL32.dll
 0000:fff9d000       .debug$S                   0000000140000000     kernel32:KERNEL32.dll
 0000:fff9d000       .debug$S                   0000000140000000     kernel32:KERNEL32.dll
 0000:fff9d000       .debug$S                   0000000140000000     kernel32:KERNEL32.dll
 0000:fff9d000       .debug$S                   0000000140000000     kernel32:KERNEL32.dll
 0000:fff9d000       .debug$S                   0000000140000000     kernel32:KERNEL32.dll
 0000:fff9d000       .debug$S                   0000000140000000     kernel32:KERNEL32.dll
 0000:fff9d000       .debug$S                   0000000140000000     kernel32:KERNEL32.dll
 0000:fff9d000       .debug$S                   0000000140000000     kernel32:KERNEL32.dll
 0000:fff9d000       .debug$S                   0000000140000000     kernel32:KERNEL32.dll
 0000:fff9d000       .debug$S                   0000000140000000     kernel32:KERNEL32.dll
 0000:fff9d000       .debug$S                   0000000140000000     kernel32:KERNEL32.dll
 0000:fff9d000       .debug$S                   0000000140000000     kernel32:KERNEL32.dll
 0000:fff9d000       .debug$S                   0000000140000000     kernel32:KERNEL32.dll
 0000:fff9d000       .debug$S                   0000000140000000     kernel32:KERNEL32.dll
 0000:fff9d000       .debug$S                   0000000140000000     kernel32:KERNEL32.dll
 0000:fff9d000       .debug$S                   0000000140000000     kernel32:KERNEL32.dll
 0000:fff9d000       .debug$S                   0000000140000000     kernel32:KERNEL32.dll
 0000:fff9d000       .debug$S                   0000000140000000     kernel32:KERNEL32.dll
 0000:fff9d000       .debug$S                   0000000140000000     kernel32:KERNEL32.dll
 0000:fff9d000       .debug$S                   0000000140000000     kernel32:KERNEL32.dll
 0000:fff9d000       .debug$S                   0000000140000000     kernel32:KERNEL32.dll
 0000:fff9d000       .debug$S                   0000000140000000     kernel32:KERNEL32.dll
 0000:fff9d000       .debug$S                   0000000140000000     kernel32:KERNEL32.dll
 0000:fff9d000       .debug$S                   0000000140000000     kernel32:KERNEL32.dll
 0000:fff9d000       .debug$S                   0000000140000000     kernel32:KERNEL32.dll
 0000:fff9d000       .debug$S                   0000000140000000     kernel32:KERNEL32.dll
 0000:fff9d000       .debug$S                   0000000140000000     kernel32:KERNEL32.dll
 0000:fff9d000       .debug$S                   0000000140000000     kernel32:KERNEL32.dll
 0000:fff9d000       .debug$S                   0000000140000000     kernel32:KERNEL32.dll
 0000:fff9d000       .debug$S                   0000000140000000     kernel32:KERNEL32.dll
 0000:fff9d000       .debug$S                   0000000140000000     kernel32:KERNEL32.dll
 0000:fff9d000       .debug$S                   0000000140000000     kernel32:KERNEL32.dll
 0000:fff9d000       .debug$S                   0000000140000000     kernel32:KERNEL32.dll
 0000:fff9d000       .debug$S                   0000000140000000     kernel32:KERNEL32.dll
 0000:fff9d000       .debug$S                   0000000140000000     kernel32:KERNEL32.dll
 0000:fff9d000       .debug$S                   0000000140000000     kernel32:KERNEL32.dll
 0000:fff9d000       .debug$S                   0000000140000000     kernel32:KERNEL32.dll
 0000:fff9d000       .debug$S                   0000000140000000     kernel32:KERNEL32.dll
 0000:fff9d000       .debug$S                   0000000140000000     kernel32:KERNEL32.dll
 0000:fff9d000       .debug$S                   0000000140000000     kernel32:KERNEL32.dll
 0000:fff9d000       .debug$S                   0000000140000000     kernel32:KERNEL32.dll
 0000:fff9d000       .debug$S                   0000000140000000     kernel32:KERNEL32.dll
 0000:fff9d000       .debug$S                   0000000140000000     kernel32:KERNEL32.dll
 0000:fff9d000       .debug$S                   0000000140000000     kernel32:KERNEL32.dll
 0000:fff9d000       .debug$S                   0000000140000000     kernel32:KERNEL32.dll
 0000:fff9d000       .debug$S                   0000000140000000     kernel32:KERNEL32.dll
 0000:fff9d000       .debug$S                   0000000140000000     kernel32:KERNEL32.dll
 0000:fff9d000       .debug$S                   0000000140000000     kernel32:KERNEL32.dll
 0000:fff9d000       .debug$S                   0000000140000000     kernel32:KERNEL32.dll
 0000:fff9d000       .debug$S                   0000000140000000     kernel32:KERNEL32.dll
 0000:fff9d000       .debug$S                   0000000140000000     kernel32:KERNEL32.dll
 0000:fff9d000       .debug$S                   0000000140000000     kernel32:KERNEL32.dll
 0000:fff9d000       .debug$S                   0000000140000000     kernel32:KERNEL32.dll
 0000:fff9d000       .debug$S                   0000000140000000     kernel32:KERNEL32.dll
 0000:fff9d000       .debug$S                   0000000140000000     kernel32:KERNEL32.dll
 0000:fff9d000       .debug$S                   0000000140000000     kernel32:KERNEL32.dll
 0000:fff9d000       .debug$S                   0000000140000000     kernel32:KERNEL32.dll
 0000:fff9d000       .debug$S                   0000000140000000     kernel32:KERNEL32.dll
 0000:fff9d000       .debug$S                   0000000140000000     kernel32:KERNEL32.dll
 0000:fff9d000       .debug$S                   0000000140000000     user32:USER32.dll
 0000:fff9d000       .debug$S                   0000000140000000     user32:USER32.dll
 0000:fff9d000       .debug$S                   0000000140000000     user32:USER32.dll
 0000:fff9d000       .debug$S                   0000000140000000     user32:USER32.dll
 0000:fff9d000       .debug$S                   0000000140000000     user32:USER32.dll
 0000:fff9d000       .debug$S                   0000000140000000     user32:USER32.dll
 0000:fff9d000       .debug$S                   0000000140000000     user32:USER32.dll
 0000:fff9d000       .debug$S                   0000000140000000     user32:USER32.dll
 0000:fff9d000       .debug$S                   0000000140000000     user32:USER32.dll
 0000:fff9d000       .debug$S                   0000000140000000     user32:USER32.dll
 0000:fff9d000       .debug$S                   0000000140000000     user32:USER32.dll
 0000:fff9d000       .debug$S                   0000000140000000     user32:USER32.dll
 0000:fff9d000       .debug$S                   0000000140000000     user32:USER32.dll
 0001:00001910       ?CreateInputLayout@@YAXPEAUd3d_state@@PEAUID3D10Blob@@W4V_SHADER@@@Z 0000000140002910 f   win32.obj
 0001:00001a70       ?CreateVertexShader@@YAPEAUID3D10Blob@@PEAUd3d_state@@W4V_SHADER@@PEB_W@Z 0000000140002a70 f   win32.obj
 0001:00001c60       ?InitVertexShaderAndInputLayout@@YAXPEAUd3d_state@@W4V_SHADER@@PEB_W@Z 0000000140002c60 f   win32.obj
 0001:00001cb0       ?InitPixelShader@@YAXPEAUd3d_state@@W4P_SHADER@@PEB_W@Z 0000000140002cb0 f   win32.obj
 0001:000020e0       $$000000                   00000001400030e0     LIBCMTD:amdsecgs.obj
 0001:00002120       ?pre_c_initialization@@YAHXZ 0000000140003120 f   LIBCMTD:exe_winmain.obj
 0001:000021e0       ?post_pgo_initialization@@YAHXZ 00000001400031e0 f   LIBCMTD:exe_winmain.obj
 0001:000021f0       ?pre_cpp_initialization@@YAXXZ 00000001400031f0 f   LIBCMTD:exe_winmain.obj
 0001:00002210       ?__scrt_common_main@@YAHXZ 0000000140003210 f   LIBCMTD:exe_winmain.obj
 0001:00002230       ?__scrt_common_main_seh@@YAHXZ 0000000140003230 f   LIBCMTD:exe_winmain.obj
 0001:00002400       ?invoke_main@@YAHXZ        0000000140003400 f   LIBCMTD:exe_winmain.obj
 0001:000026a0       capture_current_context    00000001400036a0 f   LIBCMTD:gs_report.obj
 0001:000026a0       ?capture_current_context@@YAXQEAU_CONTEXT@@@Z 00000001400036a0 f   libucrtd:invalid_parameter.obj
 0001:00002740       capture_previous_context   0000000140003740 f   LIBCMTD:gs_report.obj
 0001:00002800       ?find_pe_section@@YAPEAU_IMAGE_SECTION_HEADER@@QEAE_K@Z 0000000140003800 f   LIBCMTD:utility.obj
 0001:000028d0       ?is_potentially_valid_image_base@@YA_NQEAX@Z 00000001400038d0 f   LIBCMTD:utility.obj
 0001:00002d00       __get_entropy              0000000140003d00 f   LIBCMTD:gs_support.obj
 0001:00002ea0       initialize_environment     0000000140003ea0 f   libucrtd:initialization.obj
 0001:00002ea0       initialize_global_state_isolation 0000000140003ea0 f   libucrtd:initialization.obj
 0001:00002eb0       init_memcpy_functions      0000000140003eb0 f   libvcruntimed:initialization.obj
 0001:00003d10       ??0<lambda_8d0ee55de4b1038c4002e0adecdf1839>@@QEAA@AEBQEAU__acrt_ptd@@@Z 0000000140004d10 f i libucrtd:per_thread_data.obj
 0001:00003d10       ??0<lambda_8f455de75cd7d7f24b4096f044d8b9e6>@@QEAA@AEBQEAU__acrt_ptd@@@Z 0000000140004d10 f i libucrtd:per_thread_data.obj
 0001:00003d10       ??0<lambda_e157831efee4ea0afb0a2ace5dd5fd0d>@@QEAA@AEBQEAU__acrt_ptd@@@Z 0000000140004d10 f i libucrtd:per_thread_data.obj
 0001:00003d10       ??0<lambda_4e7105787b7b0e0227fbf2b2d883fa65>@@QEAA@AEBH@Z 0000000140004d10 f i libucrtd:close.obj
 0001:00003d10       ??0<lambda_5533cddd4bda0037814beee657757329>@@QEAA@AEBH@Z 0000000140004d10 f i libucrtd:commit.obj
 0001:00003d10       ??0<lambda_df1553121bfa390f1154bd84936f2730>@@QEAA@AEAV?$__crt_unique_heap_ptr@PEADU__crt_internal_free_policy@@@@@Z 0000000140004d10 f i libucrtd:argv_parsing.obj
 0001:00003d10       ??0<lambda_d121dba8a4adeaf3a9819e48611155df>@@QEAA@AEBQEAU_onexit_table_t@@@Z 0000000140004d10 f i libucrtd:onexit.obj
 0001:00003d10       ??0<lambda_9a32fed5bf61b6b509b2d3f6003082a1>@@QEAA@AEBV__crt_stdio_stream@@@Z 0000000140004d10 f i libucrtd:fflush.obj
 0001:00003d70       ?begin@?$argument_list@D@?A0x5f5c8891@@QEBAPEAPEADXZ 0000000140004d70 f i libucrtd:argv_wildcards.obj
 0001:00003f50       ?_FilterSetCurrentException@@YAKPEAU_EXCEPTION_POINTERS@@E@Z 0000000140004f50 f   libvcruntimed:ehhelpers.obj
 0001:000041b0       $$000000                   00000001400051b0     libvcruntimed:notify.obj
 0001:00004260       ??0scoped_get_last_error_reset@?A0x5de71e99@@QEAA@XZ 0000000140005260 f   libvcruntimed:per_thread_data.obj
 0001:00004280       ??1scoped_get_last_error_reset@?A0x5de71e99@@QEAA@XZ 0000000140005280 f   libvcruntimed:per_thread_data.obj
 0001:000042d0       ?store_and_initialize_ptd@@YA_NQEAU__vcrt_ptd@@@Z 00000001400052d0 f   libvcruntimed:per_thread_data.obj
 0001:00004760       ?invalid_function_sentinel@@YAPEAXXZ 0000000140005760 f   libvcruntimed:winapi_downlevel.obj
 0001:00004760       ?invalid_function_sentinel@@YAPEAXXZ 0000000140005760 f   libucrtd:winapi_thunks.obj
 0001:00004770       ?try_get_FlsAlloc@@YAP6AKP6AXPEAX@Z@ZXZ 0000000140005770 f   libvcruntimed:winapi_downlevel.obj
 0001:000047a0       ?try_get_FlsFree@@YAP6AHK@ZXZ 00000001400057a0 f   libvcruntimed:winapi_downlevel.obj
 0001:000047d0       ?try_get_FlsGetValue@@YAP6APEAXK@ZXZ 00000001400057d0 f   libvcruntimed:winapi_downlevel.obj
 0001:00004800       ?try_get_FlsSetValue@@YAP6AHKPEAX@ZXZ 0000000140005800 f   libvcruntimed:winapi_downlevel.obj
 0001:00004830       ?try_get_InitializeCriticalSectionEx@@YAP6AHPEAU_RTL_CRITICAL_SECTION@@KK@ZXZ 0000000140005830 f   libvcruntimed:winapi_downlevel.obj
 0001:00004860       ?try_get_first_available_module@@YAPEAUHINSTANCE__@@QEBW4module_id@?A0x810d92d5@@0@Z 0000000140005860 f   libvcruntimed:winapi_downlevel.obj
 0001:000048c0       ?try_get_function@@YAPEAXW4function_id@?A0x810d92d5@@QEBDQEBW4module_id@2@2@Z 00000001400058c0 f   libvcruntimed:winapi_downlevel.obj
 0001:00004a30       ?try_get_module@@YAPEAUHINSTANCE__@@W4module_id@?A0x810d92d5@@@Z 0000000140005a30 f   libvcruntimed:winapi_downlevel.obj
 0001:00004b90       ?try_get_proc_address_from_first_available_module@@YAPEAXQEBDQEBW4module_id@?A0x810d92d5@@1@Z 0000000140005b90 f   libvcruntimed:winapi_downlevel.obj
 0001:00004be0       ?try_load_library_from_system_directory@@YAPEAUHINSTANCE__@@QEB_W@Z 0000000140005be0 f   libvcruntimed:winapi_downlevel.obj
 0001:00004e10       $$000000                   0000000140005e10     libvcruntimed:memcpy.obj
 0001:00005520       ??$SehTransFilter@V__FrameHandler3@@@@YAHPEAU_EXCEPTION_POINTERS@@PEAUEHExceptionRecord@@PEA_KPEAU_CONTEXT@@PEAU_xDISPATCHER_CONTEXT@@PEBU_s_FuncInfo@@HPEAH@Z 0000000140006520 f   libvcruntimed:risctrnsctrl.obj
 0001:00006230       ?adjustIp@@YA_KPEAU_xDISPATCHER_CONTEXT@@_K@Z 0000000140007230 f   libvcruntimed:ehstate.obj
 0001:00006240       ??$BuildCatchObjectHelperInternal@V__FrameHandler3@@@@YAHPEAUEHExceptionRecord@@PEAXPEBU_s_HandlerType@@PEBU_s_CatchableType@@@Z 0000000140007240 f   libvcruntimed:frame.obj
 0001:00006620       ??$BuildCatchObjectInternal@V__FrameHandler3@@@@YAXPEAUEHExceptionRecord@@PEAXPEBU_s_HandlerType@@PEBU_s_CatchableType@@@Z 0000000140007620 f   libvcruntimed:frame.obj
 0001:00006770       ??$CatchIt@V__FrameHandler3@@@@YAXPEAUEHExceptionRecord@@PEA_KPEAU_CONTEXT@@PEAU_xDISPATCHER_CONTEXT@@PEBU_s_FuncInfo@@PEBU_s_HandlerType@@PEBU_s_CatchableType@@PEBU_s_TryBlockMapEntry@@H1EE@Z 0000000140007770 f   libvcruntimed:frame.obj
 0001:000068b0       ??$FindHandler@V__FrameHandler3@@@@YAXPEAUEHExceptionRecord@@PEA_KPEAU_CONTEXT@@PEAU_xDISPATCHER_CONTEXT@@PEBU_s_FuncInfo@@EH1@Z 00000001400078b0 f   libvcruntimed:frame.obj
 0001:00007080       ??$FindHandlerForForeignException@V__FrameHandler3@@@@YAXPEAUEHExceptionRecord@@PEA_KPEAU_CONTEXT@@PEAU_xDISPATCHER_CONTEXT@@PEBU_s_FuncInfo@@HH1@Z 0000000140008080 f   libvcruntimed:frame.obj
 0001:00007aa0       ??0<lambda_92619d2358a28f41a33ba319515a20b9>@@QEAA@AEBQEAU__acrt_ptd@@AEBQEAPEAU__crt_locale_data@@@Z 0000000140008aa0 f i libucrtd:per_thread_data.obj
 0001:00007aa0       ??0<lambda_bd5a608237428601b7e45fbdc72b1ae8>@@QEAA@AEBQEAU__acrt_ptd@@AEBQEAPEAU__crt_multibyte_data@@@Z 0000000140008aa0 f i libucrtd:mbctype.obj
 0001:00007aa0       ??0<lambda_3b83eb014488ad801d84acef5aaf14d3>@@QEAA@AEBQEAU_onexit_table_t@@AEBQ6AHXZ@Z 0000000140008aa0 f i libucrtd:onexit.obj
 0001:00008130       ?ExFilterRethrow@@YAHPEAU_EXCEPTION_POINTERS@@PEAUEHExceptionRecord@@PEAH@Z 0000000140009130 f   libvcruntimed:frame.obj
 0001:00008550       ?IsInExceptionSpec@@YAEPEAUEHExceptionRecord@@PEBU_s_ESTypeList@@@Z 0000000140009550 f   libvcruntimed:frame.obj
 0001:00008670       ?Is_bad_exception_allowed@@YAEPEBU_s_ESTypeList@@@Z 0000000140009670 f   libvcruntimed:frame.obj
 0001:000087f0       ?__RethrowException@@YAXPEAUEHExceptionRecord@@@Z 00000001400097f0 f   libvcruntimed:frame.obj
 0001:00008a10       $$000000                   0000000140009a10     libvcruntimed:memset.obj
 0001:00008bd0       $$000000                   0000000140009bd0     libvcruntimed:handlers.obj
 0001:00009020       ??$common_assert@_W@@YAXQEB_W0IQEAX@Z 000000014000a020 f   libucrtd:assert.obj
 0001:000090b0       ??$common_assert_to_message_box@_W@@YAXQEB_W0IQEAX@Z 000000014000a0b0 f   libucrtd:assert.obj
 0001:000091b0       ??$common_assert_to_message_box_build_string@_W@@YAXQEA_W_KQEB_W2IQEAX@Z 000000014000a1b0 f   libucrtd:assert.obj
 0001:00009fc0       ??$common_assert_to_stderr@_W@@YAXQEB_W0I@Z 000000014000afc0 f   libucrtd:assert.obj
 0001:0000a3e0       ?common_assert_to_stderr_direct@@YAXQEB_W0I@Z 000000014000b3e0 f   libucrtd:assert.obj
 0001:0000a4e0       ?get_assert_format@@YAPEB_W_W@Z 000000014000b4e0 f   libucrtd:assert.obj
 0001:0000a4f0       ?get_banner_text@@YAPEB_W_W@Z 000000014000b4f0 f   libucrtd:assert.obj
 0001:0000a500       ?get_box_intro@@YAPEB_W_W@Z 000000014000b500 f   libucrtd:assert.obj
 0001:0000a510       ?get_dot_dot_dot@@YAPEB_W_W@Z 000000014000b510 f   libucrtd:assert.obj
 0001:0000a520       ?get_double_newline@@YAPEB_W_W@Z 000000014000b520 f   libucrtd:assert.obj
 0001:0000a530       ?get_expression_intro@@YAPEB_W_W@Z 000000014000b530 f   libucrtd:assert.obj
 0001:0000a540       ?get_file_intro@@YAPEB_W_W@Z 000000014000b540 f   libucrtd:assert.obj
 0001:0000a580       ?get_help_intro@@YAPEB_W_W@Z 000000014000b580 f   libucrtd:assert.obj
 0001:0000a590       ?get_info_intro@@YAPEB_W_W@Z 000000014000b590 f   libucrtd:assert.obj
 0001:0000a5a0       ?get_line_intro@@YAPEB_W_W@Z 000000014000b5a0 f   libucrtd:assert.obj
 0001:0000a5b0       ?get_newline@@YAPEB_W_W@Z  000000014000b5b0 f   libucrtd:assert.obj
 0001:0000a5c0       ?get_program_intro@@YAPEB_W_W@Z 000000014000b5c0 f   libucrtd:assert.obj
 0001:0000a5d0       ?get_program_name_unknown_text@@YAPEB_W_W@Z 000000014000b5d0 f   libucrtd:dbgrpt.obj
 0001:0000a5d0       ?get_program_name_unknown_text@@YAPEB_W_W@Z 000000014000b5d0 f   libucrtd:assert.obj
 0001:0000a7e0       memcpy_s                   000000014000b7e0 f   libucrtd:cfout.obj
 0001:0000a7e0       memcpy_s                   000000014000b7e0 f   libucrtd:mbctype.obj
 0001:0000a7e0       memcpy_s                   000000014000b7e0 f   libucrtd:assert.obj
 0001:0000a980       $$000000                   000000014000b980     libucrtd:sinf.obj
 0001:0000b080       ?xcptlookup@@YAPEAU__crt_signal_action_t@@KQEAU1@@Z 000000014000c080 f   libucrtd:exception_filter.obj
 0001:0000b370       $LN33                      000000014000c370     libucrtd:exception_filter.obj
 0001:0000b390       ?issue_debug_notification@@YA_NQEB_W@Z 000000014000c390 f   libucrtd:report_runtime_error.obj
 0001:0000b3f0       ?should_write_error_to_console@@YA_NXZ 000000014000c3f0 f   libucrtd:report_runtime_error.obj
 0001:0000b430       ?write_string_to_console@@YAXQEB_W@Z 000000014000c430 f   libucrtd:report_runtime_error.obj
 0001:0000ba00       ??$common_configure_argv@D@@YAHW4_crt_argv_mode@@@Z 000000014000ca00 f   libucrtd:argv_parsing.obj
 0001:0000bd90       ??$parse_command_line@D@@YAXPEADPEAPEAD0PEA_K2@Z 000000014000cd90 f   libucrtd:argv_parsing.obj
 0001:0000c240       ??R<lambda_df1553121bfa390f1154bd84936f2730>@@QEBAHXZ 000000014000d240 f   libucrtd:argv_parsing.obj
 0001:0000c2a0       ?do_locale_initialization@@YAXD@Z 000000014000d2a0 f   libucrtd:argv_parsing.obj
 0001:0000c2a0       ?do_locale_initialization@@YAXE@Z 000000014000d2a0 f   libucrtd:argv_winmain.obj
 0001:0000c2c0       ?expand_argv_wildcards@@YAHQEAPEADQEAPEAPEAD@Z 000000014000d2c0 f   libucrtd:argv_parsing.obj
 0001:0000c2f0       ?get_argv@@YAAEAPEAPEADD@Z 000000014000d2f0 f   libucrtd:argv_parsing.obj
 0001:0000c300       ?get_command_line@@YAPEADD@Z 000000014000d300 f   libucrtd:argv_parsing.obj
 0001:0000c300       ?get_command_line@@YAPEAEE@Z 000000014000d300 f   libucrtd:argv_winmain.obj
 0001:0000c310       ?should_copy_another_character@@YA_ND@Z 000000014000d310 f   libucrtd:argv_parsing.obj
 0001:0000c4a4       ??$common_initialize_environment_nolock@D@@YAHXZ 000000014000d4a4 f   libucrtd:environment_initialization.obj
 0001:0000c51c       ??$create_environment@D@@YAQEAPEADQEAD@Z 000000014000d51c f   libucrtd:environment_initialization.obj
 0001:0000c678       ??$free_environment@D@@YAXQEAPEAD@Z 000000014000d678 f   libucrtd:environment_initialization.obj
 0001:0000c678       ??$free_environment@_W@@YAXQEAPEA_W@Z 000000014000d678 f   libucrtd:environment_initialization.obj
 0001:0000c6d4       ??$uninitialize_environment_internal@D@@YAXAEAPEAPEAD@Z 000000014000d6d4 f   libucrtd:environment_initialization.obj
 0001:0000c6f0       ??$uninitialize_environment_internal@_W@@YAXAEAPEAPEA_W@Z 000000014000d6f0 f   libucrtd:environment_initialization.obj
 0001:0000c760       ??$common_wincmdln@E@@YAPEAEXZ 000000014000d760 f   libucrtd:argv_winmain.obj
 0001:0000c860       ?should_copy_another_character@@YA_NE@Z 000000014000d860 f   libucrtd:argv_winmain.obj
 0001:0000c9b0       ??$?RV<lambda_d80eeec6fff315bfe5c115232f3240e3>@@AEAV<lambda_6e4b09c48022b2350581041d5f6b0c4c>@@V<lambda_2358e3775559c9db80273638284d5e45>@@@?$__crt_seh_guarded_call@X@@QEAAX$$QEAV<lambda_d80eeec6fff315bfe5c115232f3240e3>@@AEAV<lambda_6e4b09c48022b2350581041d5f6b0c4c>@@$$QEAV<lambda_2358e3775559c9db80273638284d5e45>@@@Z 000000014000d9b0 f   libucrtd:exit.obj
 0001:0000c9f0       ??$__acrt_lock_and_call@V<lambda_6e4b09c48022b2350581041d5f6b0c4c>@@@@YAXW4__acrt_lock_id@@$$QEAV<lambda_6e4b09c48022b2350581041d5f6b0c4c>@@@Z 000000014000d9f0 f   libucrtd:exit.obj
 0001:0000ca70       ??0<lambda_04ddeca75b7c13fd67716e8dfcef87ee>@@QEAA@AEBW4__acrt_lock_id@@@Z 000000014000da70 f   libucrtd:per_thread_data.obj
 0001:0000ca70       ??0<lambda_0ae27a3a962d80f24befdcbee591983d>@@QEAA@AEBW4__acrt_lock_id@@@Z 000000014000da70 f   libucrtd:per_thread_data.obj
 0001:0000ca70       ??0<lambda_2d41944a1d46af3157314b8a01080d33>@@QEAA@AEBW4__acrt_lock_id@@@Z 000000014000da70 f   libucrtd:per_thread_data.obj
 0001:0000ca70       ??0<lambda_6992ecaafeb10aed2b74cb1fae11a551>@@QEAA@AEBW4__acrt_lock_id@@@Z 000000014000da70 f   libucrtd:per_thread_data.obj
 0001:0000ca70       ??0<lambda_74a0ef281e44d15e1136f792f539efb3>@@QEAA@AEBW4__acrt_lock_id@@@Z 000000014000da70 f   libucrtd:per_thread_data.obj
 0001:0000ca70       ??0<lambda_aa500f224e6afead328df44964fe2772>@@QEAA@AEBW4__acrt_lock_id@@@Z 000000014000da70 f   libucrtd:per_thread_data.obj
 0001:0000ca70       ??0<lambda_aa87e3671a710a21b5dc78c0bdf72e11>@@QEAA@AEBW4__acrt_lock_id@@@Z 000000014000da70 f   libucrtd:per_thread_data.obj
 0001:0000ca70       ??0<lambda_dc504788e8f1664fe9b84e20bfb512f2>@@QEAA@AEBW4__acrt_lock_id@@@Z 000000014000da70 f   libucrtd:per_thread_data.obj
 0001:0000ca70       ??0<lambda_38119f0e861e05405d8a144b9b982f0a>@@QEAA@AEBW4__acrt_lock_id@@@Z 000000014000da70 f   libucrtd:wsetlocale.obj
 0001:0000ca70       ??0<lambda_410d79af7f07d98d83a3f525b3859a53>@@QEAA@AEBW4__acrt_lock_id@@@Z 000000014000da70 f   libucrtd:wsetlocale.obj
 0001:0000ca70       ??0<lambda_53fc7fc888e23d815d7080162c0aeeb2>@@QEAA@AEBH@Z 000000014000da70 f   libucrtd:close.obj
 0001:0000ca70       ??0<lambda_8ddc48ad9d26c778cb15812d1d88fc8a>@@QEAA@AEBH@Z 000000014000da70 f   libucrtd:close.obj
 0001:0000ca70       ??0<lambda_47cffbaa968af5c721c38a4a6f8da44d>@@QEAA@AEBH@Z 000000014000da70 f   libucrtd:commit.obj
 0001:0000ca70       ??0<lambda_4e3dbe6921bc0b5a1a6bc6573fdc859e>@@QEAA@AEBH@Z 000000014000da70 f   libucrtd:commit.obj
 0001:0000ca70       ??0<lambda_728235dc0fc2b1f82d1fa5b3e7102d8f>@@QEAA@AEBW4__acrt_lock_id@@@Z 000000014000da70 f   libucrtd:mbctype.obj
 0001:0000ca70       ??0<lambda_efa02eb69bf647d2f7ff0dd6f1103f72>@@QEAA@AEBW4__acrt_lock_id@@@Z 000000014000da70 f   libucrtd:mbctype.obj
 0001:0000ca70       ??0<lambda_450d765d439847d4c735a33c368b5fc0>@@QEAA@AEBW4__acrt_lock_id@@@Z 000000014000da70 f   libucrtd:signal.obj
 0001:0000ca70       ??0<lambda_601a2a7da3b7a96e9554ac7215c4b07c>@@QEAA@AEBW4__acrt_lock_id@@@Z 000000014000da70 f   libucrtd:signal.obj
 0001:0000ca70       ??0<lambda_2358e3775559c9db80273638284d5e45>@@QEAA@AEBW4__acrt_lock_id@@@Z 000000014000da70 f   libucrtd:exit.obj
 0001:0000ca70       ??0<lambda_d80eeec6fff315bfe5c115232f3240e3>@@QEAA@AEBW4__acrt_lock_id@@@Z 000000014000da70 f   libucrtd:exit.obj
 0001:0000ca70       ??0<lambda_00e911965883f7966597d4c465c83ebc>@@QEAA@AEBW4__acrt_lock_id@@@Z 000000014000da70 f   libucrtd:onexit.obj
 0001:0000ca70       ??0<lambda_6a47f4c8fd0152770a780fc1d70204eb>@@QEAA@AEBW4__acrt_lock_id@@@Z 000000014000da70 f   libucrtd:onexit.obj
 0001:0000ca70       ??0<lambda_6aaa2265f5b6a89667e7d7630012e97a>@@QEAA@AEBW4__acrt_lock_id@@@Z 000000014000da70 f   libucrtd:onexit.obj
 0001:0000ca70       ??0<lambda_dce957679fd779aa27c4ca5c39e09098>@@QEAA@AEBW4__acrt_lock_id@@@Z 000000014000da70 f   libucrtd:onexit.obj
 0001:0000ca70       ??0<lambda_886d6c58226a84441f68b9f2b8217b83>@@QEAA@AEBW4__acrt_lock_id@@@Z 000000014000da70 f   libucrtd:fflush.obj
 0001:0000ca70       ??0<lambda_f7f22ab5edc0698d5f6905b0d3f44752>@@QEAA@AEBW4__acrt_lock_id@@@Z 000000014000da70 f   libucrtd:fflush.obj
 0001:0000ca90       ??0<lambda_6e4b09c48022b2350581041d5f6b0c4c>@@QEAA@AEBW4_crt_exit_cleanup_mode@@AEBW4_crt_exit_return_mode@@AEA_N@Z 000000014000da90 f   libucrtd:exit.obj
 0001:0000ca90       ??0<lambda_ab61a845afdef5b7c387490eaf3616ee>@@QEAA@AEAHAEB_N0@Z 000000014000da90 f   libucrtd:fflush.obj
 0001:0000cb00       ??R<lambda_04ddeca75b7c13fd67716e8dfcef87ee>@@QEBAXXZ 000000014000db00 f   libucrtd:per_thread_data.obj
 0001:0000cb00       ??R<lambda_6992ecaafeb10aed2b74cb1fae11a551>@@QEBAXXZ 000000014000db00 f   libucrtd:per_thread_data.obj
 0001:0000cb00       ??R<lambda_aa500f224e6afead328df44964fe2772>@@QEBAXXZ 000000014000db00 f   libucrtd:per_thread_data.obj
 0001:0000cb00       ??R<lambda_dc504788e8f1664fe9b84e20bfb512f2>@@QEBAXXZ 000000014000db00 f   libucrtd:per_thread_data.obj
 0001:0000cb00       ??R<lambda_38119f0e861e05405d8a144b9b982f0a>@@QEBAXXZ 000000014000db00 f   libucrtd:wsetlocale.obj
 0001:0000cb00       ??R<lambda_728235dc0fc2b1f82d1fa5b3e7102d8f>@@QEBAXXZ 000000014000db00 f   libucrtd:mbctype.obj
 0001:0000cb00       ??R<lambda_601a2a7da3b7a96e9554ac7215c4b07c>@@QEBAXXZ 000000014000db00 f   libucrtd:signal.obj
 0001:0000cb00       ??R<lambda_2358e3775559c9db80273638284d5e45>@@QEBAXXZ 000000014000db00 f   libucrtd:exit.obj
 0001:0000cb00       ??R<lambda_00e911965883f7966597d4c465c83ebc>@@QEBAXXZ 000000014000db00 f   libucrtd:onexit.obj
 0001:0000cb00       ??R<lambda_6aaa2265f5b6a89667e7d7630012e97a>@@QEBAXXZ 000000014000db00 f   libucrtd:onexit.obj
 0001:0000cb00       ??R<lambda_f7f22ab5edc0698d5f6905b0d3f44752>@@QEBAXXZ 000000014000db00 f   libucrtd:fflush.obj
 0001:0000cb20       ??R<lambda_6e4b09c48022b2350581041d5f6b0c4c>@@QEBA@XZ 000000014000db20 f   libucrtd:exit.obj
 0001:0000cc20       ??R<lambda_0ae27a3a962d80f24befdcbee591983d>@@QEBAXXZ 000000014000dc20 f   libucrtd:per_thread_data.obj
 0001:0000cc20       ??R<lambda_2d41944a1d46af3157314b8a01080d33>@@QEBAXXZ 000000014000dc20 f   libucrtd:per_thread_data.obj
 0001:0000cc20       ??R<lambda_74a0ef281e44d15e1136f792f539efb3>@@QEBAXXZ 000000014000dc20 f   libucrtd:per_thread_data.obj
 0001:0000cc20       ??R<lambda_aa87e3671a710a21b5dc78c0bdf72e11>@@QEBAXXZ 000000014000dc20 f   libucrtd:per_thread_data.obj
 0001:0000cc20       ??R<lambda_410d79af7f07d98d83a3f525b3859a53>@@QEBAXXZ 000000014000dc20 f   libucrtd:wsetlocale.obj
 0001:0000cc20       ??R<lambda_efa02eb69bf647d2f7ff0dd6f1103f72>@@QEBAXXZ 000000014000dc20 f   libucrtd:mbctype.obj
 0001:0000cc20       ??R<lambda_450d765d439847d4c735a33c368b5fc0>@@QEBAXXZ 000000014000dc20 f   libucrtd:signal.obj
 0001:0000cc20       ??R<lambda_d80eeec6fff315bfe5c115232f3240e3>@@QEBAXXZ 000000014000dc20 f   libucrtd:exit.obj
 0001:0000cc20       ??R<lambda_6a47f4c8fd0152770a780fc1d70204eb>@@QEBAXXZ 000000014000dc20 f   libucrtd:onexit.obj
 0001:0000cc20       ??R<lambda_dce957679fd779aa27c4ca5c39e09098>@@QEBAXXZ 000000014000dc20 f   libucrtd:onexit.obj
 0001:0000cc20       ??R<lambda_886d6c58226a84441f68b9f2b8217b83>@@QEBAXXZ 000000014000dc20 f   libucrtd:fflush.obj
 0001:0000cc70       ?atexit_exception_filter@@YAHK@Z 000000014000dc70 f   libucrtd:exit.obj
 0001:0000cd10       ?common_exit@@YAXHW4_crt_exit_cleanup_mode@@W4_crt_exit_return_mode@@@Z 000000014000dd10 f   libucrtd:exit.obj
 0001:0000cda0       ?exit_or_terminate_process@@YAXI@Z 000000014000dda0 f   libucrtd:exit.obj
 0001:0000cde0       ?is_managed_app@@YA_NXZ    000000014000dde0 f   libucrtd:exit.obj
 0001:0000ce90       ?should_call_terminate_process@@YA_NXZ 000000014000de90 f   libucrtd:exit.obj
 0001:0000cef0       ?try_cor_exit_process@@YAXI@Z 000000014000def0 f   libucrtd:exit.obj
 0001:0000d180       ??$?RV<lambda_410d79af7f07d98d83a3f525b3859a53>@@AEAV<lambda_3e16ef9562a7dcce91392c22ab16ea36>@@V<lambda_38119f0e861e05405d8a144b9b982f0a>@@@?$__crt_seh_guarded_call@X@@QEAAX$$QEAV<lambda_410d79af7f07d98d83a3f525b3859a53>@@AEAV<lambda_3e16ef9562a7dcce91392c22ab16ea36>@@$$QEAV<lambda_38119f0e861e05405d8a144b9b982f0a>@@@Z 000000014000e180 f   libucrtd:wsetlocale.obj
 0001:0000d1c0       ??$__acrt_lock_and_call@V<lambda_3e16ef9562a7dcce91392c22ab16ea36>@@@@YAXW4__acrt_lock_id@@$$QEAV<lambda_3e16ef9562a7dcce91392c22ab16ea36>@@@Z 000000014000e1c0 f   libucrtd:wsetlocale.obj
 0001:0000d210       ??$uninitialize@V<lambda_363eea9039da1e8169e2d060c7fe5cbc>@@@?$dual_state_global@PEAU__crt_locale_data@@@__crt_state_management@@QEAAX$$QEAV<lambda_363eea9039da1e8169e2d060c7fe5cbc>@@@Z 000000014000e210 f   libucrtd:wsetlocale.obj
 0001:0000d260       ??R<lambda_363eea9039da1e8169e2d060c7fe5cbc>@@QEBAXAEAPEAU__crt_locale_data@@@Z 000000014000e260 f   libucrtd:wsetlocale.obj
 0001:0000d2a0       ??R<lambda_3e16ef9562a7dcce91392c22ab16ea36>@@QEBA@XZ 000000014000e2a0 f   libucrtd:wsetlocale.obj
 0001:0000d620       ??$?RV<lambda_6a47f4c8fd0152770a780fc1d70204eb>@@AEAV<lambda_d121dba8a4adeaf3a9819e48611155df>@@V<lambda_6aaa2265f5b6a89667e7d7630012e97a>@@@?$__crt_seh_guarded_call@H@@QEAAH$$QEAV<lambda_6a47f4c8fd0152770a780fc1d70204eb>@@AEAV<lambda_d121dba8a4adeaf3a9819e48611155df>@@$$QEAV<lambda_6aaa2265f5b6a89667e7d7630012e97a>@@@Z 000000014000e620 f   libucrtd:onexit.obj
 0001:0000d670       ??$?RV<lambda_dce957679fd779aa27c4ca5c39e09098>@@AEAV<lambda_3b83eb014488ad801d84acef5aaf14d3>@@V<lambda_00e911965883f7966597d4c465c83ebc>@@@?$__crt_seh_guarded_call@H@@QEAAH$$QEAV<lambda_dce957679fd779aa27c4ca5c39e09098>@@AEAV<lambda_3b83eb014488ad801d84acef5aaf14d3>@@$$QEAV<lambda_00e911965883f7966597d4c465c83ebc>@@@Z 000000014000e670 f   libucrtd:onexit.obj
 0001:0000d6c0       ??$__acrt_lock_and_call@V<lambda_3b83eb014488ad801d84acef5aaf14d3>@@@@YAHW4__acrt_lock_id@@$$QEAV<lambda_3b83eb014488ad801d84acef5aaf14d3>@@@Z 000000014000e6c0 f   libucrtd:onexit.obj
 0001:0000d710       ??$__acrt_lock_and_call@V<lambda_d121dba8a4adeaf3a9819e48611155df>@@@@YAHW4__acrt_lock_id@@$$QEAV<lambda_d121dba8a4adeaf3a9819e48611155df>@@@Z 000000014000e710 f   libucrtd:onexit.obj
 0001:0000d760       ??R<lambda_3b83eb014488ad801d84acef5aaf14d3>@@QEBAHXZ 000000014000e760 f   libucrtd:onexit.obj
 0001:0000da70       ??R<lambda_d121dba8a4adeaf3a9819e48611155df>@@QEBAHXZ 000000014000ea70 f   libucrtd:onexit.obj
 0001:0000ddc0       initialize_global_variables 000000014000edc0 f   libucrtd:initialization.obj
 0001:0000dde0       initialize_c               000000014000ede0 f   libucrtd:initialization.obj
 0001:0000de10       uninitialize_c             000000014000ee10 f   libucrtd:initialization.obj
 0001:0000de10       uninitialize_global_state_isolation 000000014000ee10 f   libucrtd:initialization.obj
 0001:0000de20       uninitialize_environment   000000014000ee20 f   libucrtd:initialization.obj
 0001:0000de50       initialize_pointers        000000014000ee50 f   libucrtd:initialization.obj
 0001:0000deb0       uninitialize_vcruntime     000000014000eeb0 f   libucrtd:initialization.obj
 0001:0000ded0       uninitialize_allocated_memory 000000014000eed0 f   libucrtd:initialization.obj
 0001:0000df10       uninitialize_allocated_io_buffers 000000014000ef10 f   libucrtd:initialization.obj
 0001:0000df90       report_memory_leaks        000000014000ef90 f   libucrtd:initialization.obj
 0001:0000dfc0       ??$uninitialize@V<lambda_af27fe6ede5d83bbdbd622796c194e9c>@@@?$dual_state_global@PEAU__crt_multibyte_data@@@__crt_state_management@@QEAAX$$QEAV<lambda_af27fe6ede5d83bbdbd622796c194e9c>@@@Z 000000014000efc0 f   libucrtd:initialization.obj
 0001:0000e010       ??R<lambda_af27fe6ede5d83bbdbd622796c194e9c>@@QEBAXAEAPEAU__crt_multibyte_data@@@Z 000000014000f010 f   libucrtd:initialization.obj
 0001:0000e270       ?block_from_header@@YAPEAEQEAU_CrtMemBlockHeader@@@Z 000000014000f270 f   libucrtd:debug_heap.obj
 0001:0000e280       ?check_block@@YA_NQEAU_CrtMemBlockHeader@@@Z 000000014000f280 f   libucrtd:debug_heap.obj
 0001:0000e640       ?check_bytes@@YA_NQEBEE_K@Z 000000014000f640 f   libucrtd:debug_heap.obj
 0001:0000e6b0       ?dump_all_object_since_nolock@@YAXQEBU_CrtMemState@@@Z 000000014000f6b0 f   libucrtd:debug_heap.obj
 0001:0000ea70       ?free_dbg_nolock@@YAXQEAXH@Z 000000014000fa70 f   libucrtd:debug_heap.obj
 0001:0000f0c0       ?header_from_block@@YAPEAU_CrtMemBlockHeader@@QEBX@Z 00000001400100c0 f   libucrtd:debug_heap.obj
 0001:0000f0d0       ?heap_alloc_dbg@@YAPEAX_KHQEBDH@Z 00000001400100d0 f   libucrtd:debug_heap.obj
 0001:0000f170       ?heap_alloc_dbg_internal@@YAPEAX_KHQEBDH@Z 0000000140010170 f   libucrtd:debug_heap.obj
 0001:0000f5b0       ?is_bad_read_pointer@@YA_NQEBX_K@Z 00000001400105b0 f   libucrtd:debug_heap.obj
 0001:0000f6c0       ?is_block_an_aligned_allocation@@YA_NQEBX@Z 00000001400106c0 f   libucrtd:debug_heap.obj
 0001:0000f700       ?is_block_type_valid@@YA_NH@Z 0000000140010700 f   libucrtd:debug_heap.obj
 0001:0000f750       ?print_block_data@@YAXQEAU__crt_locale_pointers@@QEAU_CrtMemBlockHeader@@@Z 0000000140010750 f   libucrtd:debug_heap.obj
 0001:0000f980       ?realloc_dbg_nolock@@YAPEAXQEAXQEA_KHQEBDH_N@Z 0000000140010980 f   libucrtd:debug_heap.obj
 0001:000101a0       ?validate_heap_if_required_nolock@@YAXXZ 00000001400111a0 f   libucrtd:debug_heap.obj
 0001:00010f50       ??$common_tcscpy_s@D@@YAHQEAD_KQEBD@Z 0000000140011f50 f   libucrtd:strcpy_s.obj
 0001:00011450       $$000000                   0000000140012450     libucrtd:strcmp.obj
 0001:000114d0       $$000000                   00000001400124d0     libucrtd:strlen.obj
 0001:00011ae0       ??$?RV<lambda_676bd5779251ec186b530f0a904b4b35>@@AEAV<lambda_b579ea784fd840951dfbcbdaebf709fd>@@V<lambda_10027885da78ada7fb00668d7e2e96b5>@@@?$__crt_seh_guarded_call@H@@QEAAH$$QEAV<lambda_676bd5779251ec186b530f0a904b4b35>@@AEAV<lambda_b579ea784fd840951dfbcbdaebf709fd>@@$$QEAV<lambda_10027885da78ada7fb00668d7e2e96b5>@@@Z 0000000140012ae0 f   libucrtd:output.obj
 0001:00011b30       ??$__acrt_lock_stream_and_call@V<lambda_b579ea784fd840951dfbcbdaebf709fd>@@@@YAHQEAU_iobuf@@$$QEAV<lambda_b579ea784fd840951dfbcbdaebf709fd>@@@Z 0000000140012b30 f   libucrtd:output.obj
 0001:00011b80       ??$common_vfprintf@Vstandard_base@__crt_stdio_output@@_W@@YAH_KQEAU_iobuf@@QEB_WQEAU__crt_locale_pointers@@QEAD@Z 0000000140012b80 f   libucrtd:output.obj
 0001:00011d40       ??$common_vsnprintf_s@D@@YAH_KQEAD00QEBDQEAU__crt_locale_pointers@@1@Z 0000000140012d40 f   libucrtd:output.obj
 0001:00012300       ??$common_vsnprintf_s@_W@@YAH_KQEA_W00QEB_WQEAU__crt_locale_pointers@@QEAD@Z 0000000140013300 f   libucrtd:output.obj
 0001:000128d0       ??$common_vsprintf@Vformat_validation_base@__crt_stdio_output@@D@@YAH_KQEAD0QEBDQEAU__crt_locale_pointers@@1@Z 00000001400138d0 f   libucrtd:output.obj
 0001:00012db0       ??$common_vsprintf@Vformat_validation_base@__crt_stdio_output@@_W@@YAH_KQEA_W0QEB_WQEAU__crt_locale_pointers@@QEAD@Z 0000000140013db0 f   libucrtd:output.obj
 0001:00013280       ??$common_vsprintf@Vstandard_base@__crt_stdio_output@@_W@@YAH_KQEA_W0QEB_WQEAU__crt_locale_pointers@@QEAD@Z 0000000140014280 f   libucrtd:output.obj
 0001:00013750       ??$common_vsprintf_s@D@@YAH_KQEAD0QEBDQEAU__crt_locale_pointers@@1@Z 0000000140014750 f   libucrtd:output.obj
 0001:00014b50       ??0<lambda_572fbb9fa0ab338edf41edfd4b5fcc8d>@@QEAA@AEBQEAU_iobuf@@@Z 0000000140015b50 f   libucrtd:fflush.obj
 0001:00014b50       ??0<lambda_842d9ff0dc9ef11c61343bbaebe7f885>@@QEAA@AEBQEAU_iobuf@@@Z 0000000140015b50 f   libucrtd:fflush.obj
 0001:00014b50       ??0<lambda_c376a267cfb53b6959b3b692ec76b120>@@QEAA@AEBQEAU_iobuf@@@Z 0000000140015b50 f   libucrtd:fflush.obj
 0001:00014b50       ??0<lambda_d90129c13df834fdcbf8d2b88dafcf2d>@@QEAA@AEBQEAU_iobuf@@@Z 0000000140015b50 f   libucrtd:fflush.obj
 0001:00014b50       ??0<lambda_10027885da78ada7fb00668d7e2e96b5>@@QEAA@AEBQEAU_iobuf@@@Z 0000000140015b50 f   libucrtd:output.obj
 0001:00014b50       ??0<lambda_676bd5779251ec186b530f0a904b4b35>@@QEAA@AEBQEAU_iobuf@@@Z 0000000140015b50 f   libucrtd:output.obj
 0001:00014b50       ??0<lambda_05f0559a8855835fc49fa2f838446407>@@QEAA@AEBQEAU_iobuf@@@Z 0000000140015b50 f   libucrtd:setvbuf.obj
 0001:00014b50       ??0<lambda_ee69b802af549e3a94c3585db2bd6467>@@QEAA@AEBQEAU_iobuf@@@Z 0000000140015b50 f   libucrtd:setvbuf.obj
 0001:00014b70       ??0<lambda_b579ea784fd840951dfbcbdaebf709fd>@@QEAA@AEBQEAU_iobuf@@AEBQEAU__crt_locale_pointers@@AEB_KAEBQEB_WAEBQEAD@Z 0000000140015b70 f   libucrtd:output.obj
 0001:00015200       ??R<lambda_572fbb9fa0ab338edf41edfd4b5fcc8d>@@QEBAXXZ 0000000140016200 f   libucrtd:fflush.obj
 0001:00015200       ??R<lambda_d90129c13df834fdcbf8d2b88dafcf2d>@@QEBAXXZ 0000000140016200 f   libucrtd:fflush.obj
 0001:00015200       ??R<lambda_10027885da78ada7fb00668d7e2e96b5>@@QEBAXXZ 0000000140016200 f   libucrtd:output.obj
 0001:00015200       ??R<lambda_05f0559a8855835fc49fa2f838446407>@@QEBAXXZ 0000000140016200 f   libucrtd:setvbuf.obj
 0001:00015220       ??R<lambda_842d9ff0dc9ef11c61343bbaebe7f885>@@QEBAXXZ 0000000140016220 f   libucrtd:fflush.obj
 0001:00015220       ??R<lambda_c376a267cfb53b6959b3b692ec76b120>@@QEBAXXZ 0000000140016220 f   libucrtd:fflush.obj
 0001:00015220       ??R<lambda_676bd5779251ec186b530f0a904b4b35>@@QEBAXXZ 0000000140016220 f   libucrtd:output.obj
 0001:00015220       ??R<lambda_ee69b802af549e3a94c3585db2bd6467>@@QEBAXXZ 0000000140016220 f   libucrtd:setvbuf.obj
 0001:00015240       ??R<lambda_b579ea784fd840951dfbcbdaebf709fd>@@QEBAHXZ 0000000140016240 f   libucrtd:output.obj
 0001:00015ddc       $LN39                      0000000140016ddc     libucrtd:output.obj
 0001:0001613c       $LN39                      000000014001713c     libucrtd:output.obj
 0001:0001649c       $LN39                      000000014001749c     libucrtd:output.obj
 0001:000167fc       $LN39                      00000001400177fc     libucrtd:output.obj
 0001:000174f8       $LN54                      00000001400184f8     libucrtd:output.obj
 0001:00017520       $LN53                      0000000140018520     libucrtd:output.obj
 0001:00017978       $LN54                      0000000140018978     libucrtd:output.obj
 0001:000179a0       $LN53                      00000001400189a0     libucrtd:output.obj
 0001:00017df8       $LN54                      0000000140018df8     libucrtd:output.obj
 0001:00017e20       $LN53                      0000000140018e20     libucrtd:output.obj
 0001:00018278       $LN54                      0000000140019278     libucrtd:output.obj
 0001:000182a0       $LN53                      00000001400192a0     libucrtd:output.obj
 0001:00018714       $LN44                      0000000140019714     libucrtd:output.obj
 0001:00018744       $LN43                      0000000140019744     libucrtd:output.obj
 0001:00018c6c       $LN44                      0000000140019c6c     libucrtd:output.obj
 0001:00018c9c       $LN43                      0000000140019c9c     libucrtd:output.obj
 0001:000191cc       $LN44                      000000014001a1cc     libucrtd:output.obj
 0001:000191fc       $LN43                      000000014001a1fc     libucrtd:output.obj
 0001:0001972c       $LN44                      000000014001a72c     libucrtd:output.obj
 0001:0001975c       $LN43                      000000014001a75c     libucrtd:output.obj
 0001:00019a00       $LN19                      000000014001aa00     libucrtd:output.obj
 0001:0001dac0       ??$common_message_window@D@@YAHHQEAXQEBD111@Z 000000014001eac0 f   libucrtd:dbgrpt.obj
 0001:0001e190       ??$common_message_window@_W@@YAHHQEAXQEB_W111@Z 000000014001f190 f   libucrtd:dbgrpt.obj
 0001:0001e870       ?get_output_message_format@@YAPEB_WD@Z 000000014001f870 f   libucrtd:dbgrpt.obj
 0001:0001e880       ?get_output_message_format@@YAPEB_W_W@Z 000000014001f880 f   libucrtd:dbgrpt.obj
 0001:0001e890       ?get_program_name_unknown_text@@YAPEBDD@Z 000000014001f890 f   libucrtd:dbgrpt.obj
 0001:0001fea0       $$000000                   0000000140020ea0     libucrtd:strncmp.obj
 0001:00020140       ??$common_xtox@KD@@YAHKQEAD_KI_N@Z 0000000140021140 f   libucrtd:xtoa.obj
 0001:00020380       ??$common_xtox@K_W@@YAHKQEA_W_KI_N@Z 0000000140021380 f   libucrtd:xtoa.obj
 0001:000205d0       ??$common_xtox_s@KD@@YAHKQEAD_KI_N@Z 00000001400215d0 f   libucrtd:xtoa.obj
 0001:00020980       ??$common_xtox_s@K_W@@YAHKQEA_W_KI_N@Z 0000000140021980 f   libucrtd:xtoa.obj
 0001:00020ef0       ??$common_tcscat_s@_W@@YAHQEA_W_KQEB_W@Z 0000000140021ef0 f   libucrtd:wcscat_s.obj
 0001:000215a0       ??$common_tcscpy_s@_W@@YAHQEA_W_KQEB_W@Z 00000001400225a0 f   libucrtd:wcscpy_s.obj
 0001:00021ab0       ??$common_tcsncat_s@_W@@YAHQEA_W_KQEB_W1@Z 0000000140022ab0 f   libucrtd:wcsncat_s.obj
 0001:00022280       ??$common_strnlen@$00G@@YA_KQEBG_K@Z 0000000140023280 f   libucrtd:strnlen.obj
 0001:000222e0       ??$common_strnlen@$0A@E@@YA_KQEBE_K@Z 00000001400232e0 f   libucrtd:strnlen.obj
 0001:00022340       ??$common_strnlen@$0A@G@@YA_KQEBG_K@Z 0000000140023340 f   libucrtd:strnlen.obj
 0001:000223a0       ??$common_strnlen_c@$00G@@YA_KQEBG_K@Z 00000001400233a0 f   libucrtd:strnlen.obj
 0001:00022420       ??$common_strnlen_c@$0A@E@@YA_KQEBE_K@Z 0000000140023420 f   libucrtd:strnlen.obj
 0001:000224a0       ??$common_strnlen_c@$0A@G@@YA_KQEBG_K@Z 00000001400234a0 f   libucrtd:strnlen.obj
 0001:00022520       ??$common_strnlen_simd@$00$00G@@YA_KQEBG_K@Z 0000000140023520 f   libucrtd:strnlen.obj
 0001:000227c0       ??$common_strnlen_simd@$00$0A@G@@YA_KQEBG_K@Z 00000001400237c0 f   libucrtd:strnlen.obj
 0001:00022ab0       ??$common_strnlen_simd@$0A@$00E@@YA_KQEBE_K@Z 0000000140023ab0 f   libucrtd:strnlen.obj
 0001:00022d30       ??$common_strnlen_simd@$0A@$00G@@YA_KQEBG_K@Z 0000000140023d30 f   libucrtd:strnlen.obj
 0001:00022fd0       ??$common_strnlen_simd@$0A@$0A@E@@YA_KQEBE_K@Z 0000000140023fd0 f   libucrtd:strnlen.obj
 0001:000232a0       ??$common_strnlen_simd@$0A@$0A@G@@YA_KQEBG_K@Z 00000001400242a0 f   libucrtd:strnlen.obj
 0001:00023590       ??$last_reached@$00@@YA_NQEBX0@Z 0000000140024590 f   libucrtd:strnlen.obj
 0001:000235a0       ??$last_reached@$0A@@@YA_NQEBX0@Z 00000001400245a0 f   libucrtd:strnlen.obj
 0001:000237e0       ??$common_tcscat_s@D@@YAHQEAD_KQEBD@Z 00000001400247e0 f   libucrtd:strcat_s.obj
 0001:00023e80       ??$__acrt_convert_wcs_mbs_cp@_WDV<lambda_f788ae46380686e8b737efdd8c720d07>@@U__crt_win32_buffer_no_resizing@@@@YAHQEB_WAEAV?$__crt_win32_buffer@DU__crt_win32_buffer_no_resizing@@@@AEBV<lambda_f788ae46380686e8b737efdd8c720d07>@@I@Z 0000000140024e80 f   libucrtd:getmodulefilenamea.obj
 0001:00024110       ??R<lambda_f788ae46380686e8b737efdd8c720d07>@@QEBAHIQEB_WQEAD_K@Z 0000000140025110 f   libucrtd:getmodulefilenamea.obj
 0001:00024110       ??R<lambda_d8593a27d1aa8c02be35c86a17d324c4>@@QEBAHIQEB_WQEAD_K@Z 0000000140025110 f   libucrtd:argv_wildcards.obj
 0001:00024480       ??$common_show_message_box@_W@@YAHQEB_W0I@Z 0000000140025480 f   libucrtd:crtmbox.obj
 0001:00024980       ??$?RV<lambda_842d9ff0dc9ef11c61343bbaebe7f885>@@AEAV<lambda_c5860995281e5c4ce005b3de8f5874ee>@@V<lambda_d90129c13df834fdcbf8d2b88dafcf2d>@@@?$__crt_seh_guarded_call@X@@QEAAX$$QEAV<lambda_842d9ff0dc9ef11c61343bbaebe7f885>@@AEAV<lambda_c5860995281e5c4ce005b3de8f5874ee>@@$$QEAV<lambda_d90129c13df834fdcbf8d2b88dafcf2d>@@@Z 0000000140025980 f   libucrtd:fflush.obj
 0001:000249c0       ??$?RV<lambda_886d6c58226a84441f68b9f2b8217b83>@@AEAV<lambda_ab61a845afdef5b7c387490eaf3616ee>@@V<lambda_f7f22ab5edc0698d5f6905b0d3f44752>@@@?$__crt_seh_guarded_call@X@@QEAAX$$QEAV<lambda_886d6c58226a84441f68b9f2b8217b83>@@AEAV<lambda_ab61a845afdef5b7c387490eaf3616ee>@@$$QEAV<lambda_f7f22ab5edc0698d5f6905b0d3f44752>@@@Z 00000001400259c0 f   libucrtd:fflush.obj
 0001:00024a00       ??$?RV<lambda_c376a267cfb53b6959b3b692ec76b120>@@AEAV<lambda_9a32fed5bf61b6b509b2d3f6003082a1>@@V<lambda_572fbb9fa0ab338edf41edfd4b5fcc8d>@@@?$__crt_seh_guarded_call@H@@QEAAH$$QEAV<lambda_c376a267cfb53b6959b3b692ec76b120>@@AEAV<lambda_9a32fed5bf61b6b509b2d3f6003082a1>@@$$QEAV<lambda_572fbb9fa0ab338edf41edfd4b5fcc8d>@@@Z 0000000140025a00 f   libucrtd:fflush.obj
 0001:00024a50       ??$__acrt_lock_and_call@V<lambda_ab61a845afdef5b7c387490eaf3616ee>@@@@YAXW4__acrt_lock_id@@$$QEAV<lambda_ab61a845afdef5b7c387490eaf3616ee>@@@Z 0000000140025a50 f   libucrtd:fflush.obj
 0001:00024aa0       ??$__acrt_lock_stream_and_call@V<lambda_9a32fed5bf61b6b509b2d3f6003082a1>@@@@YAHQEAU_iobuf@@$$QEAV<lambda_9a32fed5bf61b6b509b2d3f6003082a1>@@@Z 0000000140025aa0 f   libucrtd:fflush.obj
 0001:00024af0       ??$__acrt_lock_stream_and_call@V<lambda_c5860995281e5c4ce005b3de8f5874ee>@@@@YAXQEAU_iobuf@@$$QEAV<lambda_c5860995281e5c4ce005b3de8f5874ee>@@@Z 0000000140025af0 f   libucrtd:fflush.obj
 0001:00024b40       ??0<lambda_c5860995281e5c4ce005b3de8f5874ee>@@QEAA@AEBV__crt_stdio_stream@@AEAHAEB_N1@Z 0000000140025b40 f   libucrtd:fflush.obj
 0001:00024b40       ??0<lambda_7d656854fecfa268884b8692ea29008b>@@QEAA@AEB_KAEBV__crt_stdio_stream@@AEBHAEBQEAD@Z 0000000140025b40 f   libucrtd:setvbuf.obj
 0001:00024ba0       ??R<lambda_9a32fed5bf61b6b509b2d3f6003082a1>@@QEBAHXZ 0000000140025ba0 f   libucrtd:fflush.obj
 0001:00024bd0       ??R<lambda_ab61a845afdef5b7c387490eaf3616ee>@@QEBA@XZ 0000000140025bd0 f   libucrtd:fflush.obj
 0001:00024cc0       ??R<lambda_c5860995281e5c4ce005b3de8f5874ee>@@QEBAXXZ 0000000140025cc0 f   libucrtd:fflush.obj
 0001:00024db0       ?common_flush_all@@YAH_N@Z 0000000140025db0 f   libucrtd:fflush.obj
 0001:00024e20       ?common_flush_all_should_try_to_flush_stream@@YA_NV__crt_stdio_stream@@QEAH@Z 0000000140025e20 f   libucrtd:fflush.obj
 0001:00024ed0       ?is_stream_allocated@@YA_NJ@Z 0000000140025ed0 f   libucrtd:fflush.obj
 0001:00024f00       ?is_stream_flushable@@YA_NJ@Z 0000000140025f00 f   libucrtd:fflush.obj
 0001:00024f30       ?is_stream_flushable_or_commitable@@YA_NJ@Z 0000000140025f30 f   libucrtd:fflush.obj
 0001:00025280       ??$?RV<lambda_ee69b802af549e3a94c3585db2bd6467>@@AEAV<lambda_7d656854fecfa268884b8692ea29008b>@@V<lambda_05f0559a8855835fc49fa2f838446407>@@@?$__crt_seh_guarded_call@H@@QEAAH$$QEAV<lambda_ee69b802af549e3a94c3585db2bd6467>@@AEAV<lambda_7d656854fecfa268884b8692ea29008b>@@$$QEAV<lambda_05f0559a8855835fc49fa2f838446407>@@@Z 0000000140026280 f   libucrtd:setvbuf.obj
 0001:000252d0       ??$__acrt_lock_stream_and_call@V<lambda_7d656854fecfa268884b8692ea29008b>@@@@YAHQEAU_iobuf@@$$QEAV<lambda_7d656854fecfa268884b8692ea29008b>@@@Z 00000001400262d0 f   libucrtd:setvbuf.obj
 0001:00025320       ??R<lambda_7d656854fecfa268884b8692ea29008b>@@QEBAHXZ 0000000140026320 f   libucrtd:setvbuf.obj
 0001:000254a0       ?set_buffer@@YAHV__crt_stdio_stream@@QEAD_KH@Z 00000001400264a0 f   libucrtd:setvbuf.obj
 0001:000257e0       ??$?RV<lambda_450d765d439847d4c735a33c368b5fc0>@@AEAV<lambda_44731a7d0e6d81c3e6aa82d741081786>@@V<lambda_601a2a7da3b7a96e9554ac7215c4b07c>@@@?$__crt_seh_guarded_call@P6AXH@Z@@QEAAP6AXH@Z$$QEAV<lambda_450d765d439847d4c735a33c368b5fc0>@@AEAV<lambda_44731a7d0e6d81c3e6aa82d741081786>@@$$QEAV<lambda_601a2a7da3b7a96e9554ac7215c4b07c>@@@Z 00000001400267e0 f   libucrtd:signal.obj
 0001:00025830       ??$__acrt_lock_and_call@V<lambda_44731a7d0e6d81c3e6aa82d741081786>@@@@YAP6AXH@ZW4__acrt_lock_id@@$$QEAV<lambda_44731a7d0e6d81c3e6aa82d741081786>@@@Z 0000000140026830 f   libucrtd:signal.obj
 0001:00025880       ??R<lambda_44731a7d0e6d81c3e6aa82d741081786>@@QEBAP6AXH@ZXZ 0000000140026880 f   libucrtd:signal.obj
 0001:000258b0       ?get_global_action_nolock@@YAPEAP6AXH@ZH@Z 00000001400268b0 f   libucrtd:signal.obj
 0001:00025940       ?siglookup@@YAPEAU__crt_signal_action_t@@HQEAU1@@Z 0000000140026940 f   libucrtd:signal.obj
 0001:00025ee0       $LN58                      0000000140026ee0     libucrtd:signal.obj
 0001:00025eec       $LN57                      0000000140026eec     libucrtd:signal.obj
 0001:00025fc0       $$000000                   0000000140026fc0     libucrtd:remainder_piby2f_forc.obj
 0001:00026150       _sincosf_special           0000000140027150 f   libucrtd:sincos_special.obj
 0001:00026290       ??$?RV<lambda_0ae27a3a962d80f24befdcbee591983d>@@AEAV<lambda_8d0ee55de4b1038c4002e0adecdf1839>@@V<lambda_dc504788e8f1664fe9b84e20bfb512f2>@@@?$__crt_seh_guarded_call@X@@QEAAX$$QEAV<lambda_0ae27a3a962d80f24befdcbee591983d>@@AEAV<lambda_8d0ee55de4b1038c4002e0adecdf1839>@@$$QEAV<lambda_dc504788e8f1664fe9b84e20bfb512f2>@@@Z 0000000140027290 f   libucrtd:per_thread_data.obj
 0001:000262d0       ??$?RV<lambda_2d41944a1d46af3157314b8a01080d33>@@AEAV<lambda_8f455de75cd7d7f24b4096f044d8b9e6>@@V<lambda_aa500f224e6afead328df44964fe2772>@@@?$__crt_seh_guarded_call@X@@QEAAX$$QEAV<lambda_2d41944a1d46af3157314b8a01080d33>@@AEAV<lambda_8f455de75cd7d7f24b4096f044d8b9e6>@@$$QEAV<lambda_aa500f224e6afead328df44964fe2772>@@@Z 00000001400272d0 f   libucrtd:per_thread_data.obj
 0001:00026310       ??$?RV<lambda_74a0ef281e44d15e1136f792f539efb3>@@AEAV<lambda_e157831efee4ea0afb0a2ace5dd5fd0d>@@V<lambda_04ddeca75b7c13fd67716e8dfcef87ee>@@@?$__crt_seh_guarded_call@X@@QEAAX$$QEAV<lambda_74a0ef281e44d15e1136f792f539efb3>@@AEAV<lambda_e157831efee4ea0afb0a2ace5dd5fd0d>@@$$QEAV<lambda_04ddeca75b7c13fd67716e8dfcef87ee>@@@Z 0000000140027310 f   libucrtd:per_thread_data.obj
 0001:00026350       ??$?RV<lambda_aa87e3671a710a21b5dc78c0bdf72e11>@@AEAV<lambda_92619d2358a28f41a33ba319515a20b9>@@V<lambda_6992ecaafeb10aed2b74cb1fae11a551>@@@?$__crt_seh_guarded_call@X@@QEAAX$$QEAV<lambda_aa87e3671a710a21b5dc78c0bdf72e11>@@AEAV<lambda_92619d2358a28f41a33ba319515a20b9>@@$$QEAV<lambda_6992ecaafeb10aed2b74cb1fae11a551>@@@Z 0000000140027350 f   libucrtd:per_thread_data.obj
 0001:00026390       ??$__acrt_lock_and_call@V<lambda_8d0ee55de4b1038c4002e0adecdf1839>@@@@YAXW4__acrt_lock_id@@$$QEAV<lambda_8d0ee55de4b1038c4002e0adecdf1839>@@@Z 0000000140027390 f   libucrtd:per_thread_data.obj
 0001:000263e0       ??$__acrt_lock_and_call@V<lambda_8f455de75cd7d7f24b4096f044d8b9e6>@@@@YAXW4__acrt_lock_id@@$$QEAV<lambda_8f455de75cd7d7f24b4096f044d8b9e6>@@@Z 00000001400273e0 f   libucrtd:per_thread_data.obj
 0001:00026430       ??$__acrt_lock_and_call@V<lambda_92619d2358a28f41a33ba319515a20b9>@@@@YAXW4__acrt_lock_id@@$$QEAV<lambda_92619d2358a28f41a33ba319515a20b9>@@@Z 0000000140027430 f   libucrtd:per_thread_data.obj
 0001:00026480       ??$__acrt_lock_and_call@V<lambda_e157831efee4ea0afb0a2ace5dd5fd0d>@@@@YAXW4__acrt_lock_id@@$$QEAV<lambda_e157831efee4ea0afb0a2ace5dd5fd0d>@@@Z 0000000140027480 f   libucrtd:per_thread_data.obj
 0001:00026510       ??R<lambda_8d0ee55de4b1038c4002e0adecdf1839>@@QEBAXXZ 0000000140027510 f   libucrtd:per_thread_data.obj
 0001:00026530       ??R<lambda_8f455de75cd7d7f24b4096f044d8b9e6>@@QEBAXXZ 0000000140027530 f   libucrtd:per_thread_data.obj
 0001:00026550       ??R<lambda_92619d2358a28f41a33ba319515a20b9>@@QEBAXXZ 0000000140027550 f   libucrtd:per_thread_data.obj
 0001:00026580       ??R<lambda_e157831efee4ea0afb0a2ace5dd5fd0d>@@QEBAXXZ 0000000140027580 f   libucrtd:per_thread_data.obj
 0001:000265f0       ?construct_ptd@@YAXQEAU__acrt_ptd@@QEAPEAU__crt_locale_data@@@Z 00000001400275f0 f   libucrtd:per_thread_data.obj
 0001:000266d0       ?construct_ptd_array@@YAXQEAU__acrt_ptd@@@Z 00000001400276d0 f   libucrtd:per_thread_data.obj
 0001:00026740       ?destroy_fls@@YAXPEAX@Z    0000000140027740 f   libucrtd:per_thread_data.obj
 0001:00026780       ?destroy_ptd@@YAXQEAU__acrt_ptd@@@Z 0000000140027780 f   libucrtd:per_thread_data.obj
 0001:000268a0       ?destroy_ptd_array@@YAXQEAU__acrt_ptd@@@Z 00000001400278a0 f   libucrtd:per_thread_data.obj
 0001:000268f0       ?internal_get_ptd_head@@YAPEAU__acrt_ptd@@XZ 00000001400278f0 f   libucrtd:per_thread_data.obj
 0001:00026a20       ?internal_getptd_noexit@@YAPEAU__acrt_ptd@@XZ 0000000140027a20 f   libucrtd:per_thread_data.obj
 0001:00026a90       ?replace_current_thread_locale_nolock@@YAXQEAU__acrt_ptd@@QEAU__crt_locale_data@@@Z 0000000140027a90 f   libucrtd:per_thread_data.obj
 0001:00026b50       ?try_get_ptd_head@@YAPEAU__acrt_ptd@@XZ 0000000140027b50 f   libucrtd:per_thread_data.obj
 0001:00026c70       ??$common_tcsncpy_s@_W@@YAHQEA_W_KQEB_W1@Z 0000000140027c70 f   libucrtd:wcsncpy_s.obj
 0001:00027350       ?<lambda_invoker_cdecl>@<lambda_a1ce4c8ae42411fd470c77163914f50e>@@CAHPEBX0@Z 0000000140028350 f   libucrtd:argv_wildcards.obj
 0001:00027380       ??$__acrt_convert_wcs_mbs_cp@D_WV<lambda_7c9dea7b4ca7285d2cdb541a38da6275>@@U__crt_win32_buffer_internal_dynamic_resizing@@@@YAHQEBDAEAV?$__crt_win32_buffer@_WU__crt_win32_buffer_internal_dynamic_resizing@@@@AEBV<lambda_7c9dea7b4ca7285d2cdb541a38da6275>@@I@Z 0000000140028380 f   libucrtd:argv_wildcards.obj
 0001:00027520       ??$__acrt_convert_wcs_mbs_cp@_WDV<lambda_d8593a27d1aa8c02be35c86a17d324c4>@@U__crt_win32_buffer_internal_dynamic_resizing@@@@YAHQEB_WAEAV?$__crt_win32_buffer@DU__crt_win32_buffer_internal_dynamic_resizing@@@@AEBV<lambda_d8593a27d1aa8c02be35c86a17d324c4>@@I@Z 0000000140028520 f   libucrtd:argv_wildcards.obj
 0001:00027760       ??$common_expand_argv_wildcards@D@@YAHQEAPEADQEAPEAPEAD@Z 0000000140028760 f   libucrtd:argv_wildcards.obj
 0001:00027b90       ??$copy_and_add_argument_to_buffer@D@@YAHQEBD0_KAEAV?$argument_list@D@?A0x5f5c8891@@@Z 0000000140028b90 f   libucrtd:argv_wildcards.obj
 0001:00027d40       ??$expand_argument_wildcards@D@@YAHQEAD0AEAV?$argument_list@D@?A0x5f5c8891@@@Z 0000000140028d40 f   libucrtd:argv_wildcards.obj
 0001:00028240       ??0?$argument_list@D@?A0x5f5c8891@@QEAA@XZ 0000000140029240 f   libucrtd:argv_wildcards.obj
 0001:000282d0       ??1?$argument_list@D@?A0x5f5c8891@@QEAA@XZ 00000001400292d0 f   libucrtd:argv_wildcards.obj
 0001:00028340       ??B<lambda_a1ce4c8ae42411fd470c77163914f50e>@@QEBAP6AHPEBX0@ZXZ 0000000140029340 f   libucrtd:argv_wildcards.obj
 0001:00028350       ??R<lambda_7c9dea7b4ca7285d2cdb541a38da6275>@@QEBAHIQEBDQEA_W_K@Z 0000000140029350 f   libucrtd:argv_wildcards.obj
 0001:000283a0       ??R<lambda_a1ce4c8ae42411fd470c77163914f50e>@@QEBAHPEBX0@Z 00000001400293a0 f   libucrtd:argv_wildcards.obj
 0001:000283e0       ??R<lambda_cfae5a0e6efa98e0d1aa03c4cec8f74e>@@QEBA_ND@Z 00000001400293e0 f   libucrtd:argv_wildcards.obj
 0001:000285e0       ?append@?$argument_list@D@?A0x5f5c8891@@QEAAHQEAD@Z 00000001400295e0 f   libucrtd:argv_wildcards.obj
 0001:00028700       ?end@?$argument_list@D@?A0x5f5c8891@@QEBAPEAPEADXZ 0000000140029700 f   libucrtd:argv_wildcards.obj
 0001:00028710       ?expand_if_necessary@?$argument_list@D@?A0x5f5c8891@@AEAAHXZ 0000000140029710 f   libucrtd:argv_wildcards.obj
 0001:000288f0       ?get_file_name@@YAPEADQEAV?$__crt_win32_buffer@DU__crt_win32_buffer_internal_dynamic_resizing@@@@QEA_W@Z 00000001400298f0 f   libucrtd:argv_wildcards.obj
 0001:00028940       ?get_wide@@YAPEA_WQEAV?$__crt_win32_buffer@_WU__crt_win32_buffer_internal_dynamic_resizing@@@@QEAD@Z 0000000140029940 f   libucrtd:argv_wildcards.obj
 0001:00028990       ?previous_character@@YAPEADQEAD0@Z 0000000140029990 f   libucrtd:argv_wildcards.obj
 0001:00028a00       ?size@?$argument_list@D@?A0x5f5c8891@@QEBA_KXZ 0000000140029a00 f   libucrtd:argv_wildcards.obj
 0001:00028a80       ??$?RV<lambda_efa02eb69bf647d2f7ff0dd6f1103f72>@@AEAV<lambda_bd5a608237428601b7e45fbdc72b1ae8>@@V<lambda_728235dc0fc2b1f82d1fa5b3e7102d8f>@@@?$__crt_seh_guarded_call@X@@QEAAX$$QEAV<lambda_efa02eb69bf647d2f7ff0dd6f1103f72>@@AEAV<lambda_bd5a608237428601b7e45fbdc72b1ae8>@@$$QEAV<lambda_728235dc0fc2b1f82d1fa5b3e7102d8f>@@@Z 0000000140029a80 f   libucrtd:mbctype.obj
 0001:00028ac0       ??$__acrt_lock_and_call@V<lambda_bd5a608237428601b7e45fbdc72b1ae8>@@@@YAXW4__acrt_lock_id@@$$QEAV<lambda_bd5a608237428601b7e45fbdc72b1ae8>@@@Z 0000000140029ac0 f   libucrtd:mbctype.obj
 0001:00028bf0       ??R<lambda_bd5a608237428601b7e45fbdc72b1ae8>@@QEBAXXZ 0000000140029bf0 f   libucrtd:mbctype.obj
 0001:00028d10       ?CPtoLocaleName@@YAPEB_WH@Z 0000000140029d10 f   libucrtd:mbctype.obj
 0001:00028db0       ?getSystemCP@@YAHH@Z       0000000140029db0 f   libucrtd:mbctype.obj
 0001:00028e90       ?setSBCS@@YAXPEAU__crt_multibyte_data@@@Z 0000000140029e90 f   libucrtd:mbctype.obj
 0001:00028f90       ?setSBUpLow@@YAXPEAU__crt_multibyte_data@@@Z 0000000140029f90 f   libucrtd:mbctype.obj
 0001:00029380       ?setmbcp_internal@@YAHH_NQEAU__acrt_ptd@@QEAPEAU__crt_multibyte_data@@@Z 000000014002a380 f   libucrtd:mbctype.obj
 0001:000295e0       ?update_thread_multibyte_data_internal@@YAPEAU__crt_multibyte_data@@QEAU__acrt_ptd@@QEAPEAU1@@Z 000000014002a5e0 f   libucrtd:mbctype.obj
 0001:00029d18       ?x_ismbbtype_l@@YAHPEAU__crt_locale_pointers@@IHH@Z 000000014002ad18 f   libucrtd:ismbbyte.obj
 0001:00029de0       ?filter_mbtowcs_flags@@YAKIK@Z 000000014002ade0 f   libucrtd:multibytetowidechar.obj
 0001:00029ee0       ?filter_wcstomb_flags@@YAKIK@Z 000000014002aee0 f   libucrtd:widechartomultibyte.obj
 0001:0002a300       ??$get_cached_win_policy@Udeveloper_information_policy_properties@?1??__acrt_get_developer_information_policy@@YA?AW4developer_information_policy@@XZ@@@YA?AW4developer_information_policy@@W4AppPolicyShowDeveloperDiagnostic@@@Z 000000014002b300 f   libucrtd:win_policies.obj
 0001:0002a3d0       ??$get_cached_win_policy@Uwindowing_model_policy_properties@?1??__acrt_get_windowing_model_policy@@YA?AW4windowing_model_policy@@XZ@@@YA?AW4windowing_model_policy@@W4AppPolicyWindowingModel@@@Z 000000014002b3d0 f   libucrtd:win_policies.obj
 0001:0002a4a0       ??$get_win_policy@Uprocess_end_policy_properties@?1??__acrt_get_process_end_policy@@YA?AW4process_end_policy@@XZ@@@YA?AW4process_end_policy@@W4AppPolicyProcessTerminationMethod@@@Z 000000014002b4a0 f   libucrtd:win_policies.obj
 0001:0002a4f0       ?appmodel_get_policy@developer_information_policy_properties@?1??__acrt_get_developer_information_policy@@YA?AW4developer_information_policy@@XZ@SAJPEAW4AppPolicyShowDeveloperDiagnostic@@@Z 000000014002b4f0 f   libucrtd:win_policies.obj
 0001:0002a510       ?appmodel_get_policy@process_end_policy_properties@?1??__acrt_get_process_end_policy@@YA?AW4process_end_policy@@XZ@SAJPEAW4AppPolicyProcessTerminationMethod@@@Z 000000014002b510 f   libucrtd:win_policies.obj
 0001:0002a530       ?appmodel_get_policy@windowing_model_policy_properties@?1??__acrt_get_windowing_model_policy@@YA?AW4windowing_model_policy@@XZ@SAJPEAW4AppPolicyWindowingModel@@@Z 000000014002b530 f   libucrtd:win_policies.obj
 0001:0002a550       ?appmodel_policy_to_policy_type@developer_information_policy_properties@?1??__acrt_get_developer_information_policy@@YA?AW4developer_information_policy@@XZ@SA?AW43@J@Z 000000014002b550 f   libucrtd:win_policies.obj
 0001:0002a570       ?appmodel_policy_to_policy_type@process_end_policy_properties@?1??__acrt_get_process_end_policy@@YA?AW4process_end_policy@@XZ@SA?AW43@W4AppPolicyProcessTerminationMethod@@@Z 000000014002b570 f   libucrtd:win_policies.obj
 0001:0002a590       ?appmodel_policy_to_policy_type@windowing_model_policy_properties@?1??__acrt_get_windowing_model_policy@@YA?AW4windowing_model_policy@@XZ@SA?AW43@J@Z 000000014002b590 f   libucrtd:win_policies.obj
 0001:0002ade0       ?get_std_handle_id@@YAKH@Z 000000014002bde0 f   libucrtd:ioinit.obj
 0001:0002ae30       ?initialize_inherited_file_handles_nolock@@YAXXZ 000000014002be30 f   libucrtd:ioinit.obj
 0001:0002afe0       ?initialize_stdio_handles_nolock@@YAXXZ 000000014002bfe0 f   libucrtd:ioinit.obj
 0001:0002b540       ??$free_crt_array@D$01@@YAXAEAY01PEAD@Z 000000014002c540 f   libucrtd:inittime.obj
 0001:0002b540       ??$free_crt_array@_W$01@@YAXAEAY01PEA_W@Z 000000014002c540 f   libucrtd:inittime.obj
 0001:0002b560       ??$free_crt_array@D$06@@YAXAEAY06PEAD@Z 000000014002c560 f   libucrtd:inittime.obj
 0001:0002b560       ??$free_crt_array@_W$06@@YAXAEAY06PEA_W@Z 000000014002c560 f   libucrtd:inittime.obj
 0001:0002b580       ??$free_crt_array@D$0M@@@YAXAEAY0M@PEAD@Z 000000014002c580 f   libucrtd:inittime.obj
 0001:0002b580       ??$free_crt_array@_W$0M@@@YAXAEAY0M@PEA_W@Z 000000014002c580 f   libucrtd:inittime.obj
 0001:0002b5a0       ?free_crt_array_internal@@YAXQEAPEBX_K@Z 000000014002c5a0 f   libucrtd:inittime.obj
 0001:0002c6c0       ?try_get_AppPolicyGetProcessTerminationMethod@@YAP6AJPEAXPEAW4AppPolicyProcessTerminationMethod@@@ZXZ 000000014002d6c0 f   libucrtd:winapi_thunks.obj
 0001:0002c6f0       ?try_get_AppPolicyGetShowDeveloperDiagnostic@@YAP6AJPEAXPEAW4AppPolicyShowDeveloperDiagnostic@@@ZXZ 000000014002d6f0 f   libucrtd:winapi_thunks.obj
 0001:0002c720       ?try_get_AppPolicyGetWindowingModel@@YAP6AJPEAXPEAW4AppPolicyWindowingModel@@@ZXZ 000000014002d720 f   libucrtd:winapi_thunks.obj
 0001:0002c750       ?try_get_AreFileApisANSI@@YAP6AHXZXZ 000000014002d750 f   libucrtd:winapi_thunks.obj
 0001:0002c780       ?try_get_FlsAlloc@@YAP6AKP6AXPEAX@Z@ZXZ 000000014002d780 f   libucrtd:winapi_thunks.obj
 0001:0002c7b0       ?try_get_FlsFree@@YAP6AHK@ZXZ 000000014002d7b0 f   libucrtd:winapi_thunks.obj
 0001:0002c7e0       ?try_get_FlsGetValue@@YAP6APEAXK@ZXZ 000000014002d7e0 f   libucrtd:winapi_thunks.obj
 0001:0002c810       ?try_get_FlsSetValue@@YAP6AHKPEAX@ZXZ 000000014002d810 f   libucrtd:winapi_thunks.obj
 0001:0002c840       ?try_get_GetActiveWindow@@YAP6APEAUHWND__@@XZXZ 000000014002d840 f   libucrtd:winapi_thunks.obj
 0001:0002c870       ?try_get_GetLastActivePopup@@YAP6APEAUHWND__@@PEAU1@@ZXZ 000000014002d870 f   libucrtd:winapi_thunks.obj
 0001:0002c8a0       ?try_get_GetProcessWindowStation@@YAP6APEAUHWINSTA__@@XZXZ 000000014002d8a0 f   libucrtd:winapi_thunks.obj
 0001:0002c8d0       ?try_get_GetUserObjectInformationW@@YAP6AHPEAXH0KPEAK@ZXZ 000000014002d8d0 f   libucrtd:winapi_thunks.obj
 0001:0002c900       ?try_get_InitializeCriticalSectionEx@@YAP6AHPEAU_RTL_CRITICAL_SECTION@@KK@ZXZ 000000014002d900 f   libucrtd:winapi_thunks.obj
 0001:0002c930       ?try_get_LCMapStringEx@@YAP6AHPEB_WK0HPEA_WHPEAU_nlsversioninfo@@PEAX_J@ZXZ 000000014002d930 f   libucrtd:winapi_thunks.obj
 0001:0002c960       ?try_get_LocaleNameToLCID@@YAP6AKPEB_WK@ZXZ 000000014002d960 f   libucrtd:winapi_thunks.obj
 0001:0002c990       ?try_get_MessageBoxA@@YAP6AHPEAUHWND__@@PEBD1I@ZXZ 000000014002d990 f   libucrtd:winapi_thunks.obj
 0001:0002c9c0       ?try_get_MessageBoxW@@YAP6AHPEAUHWND__@@PEB_W1I@ZXZ 000000014002d9c0 f   libucrtd:winapi_thunks.obj
 0001:0002c9f0       ?try_get_first_available_module@@YAPEAUHINSTANCE__@@QEBW4module_id@?A0x391cf84c@@0@Z 000000014002d9f0 f   libucrtd:winapi_thunks.obj
 0001:0002ca50       ?try_get_function@@YAPEAXW4function_id@?A0x391cf84c@@QEBDQEBW4module_id@2@2@Z 000000014002da50 f   libucrtd:winapi_thunks.obj
 0001:0002cbf0       ?try_get_module@@YAPEAUHINSTANCE__@@W4module_id@?A0x391cf84c@@@Z 000000014002dbf0 f   libucrtd:winapi_thunks.obj
 0001:0002cd50       ?try_get_proc_address_from_first_available_module@@YAPEAXQEBDQEBW4module_id@?A0x391cf84c@@1@Z 000000014002dd50 f   libucrtd:winapi_thunks.obj
 0001:0002cda0       ?try_load_library_from_system_directory@@YAPEAUHINSTANCE__@@QEB_W@Z 000000014002dda0 f   libucrtd:winapi_thunks.obj
 0001:0002db30       ?select_heap@@YAPEAXQEAX@Z 000000014002eb30 f   libucrtd:free_base.obj
 0001:0002dc50       ?is_contraction_possible@@YA_N_K@Z 000000014002ec50 f   libucrtd:expand.obj
 0001:0002ec10       ?fe_to_nearest@@YA_NQEBN_KF@Z 000000014002fc10 f   libucrtd:cvt.obj
 0001:0002ed60       ?fp_format_a@@YAHQEBNPEAD_KQEAD2H_NIQEAU__crt_locale_pointers@@W4__acrt_rounding_mode@@@Z 000000014002fd60 f   libucrtd:cvt.obj
 0001:0002f600       ?fp_format_e@@YAHQEBNQEAD_K12H_NIQEAU__crt_locale_pointers@@W4__acrt_rounding_mode@@@Z 0000000140030600 f   libucrtd:cvt.obj
 0001:0002f820       ?fp_format_e_internal@@YAHQEAD_KH_NIQEAU_strflt@@2QEAU__crt_locale_pointers@@@Z 0000000140030820 f   libucrtd:cvt.obj
 0001:0002fc50       ?fp_format_f@@YAHQEBNQEAD_K12HQEAU__crt_locale_pointers@@W4__acrt_rounding_mode@@@Z 0000000140030c50 f   libucrtd:cvt.obj
 0001:0002fdb0       ?fp_format_f_internal@@YAHQEAD_KHQEAU_strflt@@_NQEAU__crt_locale_pointers@@@Z 0000000140030db0 f   libucrtd:cvt.obj
 0001:00030050       ?fp_format_g@@YAHQEBNQEAD_K12H_NIW4__acrt_rounding_mode@@QEAU__crt_locale_pointers@@@Z 0000000140031050 f   libucrtd:cvt.obj
 0001:000302a0       ?fp_format_nan_or_infinity@@YAHW4__acrt_fp_class@@_NPEAD_K1@Z 00000001400312a0 f   libucrtd:cvt.obj
 0001:00030410       ?shift_bytes@@YAXQEAD_K0H@Z 0000000140031410 f   libucrtd:cvt.obj
 0001:00030460       ?should_round_up@@YA_NQEBN_KFW4__acrt_rounding_mode@@@Z 0000000140031460 f   libucrtd:cvt.obj
 0001:00030b84       $LN42                      0000000140031b84     libucrtd:cvt.obj
 0001:00030b98       $LN41                      0000000140031b98     libucrtd:cvt.obj
 0001:00030bc0       ?fputwc_binary_nolock@@YAG_WV__crt_stdio_stream@@@Z 0000000140031bc0 f   libucrtd:fputwc.obj
 0001:00032b00       ??$?RV<lambda_4e3dbe6921bc0b5a1a6bc6573fdc859e>@@AEAV<lambda_5533cddd4bda0037814beee657757329>@@V<lambda_47cffbaa968af5c721c38a4a6f8da44d>@@@?$__crt_seh_guarded_call@H@@QEAAH$$QEAV<lambda_4e3dbe6921bc0b5a1a6bc6573fdc859e>@@AEAV<lambda_5533cddd4bda0037814beee657757329>@@$$QEAV<lambda_47cffbaa968af5c721c38a4a6f8da44d>@@@Z 0000000140033b00 f   libucrtd:commit.obj
 0001:00032b50       ??$__acrt_lowio_lock_fh_and_call@V<lambda_5533cddd4bda0037814beee657757329>@@@@YAHH$$QEAV<lambda_5533cddd4bda0037814beee657757329>@@@Z 0000000140033b50 f   libucrtd:commit.obj
 0001:00032ba0       ??R<lambda_8ddc48ad9d26c778cb15812d1d88fc8a>@@QEBAXXZ 0000000140033ba0 f   libucrtd:close.obj
 0001:00032ba0       ??R<lambda_47cffbaa968af5c721c38a4a6f8da44d>@@QEBAXXZ 0000000140033ba0 f   libucrtd:commit.obj
 0001:00032bc0       ??R<lambda_53fc7fc888e23d815d7080162c0aeeb2>@@QEBAXXZ 0000000140033bc0 f   libucrtd:close.obj
 0001:00032bc0       ??R<lambda_4e3dbe6921bc0b5a1a6bc6573fdc859e>@@QEBAXXZ 0000000140033bc0 f   libucrtd:commit.obj
 0001:00032be0       ??R<lambda_5533cddd4bda0037814beee657757329>@@QEBAHXZ 0000000140033be0 f   libucrtd:commit.obj
 0001:00032e80       ?write_binary_nolock@@YA?AUwrite_result@?A0x17268360@@HQEBDI@Z 0000000140033e80 f   libucrtd:write.obj
 0001:00032f50       ?write_double_translated_ansi_nolock@@YA?AUwrite_result@?A0x17268360@@HQEBDI@Z 0000000140033f50 f   libucrtd:write.obj
 0001:00033eb0       ?write_double_translated_unicode_nolock@@YA?AUwrite_result@?A0x17268360@@QEBDI@Z 0000000140034eb0 f   libucrtd:write.obj
 0001:00034010       ?write_requires_double_translation_nolock@@YA_NH@Z 0000000140035010 f   libucrtd:write.obj
 0001:00034130       ?write_text_ansi_nolock@@YA?AUwrite_result@?A0x17268360@@HQEBDI@Z 0000000140035130 f   libucrtd:write.obj
 0001:00034360       ?write_text_utf16le_nolock@@YA?AUwrite_result@?A0x17268360@@HQEBDI@Z 0000000140035360 f   libucrtd:write.obj
 0001:000345a0       ?write_text_utf8_nolock@@YA?AUwrite_result@?A0x17268360@@HQEBDI@Z 00000001400355a0 f   libucrtd:write.obj
 0001:00035120       _call_matherr              0000000140036120 f   libucrtd:libm_error.obj
 0001:000351b0       _exception_enabled         00000001400361b0 f   libucrtd:libm_error.obj
 0001:00035660       ?shortsort@@YAXPEAD0_KP6AHPEBX2@Z@Z 0000000140036660 f   libucrtd:qsort.obj
 0001:00035740       ?swap@@YAXPEAD0_K@Z        0000000140036740 f   libucrtd:qsort.obj
 0001:00035ee0       ??$common_tcsncpy_s@D@@YAHQEAD_KQEBD1@Z 0000000140036ee0 f   libucrtd:strncpy_s.obj
 0001:000365a0       fallbackMethod             00000001400375a0 f   libucrtd:strpbrk.obj
 0001:00036f04       $LN85                      0000000140037f04     libucrtd:strpbrk.obj
 0001:00036f40       $LN84                      0000000140037f40     libucrtd:strpbrk.obj
 0001:00036f80       $LN83                      0000000140037f80     libucrtd:strpbrk.obj
 0001:000370c0       ?__acrt_LCMapStringA_stat@@YAHPEAU__crt_locale_pointers@@PEB_WKPEBDHPEADHHH@Z 00000001400380c0 f   libucrtd:lcmapstringa.obj
 0001:00037760       ?initialize_multibyte@@YAHXZ 0000000140038760 f   libucrtd:multibyte_initializer.obj
 0001:00037860       ?GetTableIndexFromLocaleName@@YAHPEB_W@Z 0000000140038860 f   libucrtd:lcidtoname_downlevel.obj
 0001:00037b80       ??R<lambda_88e6d024674186fe9d3f7283b675e4c3>@@QEBA_KPEBD@Z 0000000140038b80 f   libucrtd:mbrtowc.obj
 0001:00038290       ?check_trailing@@YA_NPEBDW4__acrt_has_trailing_digits@@@Z 0000000140039290 f   libucrtd:_fptostr.obj
 0001:000382e0       ?should_round_up@@YA_NQEBDHW4__acrt_has_trailing_digits@@W4__acrt_rounding_mode@@@Z 00000001400392e0 f   libucrtd:_fptostr.obj
 0001:000388a0       ??$convert_to_fos_high_precision@N@@YA?AW4__acrt_has_trailing_digits@@NIQEAHQEAD_K@Z 00000001400398a0 f   libucrtd:cfout.obj
 0001:00038fc0       ??0scoped_fp_state_reset@?A0x71ca7cfb@@QEAA@XZ 0000000140039fc0 f   libucrtd:cfout.obj
 0001:00039010       ??1scoped_fp_state_reset@?A0x71ca7cfb@@QEAA@XZ 000000014003a010 f   libucrtd:cfout.obj
 0001:0003ab60       ??$common_flush_and_write_nolock@D@@YAHHV__crt_stdio_stream@@@Z 000000014003bb60 f   libucrtd:_flsbuf.obj
 0001:0003ad80       ??$common_flush_and_write_nolock@_W@@YAHHV__crt_stdio_stream@@@Z 000000014003bd80 f   libucrtd:_flsbuf.obj
 0001:0003afa0       ??$write_buffer_nolock@D@@YA_NDV__crt_stdio_stream@@@Z 000000014003bfa0 f   libucrtd:_flsbuf.obj
 0001:0003b210       ??$write_buffer_nolock@_W@@YA_N_WV__crt_stdio_stream@@@Z 000000014003c210 f   libucrtd:_flsbuf.obj
 0001:0003b4b0       ?stream_is_at_end_of_file_nolock@@YA_NV__crt_stdio_stream@@@Z 000000014003c4b0 f   libucrtd:_flsbuf.obj
 0001:0003b610       ?_mbstowcs_l_helper@@YA_KPEA_WPEBD_KPEAU__crt_locale_pointers@@@Z 000000014003c610 f   libucrtd:mbstowcs.obj
 0001:0003c210       ?_wcstombs_l_helper@@YA_KPEADPEB_W_KPEAU__crt_locale_pointers@@@Z 000000014003d210 f   libucrtd:wcstombs.obj
 0001:0003cac0       ?wcsncnt@@YA_KPEB_W_K@Z    000000014003dac0 f   libucrtd:wcstombs.obj
 0001:0003d3f0       ??$common_lseek@_J@@YA_JH_JH@Z 000000014003e3f0 f   libucrtd:lseek.obj
 0001:0003d690       ??$common_lseek_nolock@_J@@YA_JH_JH@Z 000000014003e690 f   libucrtd:lseek.obj
 0001:0003d7a0       ?common_lseek_do_seek_nolock@@YA_JQEAX_JH@Z 000000014003e7a0 f   libucrtd:lseek.obj
 0001:0003e5a0       $$000000                   000000014003f5a0     libucrtd:log10.obj
 0001:0003f0e0       ??$to_abstract_status@W4__acrt_fenv_machine_sse_status@@@@YA?AW4__acrt_fenv_abstract_status@@W4__acrt_fenv_machine_sse_status@@@Z 00000001400400e0 f   libucrtd:_fenvutils.obj
 0001:0003f100       ??$translate_control_exception_mask@W4__acrt_fenv_abstract_control@@W4__acrt_fenv_machine_sse_control@@@@YA?AW4__acrt_fenv_abstract_control@@W4__acrt_fenv_machine_sse_control@@@Z 0000000140040100 f   libucrtd:_fenvutils.obj
 0001:0003f1f0       ??$translate_control_exception_mask@W4__acrt_fenv_machine_sse_control@@W4__acrt_fenv_abstract_control@@@@YA?AW4__acrt_fenv_machine_sse_control@@W4__acrt_fenv_abstract_control@@@Z 00000001400401f0 f   libucrtd:_fenvutils.obj
 0001:0003f2e0       ??$translate_control_rounding_control@W4__acrt_fenv_abstract_control@@W4__acrt_fenv_machine_sse_control@@@@YA?AW4__acrt_fenv_abstract_control@@W4__acrt_fenv_machine_sse_control@@@Z 00000001400402e0 f   libucrtd:_fenvutils.obj
 0001:0003f350       ??$translate_control_rounding_control@W4__acrt_fenv_machine_sse_control@@W4__acrt_fenv_abstract_control@@@@YA?AW4__acrt_fenv_machine_sse_control@@W4__acrt_fenv_abstract_control@@@Z 0000000140040350 f   libucrtd:_fenvutils.obj
 0001:0003f3c0       ??$translate_status@W4__acrt_fenv_abstract_status@@W4__acrt_fenv_machine_sse_status@@@@YA?AW4__acrt_fenv_abstract_status@@W4__acrt_fenv_machine_sse_status@@@Z 00000001400403c0 f   libucrtd:_fenvutils.obj
 0001:0003f4b0       ??$translate_status@W4__acrt_fenv_machine_sse_status@@W4__acrt_fenv_abstract_status@@@@YA?AW4__acrt_fenv_machine_sse_status@@W4__acrt_fenv_abstract_status@@@Z 00000001400404b0 f   libucrtd:_fenvutils.obj
 0001:0003f780       ?get_machine_sse_control@@YA?AW4__acrt_fenv_machine_sse_control@@XZ 0000000140040780 f   libucrtd:_fenvutils.obj
 0001:0003f7a0       ?get_machine_sse_status@@YA?AW4__acrt_fenv_machine_sse_status@@XZ 00000001400407a0 f   libucrtd:_fenvutils.obj
 0001:0003f7c0       ?set_machine_sse_control@@YAXW4__acrt_fenv_machine_sse_control@@@Z 00000001400407c0 f   libucrtd:_fenvutils.obj
 0001:0003f820       ?set_machine_sse_status@@YAXW4__acrt_fenv_machine_sse_status@@@Z 0000000140040820 f   libucrtd:_fenvutils.obj
 0001:0003f870       ?to_abstract_control@@YA?AW4__acrt_fenv_abstract_control@@W4__acrt_fenv_machine_sse_control@@@Z 0000000140040870 f   libucrtd:_fenvutils.obj
 0001:0003f8c0       ?to_machine_sse_control@@YA?AW4__acrt_fenv_machine_sse_control@@W4__acrt_fenv_abstract_control@@@Z 00000001400408c0 f   libucrtd:_fenvutils.obj
 0001:0003f920       ?to_machine_sse_status@@YA?AW4__acrt_fenv_machine_sse_status@@W4__acrt_fenv_abstract_status@@@Z 0000000140040920 f   libucrtd:_fenvutils.obj
 0001:0003f940       ?translate_control_denormal_control_from_sse@@YA?AW4__acrt_fenv_abstract_control@@W4__acrt_fenv_machine_sse_control@@@Z 0000000140040940 f   libucrtd:_fenvutils.obj
 0001:0003f9c0       ?translate_control_denormal_control_to_sse@@YA?AW4__acrt_fenv_machine_sse_control@@W4__acrt_fenv_abstract_control@@@Z 00000001400409c0 f   libucrtd:_fenvutils.obj
 0001:0003fed0       ??$?RV<lambda_53fc7fc888e23d815d7080162c0aeeb2>@@AEAV<lambda_4e7105787b7b0e0227fbf2b2d883fa65>@@V<lambda_8ddc48ad9d26c778cb15812d1d88fc8a>@@@?$__crt_seh_guarded_call@H@@QEAAH$$QEAV<lambda_53fc7fc888e23d815d7080162c0aeeb2>@@AEAV<lambda_4e7105787b7b0e0227fbf2b2d883fa65>@@$$QEAV<lambda_8ddc48ad9d26c778cb15812d1d88fc8a>@@@Z 0000000140040ed0 f   libucrtd:close.obj
 0001:0003ff20       ??$__acrt_lowio_lock_fh_and_call@V<lambda_4e7105787b7b0e0227fbf2b2d883fa65>@@@@YAHH$$QEAV<lambda_4e7105787b7b0e0227fbf2b2d883fa65>@@@Z 0000000140040f20 f   libucrtd:close.obj
 0001:0003ff70       ??R<lambda_4e7105787b7b0e0227fbf2b2d883fa65>@@QEBAHXZ 0000000140040f70 f   libucrtd:close.obj
 0001:00040020       ?close_os_handle_nolock@@YAKH@Z 0000000140041020 f   libucrtd:close.obj
 0001:00040550       $$000000                   0000000140041550     libucrtd:fpsr.obj
 0001:00040600       _log_special_common        0000000140041600 f   libucrtd:log_special.obj
 0001:00040720       _abstract_cw               0000000140041720 f   libucrtd:ieee.obj
 0001:00040870       _abstract_sw               0000000140041870 f   libucrtd:ieee.obj
 0001:00040950       _hw_cw                     0000000140041950 f   libucrtd:ieee.obj
 0001:00040aa0       common_control87           0000000140041aa0 f   libucrtd:ieee.obj
 0001:00040cd0       ?combine_second_surrogate@?A0xc60ee810@@YA_U_SPEAU_Mbstatet@@@Z 0000000140041cd0 f   libucrtd:c16rtomb.obj
 0001:00040cf0       ?has_surrogate@?A0xc60ee810@@YA_NPEAU_Mbstatet@@@Z 0000000140041cf0 f   libucrtd:c16rtomb.obj
 0001:00040d20       ?is_first_surrogate@?A0xc60ee810@@YA_N_S@Z 0000000140041d20 f   libucrtd:c16rtomb.obj
 0001:00040d60       ?is_second_surrogate@?A0xc60ee810@@YA_N_S@Z 0000000140041d60 f   libucrtd:c16rtomb.obj
 0001:00040da0       ?store_first_surrogate@?A0xc60ee810@@YAX_SPEAU_Mbstatet@@@Z 0000000140041da0 f   libucrtd:c16rtomb.obj
 0001:000410e0       $$000000                   00000001400420e0     LIBCMTD:chkstk.obj
 0001:00041220       $$000000                   0000000140042220     libvcruntimed:memcmp.obj
 0001:00041720       $$000000                   0000000140042720     LIBCMTD:guard_dispatch.obj
 0001:00041740       $$000000                   0000000140042740     LIBCMTD:guard_xfg_dispatch.obj
 0001:00041760       ?filt$0@?0??__scrt_common_main_seh@@YAHXZ@4HA 0000000140042760 f   LIBCMTD:exe_winmain.obj
 0001:00041790       __scrt_is_nonwritable_in_current_image$filt$0 0000000140042790 f   LIBCMTD:utility.obj
 0001:000417d0       __DestructExceptionObject$filt$0 00000001400427d0 f   libvcruntimed:ehhelpers.obj
 0001:00041800       ?filt$0@?0???$_CallSETranslator@V__FrameHandler3@@@@YAHPEAUEHExceptionRecord@@PEA_KPEAU_CONTEXT@@PEAU_xDISPATCHER_CONTEXT@@PEBU_s_FuncInfo@@K1H@Z@4HA 0000000140042800 f   libvcruntimed:risctrnsctrl.obj
 0001:00041870       ?filt$0@?0???$BuildCatchObjectHelperInternal@V__FrameHandler3@@@@YAHPEAUEHExceptionRecord@@PEAXPEBU_s_HandlerType@@PEBU_s_CatchableType@@@Z@4HA 0000000140042870 f   libvcruntimed:frame.obj
 0001:00041870       ?filt$0@?0???$BuildCatchObjectInternal@V__FrameHandler3@@@@YAXPEAUEHExceptionRecord@@PEAXPEBU_s_HandlerType@@PEBU_s_CatchableType@@@Z@4HA 0000000140042870 f   libvcruntimed:frame.obj
 0001:00041870       ?filt$0@?0??is_bad_read_pointer@@YA_NQEBX_K@Z@4HA 0000000140042870 f   libucrtd:debug_heap.obj
 0001:00041870       terminate$filt$0           0000000140042870 f   libucrtd:terminate.obj
 0001:00041890       ?filt$0@?0??CxxCallCatchBlock@__FrameHandler3@@SAPEAXPEAU_EXCEPTION_RECORD@@@Z@4HA 0000000140042890 f   libvcruntimed:frame.obj
 0001:000418b9       ?fin$1@?0??CxxCallCatchBlock@__FrameHandler3@@SAPEAXPEAU_EXCEPTION_RECORD@@@Z@4HA 00000001400428b9 f   libvcruntimed:frame.obj
 0001:00041950       ?filt$0@?0??FrameUnwindToState@__FrameHandler3@@SAXPEA_KPEAU_xDISPATCHER_CONTEXT@@PEBU_s_FuncInfo@@H@Z@4HA 0000000140042950 f   libvcruntimed:frame.obj
 0001:00041971       ?fin$1@?0??FrameUnwindToState@__FrameHandler3@@SAXPEA_KPEAU_xDISPATCHER_CONTEXT@@PEBU_s_FuncInfo@@H@Z@4HA 0000000140042971 f   libvcruntimed:frame.obj
 0001:000419b0       ?fin$0@?0???$?RV<lambda_0ae27a3a962d80f24befdcbee591983d>@@AEAV<lambda_8d0ee55de4b1038c4002e0adecdf1839>@@V<lambda_dc504788e8f1664fe9b84e20bfb512f2>@@@?$__crt_seh_guarded_call@X@@QEAAX$$QEAV<lambda_0ae27a3a962d80f24befdcbee591983d>@@AEAV<lambda_8d0ee55de4b1038c4002e0adecdf1839>@@$$QEAV<lambda_dc504788e8f1664fe9b84e20bfb512f2>@@@Z@4HA 00000001400429b0 f   libucrtd:per_thread_data.obj
 0001:000419b0       ?fin$0@?0???$?RV<lambda_2d41944a1d46af3157314b8a01080d33>@@AEAV<lambda_8f455de75cd7d7f24b4096f044d8b9e6>@@V<lambda_aa500f224e6afead328df44964fe2772>@@@?$__crt_seh_guarded_call@X@@QEAAX$$QEAV<lambda_2d41944a1d46af3157314b8a01080d33>@@AEAV<lambda_8f455de75cd7d7f24b4096f044d8b9e6>@@$$QEAV<lambda_aa500f224e6afead328df44964fe2772>@@@Z@4HA 00000001400429b0 f   libucrtd:per_thread_data.obj
 0001:000419b0       ?fin$0@?0???$?RV<lambda_74a0ef281e44d15e1136f792f539efb3>@@AEAV<lambda_e157831efee4ea0afb0a2ace5dd5fd0d>@@V<lambda_04ddeca75b7c13fd67716e8dfcef87ee>@@@?$__crt_seh_guarded_call@X@@QEAAX$$QEAV<lambda_74a0ef281e44d15e1136f792f539efb3>@@AEAV<lambda_e157831efee4ea0afb0a2ace5dd5fd0d>@@$$QEAV<lambda_04ddeca75b7c13fd67716e8dfcef87ee>@@@Z@4HA 00000001400429b0 f   libucrtd:per_thread_data.obj
 0001:000419b0       ?fin$0@?0???$?RV<lambda_aa87e3671a710a21b5dc78c0bdf72e11>@@AEAV<lambda_92619d2358a28f41a33ba319515a20b9>@@V<lambda_6992ecaafeb10aed2b74cb1fae11a551>@@@?$__crt_seh_guarded_call@X@@QEAAX$$QEAV<lambda_aa87e3671a710a21b5dc78c0bdf72e11>@@AEAV<lambda_92619d2358a28f41a33ba319515a20b9>@@$$QEAV<lambda_6992ecaafeb10aed2b74cb1fae11a551>@@@Z@4HA 00000001400429b0 f   libucrtd:per_thread_data.obj
 0001:000419b0       ?fin$0@?0???$?RV<lambda_410d79af7f07d98d83a3f525b3859a53>@@AEAV<lambda_3e16ef9562a7dcce91392c22ab16ea36>@@V<lambda_38119f0e861e05405d8a144b9b982f0a>@@@?$__crt_seh_guarded_call@X@@QEAAX$$QEAV<lambda_410d79af7f07d98d83a3f525b3859a53>@@AEAV<lambda_3e16ef9562a7dcce91392c22ab16ea36>@@$$QEAV<lambda_38119f0e861e05405d8a144b9b982f0a>@@@Z@4HA 00000001400429b0 f   libucrtd:wsetlocale.obj
 0001:000419b0       ?fin$0@?0???$?RV<lambda_efa02eb69bf647d2f7ff0dd6f1103f72>@@AEAV<lambda_bd5a608237428601b7e45fbdc72b1ae8>@@V<lambda_728235dc0fc2b1f82d1fa5b3e7102d8f>@@@?$__crt_seh_guarded_call@X@@QEAAX$$QEAV<lambda_efa02eb69bf647d2f7ff0dd6f1103f72>@@AEAV<lambda_bd5a608237428601b7e45fbdc72b1ae8>@@$$QEAV<lambda_728235dc0fc2b1f82d1fa5b3e7102d8f>@@@Z@4HA 00000001400429b0 f   libucrtd:mbctype.obj
 0001:000419b0       ?fin$0@?0???$?RV<lambda_d80eeec6fff315bfe5c115232f3240e3>@@AEAV<lambda_6e4b09c48022b2350581041d5f6b0c4c>@@V<lambda_2358e3775559c9db80273638284d5e45>@@@?$__crt_seh_guarded_call@X@@QEAAX$$QEAV<lambda_d80eeec6fff315bfe5c115232f3240e3>@@AEAV<lambda_6e4b09c48022b2350581041d5f6b0c4c>@@$$QEAV<lambda_2358e3775559c9db80273638284d5e45>@@@Z@4HA 00000001400429b0 f   libucrtd:exit.obj
 0001:000419b0       ?fin$0@?0???$?RV<lambda_886d6c58226a84441f68b9f2b8217b83>@@AEAV<lambda_ab61a845afdef5b7c387490eaf3616ee>@@V<lambda_f7f22ab5edc0698d5f6905b0d3f44752>@@@?$__crt_seh_guarded_call@X@@QEAAX$$QEAV<lambda_886d6c58226a84441f68b9f2b8217b83>@@AEAV<lambda_ab61a845afdef5b7c387490eaf3616ee>@@$$QEAV<lambda_f7f22ab5edc0698d5f6905b0d3f44752>@@@Z@4HA 00000001400429b0 f   libucrtd:fflush.obj
 0001:000419d0       ?filt$0@?0???R<lambda_6e4b09c48022b2350581041d5f6b0c4c>@@QEBA@XZ@4HA 00000001400429d0 f   libucrtd:exit.obj
 0001:00041a00       ?fin$0@?0???$?RV<lambda_450d765d439847d4c735a33c368b5fc0>@@AEAV<lambda_44731a7d0e6d81c3e6aa82d741081786>@@V<lambda_601a2a7da3b7a96e9554ac7215c4b07c>@@@?$__crt_seh_guarded_call@P6AXH@Z@@QEAAP6AXH@Z$$QEAV<lambda_450d765d439847d4c735a33c368b5fc0>@@AEAV<lambda_44731a7d0e6d81c3e6aa82d741081786>@@$$QEAV<lambda_601a2a7da3b7a96e9554ac7215c4b07c>@@@Z@4HA 0000000140042a00 f   libucrtd:signal.obj
 0001:00041a00       ?fin$0@?0???$?RV<lambda_6a47f4c8fd0152770a780fc1d70204eb>@@AEAV<lambda_d121dba8a4adeaf3a9819e48611155df>@@V<lambda_6aaa2265f5b6a89667e7d7630012e97a>@@@?$__crt_seh_guarded_call@H@@QEAAH$$QEAV<lambda_6a47f4c8fd0152770a780fc1d70204eb>@@AEAV<lambda_d121dba8a4adeaf3a9819e48611155df>@@$$QEAV<lambda_6aaa2265f5b6a89667e7d7630012e97a>@@@Z@4HA 0000000140042a00 f   libucrtd:onexit.obj
 0001:00041a00       ?fin$0@?0???$?RV<lambda_dce957679fd779aa27c4ca5c39e09098>@@AEAV<lambda_3b83eb014488ad801d84acef5aaf14d3>@@V<lambda_00e911965883f7966597d4c465c83ebc>@@@?$__crt_seh_guarded_call@H@@QEAAH$$QEAV<lambda_dce957679fd779aa27c4ca5c39e09098>@@AEAV<lambda_3b83eb014488ad801d84acef5aaf14d3>@@$$QEAV<lambda_00e911965883f7966597d4c465c83ebc>@@@Z@4HA 0000000140042a00 f   libucrtd:onexit.obj
 0001:00041a20       ?dtor$0@?0???R<lambda_d121dba8a4adeaf3a9819e48611155df>@@QEBAHXZ@4HA 0000000140042a20 f   libucrtd:onexit.obj
 0001:00041a40       ?fin$0@?0??heap_alloc_dbg_internal@@YAPEAX_KHQEBDH@Z@4HA 0000000140042a40 f   libucrtd:debug_heap.obj
 0001:00041a40       _CrtMemCheckpoint$fin$0    0000000140042a40 f   libucrtd:debug_heap.obj
 0001:00041a60       ?fin$0@?0??validate_heap_if_required_nolock@@YAXXZ@4HA 0000000140042a60 f   libucrtd:debug_heap.obj
 0001:00041a80       _CrtCheckMemory$fin$0      0000000140042a80 f   libucrtd:debug_heap.obj
 0001:00041a80       _CrtMemDumpAllObjectsSince$fin$0 0000000140042a80 f   libucrtd:debug_heap.obj
 0001:00041a80       _CrtSetDbgFlag$fin$0       0000000140042a80 f   libucrtd:debug_heap.obj
 0001:00041a80       _msize_dbg$fin$0           0000000140042a80 f   libucrtd:debug_heap.obj
 0001:00041a80       _realloc_dbg$fin$0         0000000140042a80 f   libucrtd:debug_heap.obj
 0001:00041aa0       _free_dbg$fin$0            0000000140042aa0 f   libucrtd:debug_heap.obj
 0001:00041aa0       _query_new_handler$fin$0   0000000140042aa0 f   libucrtd:new_handler.obj
 0001:00041ac0       ?fin$0@?0???$?RV<lambda_c376a267cfb53b6959b3b692ec76b120>@@AEAV<lambda_9a32fed5bf61b6b509b2d3f6003082a1>@@V<lambda_572fbb9fa0ab338edf41edfd4b5fcc8d>@@@?$__crt_seh_guarded_call@H@@QEAAH$$QEAV<lambda_c376a267cfb53b6959b3b692ec76b120>@@AEAV<lambda_9a32fed5bf61b6b509b2d3f6003082a1>@@$$QEAV<lambda_572fbb9fa0ab338edf41edfd4b5fcc8d>@@@Z@4HA 0000000140042ac0 f   libucrtd:fflush.obj
 0001:00041ac0       ?fin$0@?0???$?RV<lambda_676bd5779251ec186b530f0a904b4b35>@@AEAV<lambda_b579ea784fd840951dfbcbdaebf709fd>@@V<lambda_10027885da78ada7fb00668d7e2e96b5>@@@?$__crt_seh_guarded_call@H@@QEAAH$$QEAV<lambda_676bd5779251ec186b530f0a904b4b35>@@AEAV<lambda_b579ea784fd840951dfbcbdaebf709fd>@@$$QEAV<lambda_10027885da78ada7fb00668d7e2e96b5>@@@Z@4HA 0000000140042ac0 f   libucrtd:output.obj
 0001:00041ac0       ?fin$0@?0???$?RV<lambda_ee69b802af549e3a94c3585db2bd6467>@@AEAV<lambda_7d656854fecfa268884b8692ea29008b>@@V<lambda_05f0559a8855835fc49fa2f838446407>@@@?$__crt_seh_guarded_call@H@@QEAAH$$QEAV<lambda_ee69b802af549e3a94c3585db2bd6467>@@AEAV<lambda_7d656854fecfa268884b8692ea29008b>@@$$QEAV<lambda_05f0559a8855835fc49fa2f838446407>@@@Z@4HA 0000000140042ac0 f   libucrtd:setvbuf.obj
 0001:00041ae0       ?fin$0@?0???$?RV<lambda_842d9ff0dc9ef11c61343bbaebe7f885>@@AEAV<lambda_c5860995281e5c4ce005b3de8f5874ee>@@V<lambda_d90129c13df834fdcbf8d2b88dafcf2d>@@@?$__crt_seh_guarded_call@X@@QEAAX$$QEAV<lambda_842d9ff0dc9ef11c61343bbaebe7f885>@@AEAV<lambda_c5860995281e5c4ce005b3de8f5874ee>@@$$QEAV<lambda_d90129c13df834fdcbf8d2b88dafcf2d>@@@Z@4HA 0000000140042ae0 f   libucrtd:fflush.obj
 0001:00041b00       raise$fin$0                0000000140042b00 f   libucrtd:signal.obj
 0001:00041b30       ?fin$0@?0??update_thread_multibyte_data_internal@@YAPEAU__crt_multibyte_data@@QEAU__acrt_ptd@@QEAPEAU1@@Z@4HA 0000000140042b30 f   libucrtd:mbctype.obj
 0001:00041b50       __acrt_lowio_ensure_fh_exists$fin$0 0000000140042b50 f   libucrtd:osfinfo.obj
 0001:00041b70       __acrt_initialize_lowio$fin$0 0000000140042b70 f   libucrtd:ioinit.obj
 0001:00041b90       __acrt_update_thread_locale_data$fin$0 0000000140042b90 f   libucrtd:locale_refcounting.obj
 0001:00041bb0       ?dtor$0@?0??fp_format_a@@YAHQEBNPEAD_KQEAD2H_NIQEAU__crt_locale_pointers@@W4__acrt_rounding_mode@@@Z@4HA 0000000140042bb0 f   libucrtd:cvt.obj
 0001:00041bd0       _VCrtDbgReportA$fin$0      0000000140042bd0 f   libucrtd:dbgrptt.obj
 0001:00041beb       _VCrtDbgReportA$fin$1      0000000140042beb f   libucrtd:dbgrptt.obj
 0001:00041c10       _VCrtDbgReportW$fin$0      0000000140042c10 f   libucrtd:dbgrptt.obj
 0001:00041c2b       _VCrtDbgReportW$fin$1      0000000140042c2b f   libucrtd:dbgrptt.obj
 0001:00041c50       _fcloseall$fin$0           0000000140042c50 f   libucrtd:closeall.obj
 0001:00041c70       ?fin$0@?0???$?RV<lambda_53fc7fc888e23d815d7080162c0aeeb2>@@AEAV<lambda_4e7105787b7b0e0227fbf2b2d883fa65>@@V<lambda_8ddc48ad9d26c778cb15812d1d88fc8a>@@@?$__crt_seh_guarded_call@H@@QEAAH$$QEAV<lambda_53fc7fc888e23d815d7080162c0aeeb2>@@AEAV<lambda_4e7105787b7b0e0227fbf2b2d883fa65>@@$$QEAV<lambda_8ddc48ad9d26c778cb15812d1d88fc8a>@@@Z@4HA 0000000140042c70 f   libucrtd:close.obj
 0001:00041c70       ?fin$0@?0???$?RV<lambda_4e3dbe6921bc0b5a1a6bc6573fdc859e>@@AEAV<lambda_5533cddd4bda0037814beee657757329>@@V<lambda_47cffbaa968af5c721c38a4a6f8da44d>@@@?$__crt_seh_guarded_call@H@@QEAAH$$QEAV<lambda_4e3dbe6921bc0b5a1a6bc6573fdc859e>@@AEAV<lambda_5533cddd4bda0037814beee657757329>@@$$QEAV<lambda_47cffbaa968af5c721c38a4a6f8da44d>@@@Z@4HA 0000000140042c70 f   libucrtd:commit.obj
 0001:00041c90       ?fin$0@?0???$common_lseek@_J@@YA_JH_JH@Z@4HA 0000000140042c90 f   libucrtd:lseek.obj
 0001:00041c90       _write$fin$0               0000000140042c90 f   libucrtd:write.obj
 0001:00041cb0       ?dtor$0@?0??shortsort@@YAXPEAD0_KP6AHPEBX2@Z@Z@4HA 0000000140042cb0 f   libucrtd:qsort.obj
 0001:00041cd0       ?dtor$0@?0??_wcstombs_l_helper@@YA_KPEADPEB_W_KPEAU__crt_locale_pointers@@@Z@4HA 0000000140042cd0 f   libucrtd:wcstombs.obj
 0001:00041cf0       fclose$fin$0               0000000140042cf0 f   libucrtd:fclose.obj
 0001:00041d20       _ctrlfp$filt$0             0000000140042d20 f   libucrtd:fpctrl.obj
 0001:00041d70       common_control87$filt$0    0000000140042d70 f   libucrtd:ieee.obj
 0001:00041dc0       _IsNonwritableInCurrentImage$filt$0 0000000140042dc0 f   LIBCMTD:pesect.obj
 0002:00000318       ?pre_cpp_initializer@@3P6AXXZEA 0000000140043318     LIBCMTD:exe_winmain.obj
 0002:00000330       ?pre_c_initializer@@3P6AHXZEA 0000000140043330     LIBCMTD:exe_winmain.obj
 0002:00000338       ?post_pgo_initializer@@3P6AHXZEA 0000000140043338     LIBCMTD:exe_winmain.obj
 0002:000003a0       $SG79777                   00000001400433a0     win32.obj
 0002:00000400       $SG79779                   0000000140043400     win32.obj
 0002:00000464       $SG80847                   0000000140043464     win32.obj
 0002:00000468       $SG80849                   0000000140043468     win32.obj
 0002:00000490       $SG80848                   0000000140043490     win32.obj
 0002:000004ec       $SG80866                   00000001400434ec     win32.obj
 0002:000004f4       $SG80875                   00000001400434f4     win32.obj
 0002:000004f8       $SG80867                   00000001400434f8     win32.obj
 0002:00000500       $SG80871                   0000000140043500     win32.obj
 0002:0000052c       $SG80900                   000000014004352c     win32.obj
 0002:00000534       $SG80909                   0000000140043534     win32.obj
 0002:00000538       $SG80873                   0000000140043538     win32.obj
 0002:00000550       $SG80874                   0000000140043550     win32.obj
 0002:000005b0       $SG80876                   00000001400435b0     win32.obj
 0002:0000060c       $SG81178                   000000014004360c     win32.obj
 0002:00000614       $SG81198                   0000000140043614     win32.obj
 0002:00000618       $SG80877                   0000000140043618     win32.obj
 0002:00000640       $SG80901                   0000000140043640     win32.obj
 0002:00000648       $SG80905                   0000000140043648     win32.obj
 0002:00000674       $SG81188                   0000000140043674     win32.obj
 0002:00000680       $SG80907                   0000000140043680     win32.obj
 0002:00000698       $SG80911                   0000000140043698     win32.obj
 0002:000006c0       $SG80908                   00000001400436c0     win32.obj
 0002:00000720       $SG80910                   0000000140043720     win32.obj
 0002:00000780       $SG81148                   0000000140043780     win32.obj
 0002:000007a0       $SG81150                   00000001400437a0     win32.obj
 0002:000007b0       $SG81151                   00000001400437b0     win32.obj
 0002:000007c8       $SG81152                   00000001400437c8     win32.obj
 0002:000007e0       $SG81154                   00000001400437e0     win32.obj
 0002:000007f0       $SG81155                   00000001400437f0     win32.obj
 0002:00000808       $SG81157                   0000000140043808     win32.obj
 0002:00000818       $SG81158                   0000000140043818     win32.obj
 0002:00000838       $SG81160                   0000000140043838     win32.obj
 0002:00000860       $SG81159                   0000000140043860     win32.obj
 0002:000008c0       $SG81161                   00000001400438c0     win32.obj
 0002:00000920       $SG81162                   0000000140043920     win32.obj
 0002:00000948       $SG81166                   0000000140043948     win32.obj
 0002:00000970       $SG81165                   0000000140043970     win32.obj
 0002:000009d0       $SG81167                   00000001400439d0     win32.obj
 0002:00000a30       $SG81168                   0000000140043a30     win32.obj
 0002:00000a58       $SG81169                   0000000140043a58     win32.obj
 0002:00000a70       $SG81170                   0000000140043a70     win32.obj
 0002:00000ad0       $SG81171                   0000000140043ad0     win32.obj
 0002:00000af8       $SG81173                   0000000140043af8     win32.obj
 0002:00000b20       $SG81172                   0000000140043b20     win32.obj
 0002:00000b80       $SG81174                   0000000140043b80     win32.obj
 0002:00000be0       $SG81175                   0000000140043be0     win32.obj
 0002:00000c08       $SG81177                   0000000140043c08     win32.obj
 0002:00000c30       $SG81176                   0000000140043c30     win32.obj
 0002:00000c90       $SG81179                   0000000140043c90     win32.obj
 0002:00000c98       $SG81183                   0000000140043c98     win32.obj
 0002:00000cc8       $SG81185                   0000000140043cc8     win32.obj
 0002:00000ce0       $SG81186                   0000000140043ce0     win32.obj
 0002:00000d40       $SG81187                   0000000140043d40     win32.obj
 0002:00000d68       $SG81189                   0000000140043d68     win32.obj
 0002:00000d70       $SG81193                   0000000140043d70     win32.obj
 0002:00000da0       $SG81195                   0000000140043da0     win32.obj
 0002:00000db8       $SG81197                   0000000140043db8     win32.obj
 0002:00000de0       $SG81196                   0000000140043de0     win32.obj
 0002:00000e40       $SG81199                   0000000140043e40     win32.obj
 0002:00000ea0       $SG81200                   0000000140043ea0     win32.obj
 0002:00000ec8       $SG81202                   0000000140043ec8     win32.obj
 0002:00000ef0       $SG81201                   0000000140043ef0     win32.obj
 0002:00000f50       $SG81203                   0000000140043f50     win32.obj
 0002:00000fb0       $SG81204                   0000000140043fb0     win32.obj
 0002:00000fd8       $SG81206                   0000000140043fd8     win32.obj
 0002:00001000       $SG81205                   0000000140044000     win32.obj
 0002:00001060       $SG81207                   0000000140044060     win32.obj
 0002:000010c0       $SG81208                   00000001400440c0     win32.obj
 0002:000010f0       $SG81212                   00000001400440f0     win32.obj
 0002:00001150       $SG81213                   0000000140044150     win32.obj
 0002:00001170       $SG81214                   0000000140044170     win32.obj
 0002:000011d0       $SG81215                   00000001400441d0     win32.obj
 0002:000011f0       $SG81216                   00000001400441f0     win32.obj
 0002:00001250       $SG81217                   0000000140044250     win32.obj
 0002:00001318       GS_ExceptionPointers       0000000140044318     LIBCMTD:gs_report.obj
 0002:00001380       ?tokenTable@@3QBUStringLiteral@@B 0000000140044380     libvcruntimed:undname.obj
 0002:00001480       ?nameTable@@3QBUStringLiteral@@B 0000000140044480     libvcruntimed:undname.obj
 0002:000019b0       ?rttiTable@@3QBUStringLiteral@@B 00000001400449b0     libvcruntimed:undname.obj
 0002:00001a00       ?IndirectionName@@3QBUStringLiteral@@B 0000000140044a00     libvcruntimed:undname.obj
 0002:00001a60       ?PrefixName@@3QBUStringLiteral@@B 0000000140044a60     libvcruntimed:undname.obj
 0002:00002140       ?module_names@?A0x810d92d5@@3QBQEB_WB 0000000140045140     libvcruntimed:winapi_downlevel.obj
 0002:000023c0       ?candidate_modules@?1??try_get_FlsAlloc@@YAP6AKP6AXPEAX@Z@ZXZ@4QBW4module_id@?A0x810d92d5@@B 00000001400453c0     libvcruntimed:winapi_downlevel.obj
 0002:000023d8       ?candidate_modules@?1??try_get_FlsFree@@YAP6AHK@ZXZ@4QBW4module_id@?A0x810d92d5@@B 00000001400453d8     libvcruntimed:winapi_downlevel.obj
 0002:000023e8       ?candidate_modules@?1??try_get_FlsGetValue@@YAP6APEAXK@ZXZ@4QBW4module_id@?A0x810d92d5@@B 00000001400453e8     libvcruntimed:winapi_downlevel.obj
 0002:00002400       ?candidate_modules@?1??try_get_FlsSetValue@@YAP6AHKPEAX@ZXZ@4QBW4module_id@?A0x810d92d5@@B 0000000140045400     libvcruntimed:winapi_downlevel.obj
 0002:00002418       ?candidate_modules@?1??try_get_InitializeCriticalSectionEx@@YAP6AHPEAU_RTL_CRITICAL_SECTION@@KK@ZXZ@4QBW4module_id@?A0x810d92d5@@B 0000000140045418     libvcruntimed:winapi_downlevel.obj
 0002:00002440       ?ExceptionTemplate@?1??UnwindNestedFrames@__FrameHandler3@@SAXPEA_KPEAUEHExceptionRecord@@PEAU_CONTEXT@@0PEAXPEBU_s_FuncInfo@@HHPEBU_s_HandlerType@@PEAU_xDISPATCHER_CONTEXT@@E@Z@4U_EXCEPTION_RECORD@@B 0000000140045440     libvcruntimed:risctrnsctrl.obj
 0002:00003a80       L_signbit                  0000000140046a80     libucrtd:sinf.obj
 0002:00003a90       L_sign_mask                0000000140046a90     libucrtd:sinf.obj
 0002:00003aa0       L_one                      0000000140046aa0     libucrtd:sinf.obj
 0002:00003ab0       L_int_three                0000000140046ab0     libucrtd:sinf.obj
 0002:00003ac0       L_one_half                 0000000140046ac0     libucrtd:sinf.obj
 0002:00003ad0       L_twobypi                  0000000140046ad0     libucrtd:sinf.obj
 0002:00003ae0       L_piby2_1                  0000000140046ae0     libucrtd:sinf.obj
 0002:00003af0       L_one_sixth                0000000140046af0     libucrtd:sinf.obj
 0002:00003b00       L_piby2_1tail              0000000140046b00     libucrtd:sinf.obj
 0002:00003b10       L_piby2_2                  0000000140046b10     libucrtd:sinf.obj
 0002:00003b20       L_piby2_2tail              0000000140046b20     libucrtd:sinf.obj
 0002:00003b30       L_inf_mask_32              0000000140046b30     libucrtd:sinf.obj
 0002:00003b40       L_int_two                  0000000140046b40     libucrtd:sinf.obj
 0002:00003b50       L_piby2_lead               0000000140046b50     libucrtd:sinf.obj
 0002:00003b60       L_piby4                    0000000140046b60     libucrtd:sinf.obj
 0002:00003b70       L_mask_3f2                 0000000140046b70     libucrtd:sinf.obj
 0002:00003b80       L_mask_3f8                 0000000140046b80     libucrtd:sinf.obj
 0002:00003b90       L_large_x_fma3             0000000140046b90     libucrtd:sinf.obj
 0002:00003b98       L_large_x_sse2             0000000140046b98     libucrtd:sinf.obj
 0002:00003ba0       L_near_one                 0000000140046ba0     libucrtd:sinf.obj
 0002:00003ba8       L_two_to_32                0000000140046ba8     libucrtd:sinf.obj
 0002:00004768       $cppxdata$??R<lambda_d121dba8a4adeaf3a9819e48611155df>@@QEBAHXZ 0000000140047768     libucrtd:onexit.obj
 0002:000047d0       __acrt_initializers        00000001400477d0     libucrtd:initialization.obj
 0002:000048d0       ?block_use_names@@3QBQEBDB 00000001400478d0     libucrtd:debug_heap.obj
 0002:00009238       ?report_type_messages@@3QBQEB_WB 000000014004c238     libucrtd:dbgrpt.obj
 0002:00009298       ?more_info_string@@3QEB_WEB 000000014004c298     libucrtd:dbgrpt.obj
 0002:0000958e       ?empty_string@?1???$common_message_window@D@@YAHHQEAXQEBD111@Z@4QBDB 000000014004c58e     libucrtd:dbgrpt.obj
 0002:000096f8       ?empty_string@?1???$common_message_window@_W@@YAHHQEAXQEB_W111@Z@4QB_WB 000000014004c6f8     libucrtd:dbgrpt.obj
 0002:00009a20       ?errtable@@3QBUerrentry@?A0x31fdb9ec@@B 000000014004ca20     libucrtd:errno.obj
 0002:00009f28       $cppxdata$??1?$__crt_win32_buffer@DU__crt_win32_buffer_no_resizing@@@@QEAA@XZ 000000014004cf28     libucrtd:getmodulefilenamea.obj
 0002:0000a350       L__piby2                   000000014004d350     libucrtd:remainder_piby2f_forc.obj
 0002:0000a360       L__2_by_pi_bits            000000014004d360     libucrtd:remainder_piby2f_forc.obj
 0002:0000a470       $cppxdata$??1?$__crt_win32_buffer@DU__crt_win32_buffer_internal_dynamic_resizing@@@@QEAA@XZ 000000014004d470     libucrtd:argv_wildcards.obj
 0002:0000a470       $cppxdata$??1?$__crt_win32_buffer@_WU__crt_win32_buffer_internal_dynamic_resizing@@@@QEAA@XZ 000000014004d470     libucrtd:argv_wildcards.obj
 0002:0000a888       ?_mb_locale_names@@3QBQEB_WB 000000014004d888     libucrtd:mbctype.obj
 0002:0000be80       ?module_names@?A0x391cf84c@@3QBQEB_WB 000000014004ee80     libucrtd:winapi_thunks.obj
 0002:0000c404       ?candidate_modules@?1??try_get_AreFileApisANSI@@YAP6AHXZXZ@4QBW4module_id@?A0x391cf84c@@B 000000014004f404     libucrtd:winapi_thunks.obj
 0002:0000c418       ?candidate_modules@?1??try_get_FlsAlloc@@YAP6AKP6AXPEAX@Z@ZXZ@4QBW4module_id@?A0x391cf84c@@B 000000014004f418     libucrtd:winapi_thunks.obj
 0002:0000c420       ?candidate_modules@?1??try_get_FlsFree@@YAP6AHK@ZXZ@4QBW4module_id@?A0x391cf84c@@B 000000014004f420     libucrtd:winapi_thunks.obj
 0002:0000c428       ?candidate_modules@?1??try_get_FlsGetValue@@YAP6APEAXK@ZXZ@4QBW4module_id@?A0x391cf84c@@B 000000014004f428     libucrtd:winapi_thunks.obj
 0002:0000c430       ?candidate_modules@?1??try_get_FlsSetValue@@YAP6AHKPEAX@ZXZ@4QBW4module_id@?A0x391cf84c@@B 000000014004f430     libucrtd:winapi_thunks.obj
 0002:0000c438       ?candidate_modules@?1??try_get_GetActiveWindow@@YAP6APEAUHWND__@@XZXZ@4QBW4module_id@?A0x391cf84c@@B 000000014004f438     libucrtd:winapi_thunks.obj
 0002:0000c450       ?candidate_modules@?1??try_get_GetLastActivePopup@@YAP6APEAUHWND__@@PEAU2@@ZXZ@4QBW4module_id@?A0x391cf84c@@B 000000014004f450     libucrtd:winapi_thunks.obj
 0002:0000c470       ?candidate_modules@?1??try_get_GetProcessWindowStation@@YAP6APEAUHWINSTA__@@XZXZ@4QBW4module_id@?A0x391cf84c@@B 000000014004f470     libucrtd:winapi_thunks.obj
 0002:0000c490       ?candidate_modules@?1??try_get_GetUserObjectInformationW@@YAP6AHPEAXH0KPEAK@ZXZ@4QBW4module_id@?A0x391cf84c@@B 000000014004f490     libucrtd:winapi_thunks.obj
 0002:0000c4b8       ?candidate_modules@?1??try_get_InitializeCriticalSectionEx@@YAP6AHPEAU_RTL_CRITICAL_SECTION@@KK@ZXZ@4QBW4module_id@?A0x391cf84c@@B 000000014004f4b8     libucrtd:winapi_thunks.obj
 0002:0000c4c0       ?candidate_modules@?1??try_get_LCMapStringEx@@YAP6AHPEB_WK0HPEA_WHPEAU_nlsversioninfo@@PEAX_J@ZXZ@4QBW4module_id@?A0x391cf84c@@B 000000014004f4c0     libucrtd:winapi_thunks.obj
 0002:0000c4d8       ?candidate_modules@?1??try_get_LocaleNameToLCID@@YAP6AKPEB_WK@ZXZ@4QBW4module_id@?A0x391cf84c@@B 000000014004f4d8     libucrtd:winapi_thunks.obj
 0002:0000c4f8       ?candidate_modules@?1??try_get_MessageBoxA@@YAP6AHPEAUHWND__@@PEBD1I@ZXZ@4QBW4module_id@?A0x391cf84c@@B 000000014004f4f8     libucrtd:winapi_thunks.obj
 0002:0000c510       ?candidate_modules@?1??try_get_MessageBoxW@@YAP6AHPEAUHWND__@@PEB_W1I@ZXZ@4QBW4module_id@?A0x391cf84c@@B 000000014004f510     libucrtd:winapi_thunks.obj
 0002:0000c524       ?candidate_modules@?1??try_get_AppPolicyGetProcessTerminationMethod@@YAP6AJPEAXPEAW4AppPolicyProcessTerminationMethod@@@ZXZ@4QBW4module_id@?A0x391cf84c@@B 000000014004f524     libucrtd:winapi_thunks.obj
 0002:0000c550       ?candidate_modules@?1??try_get_AppPolicyGetShowDeveloperDiagnostic@@YAP6AJPEAXPEAW4AppPolicyShowDeveloperDiagnostic@@@ZXZ@4QBW4module_id@?A0x391cf84c@@B 000000014004f550     libucrtd:winapi_thunks.obj
 0002:0000c57c       ?candidate_modules@?1??try_get_AppPolicyGetWindowingModel@@YAP6AJPEAXPEAW4AppPolicyWindowingModel@@@ZXZ@4QBW4module_id@?A0x391cf84c@@B 000000014004f57c     libucrtd:winapi_thunks.obj
 0002:0000cb50       $cppxdata$?fp_format_a@@YAHQEBNPEAD_KQEAD2H_NIQEAU__crt_locale_pointers@@W4__acrt_rounding_mode@@@Z 000000014004fb50     libucrtd:cvt.obj
 0002:0000cb80       ?strings@?1??fp_format_nan_or_infinity@@YAHW4__acrt_fp_class@@_NPEAD_K1@Z@4QAY03QEBDA 000000014004fb80     libucrtd:cvt.obj
 0002:0000e270       $cppxdata$?shortsort@@YAXPEAD0_KP6AHPEBX2@Z@Z 0000000140051270     libucrtd:qsort.obj
 0002:0000e490       ?LcidToLocaleNameTable@?A0x881e4c05@@3QBULcidToLocaleName@1@B 0000000140051490     libucrtd:lcidtoname_downlevel.obj
 0002:0000fee0       ?LocaleNameToIndexTable@?A0x881e4c05@@3QBULocaleNameIndex@1@B 0000000140052ee0     libucrtd:lcidtoname_downlevel.obj
 0002:00012ba0       $cppxdata$?_wcstombs_l_helper@@YA_KPEADPEB_W_KPEAU__crt_locale_pointers@@@Z 0000000140055ba0     libucrtd:wcstombs.obj
 0002:00012ed0       __real_ninf                0000000140055ed0     libucrtd:log10.obj
 0002:00012ee0       __real_inf                 0000000140055ee0     libucrtd:log10.obj
 0002:00012ef0       __real_neg_qnan            0000000140055ef0     libucrtd:log10.obj
 0002:00012f00       __real_qnanbit             0000000140055f00     libucrtd:log10.obj
 0002:00012f10       __int_1023                 0000000140055f10     libucrtd:log10.obj
 0002:00012f20       __mask_001                 0000000140055f20     libucrtd:log10.obj
 0002:00012f30       __mask_mant                0000000140055f30     libucrtd:log10.obj
 0002:00012f40       __mask_mant_top8           0000000140055f40     libucrtd:log10.obj
 0002:00012f50       __mask_mant9               0000000140055f50     libucrtd:log10.obj
 0002:00012f60       __real_log10_e             0000000140055f60     libucrtd:log10.obj
 0002:00012f70       __real_log10_e_lead        0000000140055f70     libucrtd:log10.obj
 0002:00012f80       __real_log10_e_tail        0000000140055f80     libucrtd:log10.obj
 0002:00012f90       __real_log10_2_lead        0000000140055f90     libucrtd:log10.obj
 0002:00012fa0       __real_log10_2_tail        0000000140055fa0     libucrtd:log10.obj
 0002:00012fb0       __real_two                 0000000140055fb0     libucrtd:log10.obj
 0002:00012fc0       __real_one                 0000000140055fc0     libucrtd:log10.obj
 0002:00012fd0       __real_half                0000000140055fd0     libucrtd:log10.obj
 0002:00012fe0       __mask_100                 0000000140055fe0     libucrtd:log10.obj
 0002:00012ff0       __real_1_over_512          0000000140055ff0     libucrtd:log10.obj
 0002:00013000       __real_1_over_2            0000000140056000     libucrtd:log10.obj
 0002:00013010       __real_1_over_3            0000000140056010     libucrtd:log10.obj
 0002:00013020       __real_1_over_4            0000000140056020     libucrtd:log10.obj
 0002:00013030       __real_1_over_5            0000000140056030     libucrtd:log10.obj
 0002:00013040       __real_1_over_6            0000000140056040     libucrtd:log10.obj
 0002:00013050       __real_neg_1023            0000000140056050     libucrtd:log10.obj
 0002:00013060       __mask_2045                0000000140056060     libucrtd:log10.obj
 0002:00013070       __real_threshold           0000000140056070     libucrtd:log10.obj
 0002:00013080       __real_near_one_lt         0000000140056080     libucrtd:log10.obj
 0002:00013090       __real_near_one_gt         0000000140056090     libucrtd:log10.obj
 0002:000130a0       __real_min_norm            00000001400560a0     libucrtd:log10.obj
 0002:000130b0       __real_notsign             00000001400560b0     libucrtd:log10.obj
 0002:000130c0       __real_ca1                 00000001400560c0     libucrtd:log10.obj
 0002:000130d0       __real_ca2                 00000001400560d0     libucrtd:log10.obj
 0002:000130e0       __real_ca3                 00000001400560e0     libucrtd:log10.obj
 0002:000130f0       __real_ca4                 00000001400560f0     libucrtd:log10.obj
 0002:00013100       __mask_lower               0000000140056100     libucrtd:log10.obj
 0002:00013110       __flag_x_zero              0000000140056110     libucrtd:log10.obj
 0002:00013114       __flag_x_neg               0000000140056114     libucrtd:log10.obj
 0002:00013118       __flag_x_nan               0000000140056118     libucrtd:log10.obj
 0002:00013300       __real@433fffffffffffff    0000000140056300     libucrtd:fpsr.obj
 0002:00013308       __real@c33fffffffffffff    0000000140056308     libucrtd:fpsr.obj
 0002:000152d0       $unwind$WinMain            00000001400582d0     win32.obj
 0002:000152e4       $unwind$?CreateInputLayout@@YAXPEAUd3d_state@@PEAUID3D10Blob@@W4V_SHADER@@@Z 00000001400582e4     win32.obj
 0002:000152ec       $unwind$?CreateVertexShader@@YAPEAUID3D10Blob@@PEAUd3d_state@@W4V_SHADER@@PEB_W@Z 00000001400582ec     win32.obj
 0002:000152f4       $unwind$?InitVertexShaderAndInputLayout@@YAXPEAUd3d_state@@W4V_SHADER@@PEB_W@Z 00000001400582f4     win32.obj
 0002:000152fc       $unwind$?InitPixelShader@@YAXPEAUd3d_state@@W4P_SHADER@@PEB_W@Z 00000001400582fc     win32.obj
 0002:00015304       $unwind$?WindowProc@@YA_JPEAUHWND__@@I_K_J@Z 0000000140058304     win32.obj
 0002:0001530c       $unwind$HRESULT_FROM_WIN32 000000014005830c     win32.obj
 0002:0001530c       $unwind$__ascii_iswalpha   000000014005830c     libucrtd:atox.obj
 0002:0001530c       $unwind$?bit_scan_reverse@__crt_strtox@@YAII@Z 000000014005830c     libucrtd:cfout.obj
 0002:0001530c       $unwind$?count_sequential_high_zeroes@__crt_strtox@@YAII@Z 000000014005830c     libucrtd:cfout.obj
 0002:0001530c       $unwind$?is_block_type_valid@@YA_NH@Z 000000014005830c     libucrtd:debug_heap.obj
 0002:0001530c       $unwind$?appmodel_policy_to_policy_type@windowing_model_policy_properties@?1??__acrt_get_windowing_model_policy@@YA?AW4windowing_model_policy@@XZ@SA?AW43@J@Z 000000014005830c     libucrtd:win_policies.obj
 0002:0001530c       $unwind$?get_std_handle_id@@YAKH@Z 000000014005830c     libucrtd:ioinit.obj
 0002:0001530c       $unwind$?CPtoLocaleName@@YAPEB_WH@Z 000000014005830c     libucrtd:mbctype.obj
 0002:0001530c       $unwind$__acrt_errno_from_os_error 000000014005830c     libucrtd:errno.obj
 0002:0001530c       $unwind$?is_stream_allocated@@YA_NJ@Z 000000014005830c     libucrtd:fflush.obj
 0002:0001530c       $unwind$?to_integer_size@__crt_stdio_output@@YA_KW4length_modifier@1@@Z 000000014005830c     libucrtd:output.obj
 0002:0001530c       $unwind$_abstract_cw       000000014005830c     libucrtd:ieee.obj
 0002:0001530c       $unwind$_abstract_sw       000000014005830c     libucrtd:ieee.obj
 0002:0001530c       $unwind$_hw_cw             000000014005830c     libucrtd:ieee.obj
 0002:00015314       $unwind$__GSHandlerCheckCommon 0000000140058314     LIBCMTD:gshandler.obj
 0002:00015314       $unwind$??$common_assert_to_stderr@_W@@YAXQEB_W0I@Z 0000000140058314     libucrtd:assert.obj
 0002:00015314       $unwind$__ascii_wcsnicmp   0000000140058314     libucrtd:wcsnicmp.obj
 0002:0001531c       $unwind$__GSHandlerCheck   000000014005831c     LIBCMTD:gshandler.obj
 0002:0001531c       $unwind$?BuildCatchObject@__FrameHandler3@@SAXPEAUEHExceptionRecord@@PEAXPEBU_s_HandlerType@@PEBU_s_CatchableType@@@Z 000000014005831c     libvcruntimed:frame.obj
 0002:0001531c       $unwind$?shift_bytes@@YAXQEAD_K0H@Z 000000014005831c     libucrtd:cvt.obj
 0002:0001531c       $unwind$??$message_box@$$TAEBQEB_WAEBQEB_WK@?$__crt_char_traits@_W@@SAH$$QEA$$TAEBQEB_W1$$QEAK@Z 000000014005831c     libucrtd:crtmbox.obj
 0002:0001531c       $unwind$??$message_box@PEAUHWND__@@AEBQEB_WAEBQEB_WAEBI@?$__crt_char_traits@_W@@SAH$$QEAPEAUHWND__@@AEBQEB_W1AEBI@Z 000000014005831c     libucrtd:crtmbox.obj
 0002:0001531c       $unwind$_invoke_watson     000000014005831c     libucrtd:invalid_parameter.obj
 0002:0001531c       $unwind$??$tcsncpy_s@AEAPEAD_KAEAPEADAEB_K@?$__crt_char_traits@D@@SAHAEAPEAD$$QEA_K0AEB_K@Z 000000014005831c     libucrtd:argv_wildcards.obj
 0002:0001531c       $unwind$??$tcsncpy_s@PEADAEB_KAEBQEBDAEB_K@?$__crt_char_traits@D@@SAH$$QEAPEADAEB_KAEBQEBD1@Z 000000014005831c     libucrtd:argv_wildcards.obj
 0002:0001531c       $unwind$??$tcsncpy_s@PEAD_KAEBQEBDAEB_K@?$__crt_char_traits@D@@SAH$$QEAPEAD$$QEA_KAEBQEBDAEB_K@Z 000000014005831c     libucrtd:argv_wildcards.obj
 0002:0001531c       $unwind$??$itot_s@AEBIPEA_W_KH@?$__crt_char_traits@_W@@SAHAEBI$$QEAPEA_W$$QEA_K$$QEAH@Z 000000014005831c     libucrtd:assert.obj
 0002:0001531c       $unwind$??$tcsncat_s@AEBQEA_WAEB_KAEAPEB_W_K@?$__crt_char_traits@_W@@SAHAEBQEA_WAEB_KAEAPEB_W$$QEA_K@Z 000000014005831c     libucrtd:assert.obj
 0002:0001531c       $unwind$??$tcsncat_s@AEBQEA_WAEB_KAEBQEB_WAEB_K@?$__crt_char_traits@_W@@SAHAEBQEA_WAEB_KAEBQEB_W1@Z 000000014005831c     libucrtd:assert.obj
 0002:0001531c       $unwind$??$tcsncat_s@AEBQEA_WAEB_KPEB_W_K@?$__crt_char_traits@_W@@SAHAEBQEA_WAEB_K$$QEAPEB_W$$QEA_K@Z 000000014005831c     libucrtd:assert.obj
 0002:0001531c       $unwind$??0?$output_adapter_data@DV?$string_output_adapter@D@__crt_stdio_output@@@__crt_stdio_output@@IEAA@AEBV?$string_output_adapter@D@1@_KQEBDQEAU__crt_locale_pointers@@QEAD@Z 000000014005831c     libucrtd:output.obj
 0002:0001531c       $unwind$??0?$output_adapter_data@_WV?$stream_output_adapter@_W@__crt_stdio_output@@@__crt_stdio_output@@IEAA@AEBV?$stream_output_adapter@_W@1@_KQEB_WQEAU__crt_locale_pointers@@QEAD@Z 000000014005831c     libucrtd:output.obj
 0002:0001531c       $unwind$??0?$output_adapter_data@_WV?$string_output_adapter@_W@__crt_stdio_output@@@__crt_stdio_output@@IEAA@AEBV?$string_output_adapter@_W@1@_KQEB_WQEAU__crt_locale_pointers@@QEAD@Z 000000014005831c     libucrtd:output.obj
 0002:0001531c       $unwind$?set_buffer@@YAHV__crt_stdio_stream@@QEAD_KH@Z 000000014005831c     libucrtd:setvbuf.obj
 0002:0001531c       $unwind$strncpy_s          000000014005831c     libucrtd:strncpy_s.obj
 0002:0001531c       $unwind$wcsncat_s          000000014005831c     libucrtd:wcsncat_s.obj
 0002:0001531c       $unwind$wcsncpy_s          000000014005831c     libucrtd:wcsncpy_s.obj
 0002:00015328       $xdatasym                  0000000140058328     LIBCMTD:amdsecgs.obj
 0002:0001532c       $unwind$?__scrt_common_main@@YAHXZ 000000014005832c     LIBCMTD:exe_winmain.obj
 0002:0001532c       $unwind$?configure_argv@__scrt_narrow_argv_policy@@SAHXZ 000000014005832c     LIBCMTD:exe_winmain.obj
 0002:0001532c       $unwind$?initialize_environment@__scrt_narrow_environment_policy@@SAHXZ 000000014005832c     LIBCMTD:exe_winmain.obj
 0002:0001532c       $unwind$?post_pgo_initialization@@YAHXZ 000000014005832c     LIBCMTD:exe_winmain.obj
 0002:0001532c       $unwind$?pre_c_initialization@@YAHXZ 000000014005832c     LIBCMTD:exe_winmain.obj
 0002:0001532c       $unwind$?pre_cpp_initialization@@YAXXZ 000000014005832c     LIBCMTD:exe_winmain.obj
 0002:0001532c       $unwind$?set_app_type@__scrt_winmain_policy@@SAXXZ 000000014005832c     LIBCMTD:exe_winmain.obj
 0002:0001532c       $unwind$?set_fmode@__scrt_file_policy@@SAXXZ 000000014005832c     LIBCMTD:exe_winmain.obj
 0002:0001532c       $unwind$__report_rangecheckfailure 000000014005832c     LIBCMTD:gs_report.obj
 0002:0001532c       $unwind$?__scrt_initialize_type_info@@YAXXZ 000000014005832c     LIBCMTD:tncleanup.obj
 0002:0001532c       $unwind$__scrt_initialize_mta 000000014005832c     LIBCMTD:utility_desktop.obj
 0002:0001532c       $unwind$__scrt_set_unhandled_exception_filter 000000014005832c     LIBCMTD:utility_desktop.obj
 0002:0001532c       $unwind$__current_exception 000000014005832c     libvcruntimed:ehhelpers.obj
 0002:0001532c       $unwind$__current_exception_context 000000014005832c     libvcruntimed:ehhelpers.obj
 0002:0001532c       $unwind$__vcrt_initialize  000000014005832c     libvcruntimed:initialization.obj
 0002:0001532c       $unwind$__vcrt_initialize_ptd 000000014005832c     libvcruntimed:per_thread_data.obj
 0002:0001532c       $unwind$__vcrt_uninitialize_ptd 000000014005832c     libvcruntimed:per_thread_data.obj
 0002:0001532c       $unwind$_GetImageBase      000000014005832c     libvcruntimed:risctrnsctrl.obj
 0002:0001532c       $unwind$_GetThrowImageBase 000000014005832c     libvcruntimed:risctrnsctrl.obj
 0002:0001532c       $unwind$?try_get_FlsAlloc@@YAP6AKP6AXPEAX@Z@ZXZ 000000014005832c     libvcruntimed:winapi_downlevel.obj
 0002:0001532c       $unwind$?try_get_FlsFree@@YAP6AHK@ZXZ 000000014005832c     libvcruntimed:winapi_downlevel.obj
 0002:0001532c       $unwind$?try_get_FlsGetValue@@YAP6APEAXK@ZXZ 000000014005832c     libvcruntimed:winapi_downlevel.obj
 0002:0001532c       $unwind$?try_get_FlsSetValue@@YAP6AHKPEAX@ZXZ 000000014005832c     libvcruntimed:winapi_downlevel.obj
 0002:0001532c       $unwind$?try_get_InitializeCriticalSectionEx@@YAP6AHPEAU_RTL_CRITICAL_SECTION@@KK@ZXZ 000000014005832c     libvcruntimed:winapi_downlevel.obj
 0002:0001532c       $unwind$__dcrt_terminate_console_output 000000014005832c     libucrtd:initcon.obj
 0002:0001532c       $unwind$??$uninitialize_environment_internal@D@@YAXAEAPEAPEAD@Z 000000014005832c     libucrtd:environment_initialization.obj
 0002:0001532c       $unwind$??$uninitialize_environment_internal@_W@@YAXAEAPEAPEA_W@Z 000000014005832c     libucrtd:environment_initialization.obj
 0002:0001532c       $unwind$__dcrt_uninitialize_environments_nolock 000000014005832c     libucrtd:environment_initialization.obj
 0002:0001532c       $unwind$__acrt_initialize_heap 000000014005832c     libucrtd:heap_handle.obj
 0002:0001532c       $unwind$_query_new_mode    000000014005832c     libucrtd:new_mode.obj
 0002:0001532c       $unwind$__acrt_initialize  000000014005832c     libucrtd:initialization.obj
 0002:0001532c       $unwind$initialize_c       000000014005832c     libucrtd:initialization.obj
 0002:0001532c       $unwind$initialize_global_variables 000000014005832c     libucrtd:initialization.obj
 0002:0001532c       $unwind$__acrt_getptd_noexit 000000014005832c     libucrtd:per_thread_data.obj
 0002:0001532c       $unwind$__acrt_initialize_ptd 000000014005832c     libucrtd:per_thread_data.obj
 0002:0001532c       $unwind$__acrt_get_developer_information_policy 000000014005832c     libucrtd:win_policies.obj
 0002:0001532c       $unwind$__acrt_get_process_end_policy 000000014005832c     libucrtd:win_policies.obj
 0002:0001532c       $unwind$__acrt_get_windowing_model_policy 000000014005832c     libucrtd:win_policies.obj
 0002:0001532c       $unwind$?try_get_AppPolicyGetProcessTerminationMethod@@YAP6AJPEAXPEAW4AppPolicyProcessTerminationMethod@@@ZXZ 000000014005832c     libucrtd:winapi_thunks.obj
 0002:0001532c       $unwind$?try_get_AppPolicyGetShowDeveloperDiagnostic@@YAP6AJPEAXPEAW4AppPolicyShowDeveloperDiagnostic@@@ZXZ 000000014005832c     libucrtd:winapi_thunks.obj
 0002:0001532c       $unwind$?try_get_AppPolicyGetWindowingModel@@YAP6AJPEAXPEAW4AppPolicyWindowingModel@@@ZXZ 000000014005832c     libucrtd:winapi_thunks.obj
 0002:0001532c       $unwind$?try_get_AreFileApisANSI@@YAP6AHXZXZ 000000014005832c     libucrtd:winapi_thunks.obj
 0002:0001532c       $unwind$?try_get_FlsAlloc@@YAP6AKP6AXPEAX@Z@ZXZ 000000014005832c     libucrtd:winapi_thunks.obj
 0002:0001532c       $unwind$?try_get_FlsFree@@YAP6AHK@ZXZ 000000014005832c     libucrtd:winapi_thunks.obj
 0002:0001532c       $unwind$?try_get_FlsGetValue@@YAP6APEAXK@ZXZ 000000014005832c     libucrtd:winapi_thunks.obj
 0002:0001532c       $unwind$?try_get_FlsSetValue@@YAP6AHKPEAX@ZXZ 000000014005832c     libucrtd:winapi_thunks.obj
 0002:0001532c       $unwind$?try_get_GetActiveWindow@@YAP6APEAUHWND__@@XZXZ 000000014005832c     libucrtd:winapi_thunks.obj
 0002:0001532c       $unwind$?try_get_GetLastActivePopup@@YAP6APEAUHWND__@@PEAU1@@ZXZ 000000014005832c     libucrtd:winapi_thunks.obj
 0002:0001532c       $unwind$?try_get_GetProcessWindowStation@@YAP6APEAUHWINSTA__@@XZXZ 000000014005832c     libucrtd:winapi_thunks.obj
 0002:0001532c       $unwind$?try_get_GetUserObjectInformationW@@YAP6AHPEAXH0KPEAK@ZXZ 000000014005832c     libucrtd:winapi_thunks.obj
 0002:0001532c       $unwind$?try_get_InitializeCriticalSectionEx@@YAP6AHPEAU_RTL_CRITICAL_SECTION@@KK@ZXZ 000000014005832c     libucrtd:winapi_thunks.obj
 0002:0001532c       $unwind$?try_get_LCMapStringEx@@YAP6AHPEB_WK0HPEA_WHPEAU_nlsversioninfo@@PEAX_J@ZXZ 000000014005832c     libucrtd:winapi_thunks.obj
 0002:0001532c       $unwind$?try_get_LocaleNameToLCID@@YAP6AKPEB_WK@ZXZ 000000014005832c     libucrtd:winapi_thunks.obj
 0002:0001532c       $unwind$?try_get_MessageBoxA@@YAP6AHPEAUHWND__@@PEBD1I@ZXZ 000000014005832c     libucrtd:winapi_thunks.obj
 0002:0001532c       $unwind$?try_get_MessageBoxW@@YAP6AHPEAUHWND__@@PEB_W1I@ZXZ 000000014005832c     libucrtd:winapi_thunks.obj
 0002:0001532c       $unwind$__fpecode          000000014005832c     libucrtd:signal.obj
 0002:0001532c       $unwind$__acrt_initialize_command_line 000000014005832c     libucrtd:argv_data.obj
 0002:0001532c       $unwind$_get_narrow_winmain_command_line 000000014005832c     libucrtd:argv_winmain.obj
 0002:0001532c       $unwind$_c_exit            000000014005832c     libucrtd:exit.obj
 0002:0001532c       $unwind$_cexit             000000014005832c     libucrtd:exit.obj
 0002:0001532c       $unwind$_flushall          000000014005832c     libucrtd:fflush.obj
 0002:0001532c       $unwind$fegetround         000000014005832c     libucrtd:fegetround.obj
 0002:00015334       $unwind$__scrt_initialize_default_local_stdio_options 0000000140058334     LIBCMTD:default_local_stdio_options.obj
 0002:00015334       $unwind$?invoke_main@@YAHXZ 0000000140058334     LIBCMTD:exe_winmain.obj
 0002:00015334       $unwind$?set_commode@__scrt_file_policy@@SAXXZ 0000000140058334     LIBCMTD:exe_winmain.obj
 0002:00015334       $unwind$__security_init_cookie 0000000140058334     LIBCMTD:gs_support.obj
 0002:00015334       $unwind$_guard_icall_checks_enforced 0000000140058334     LIBCMTD:guard_support.obj
 0002:00015334       $unwind$__scrt_is_managed_app 0000000140058334     LIBCMTD:utility_desktop.obj
 0002:00015334       $unwind$__vcrt_initialize_locks 0000000140058334     libvcruntimed:locks.obj
 0002:00015334       $unwind$__vcrt_uninitialize_locks 0000000140058334     libvcruntimed:locks.obj
 0002:00015334       $unwind$__vcrt_getptd      0000000140058334     libvcruntimed:per_thread_data.obj
 0002:00015334       $unwind$?initialize_multibyte@@YAHXZ 0000000140058334     libucrtd:multibyte_initializer.obj
 0002:00015334       $unwind$initialize_pointers 0000000140058334     libucrtd:initialization.obj
 0002:00015334       $unwind$__acrt_initialize_locks 0000000140058334     libucrtd:locks.obj
 0002:00015334       $unwind$?try_get_ptd_head@@YAPEAU__acrt_ptd@@XZ 0000000140058334     libucrtd:per_thread_data.obj
 0002:00015334       $unwind$__acrt_getptd      0000000140058334     libucrtd:per_thread_data.obj
 0002:00015334       $unwind$__acrt_getptd_head 0000000140058334     libucrtd:per_thread_data.obj
 0002:00015334       $unwind$?should_write_error_to_console@@YA_NXZ 0000000140058334     libucrtd:report_runtime_error.obj
 0002:00015334       $unwind$__acrt_AreFileApisANSI 0000000140058334     libucrtd:winapi_thunks.obj
 0002:00015334       $unwind$__acrt_can_show_message_box 0000000140058334     libucrtd:winapi_thunks.obj
 0002:00015334       $unwind$__pctype_func      0000000140058334     libucrtd:ctype.obj
 0002:00015334       $unwind$__acrt_initialize_multibyte 0000000140058334     libucrtd:mbctype.obj
 0002:00015334       $unwind$__acrt_update_thread_multibyte_data 0000000140058334     libucrtd:mbctype.obj
 0002:00015334       $unwind$__doserrno         0000000140058334     libucrtd:errno.obj
 0002:00015334       $unwind$_errno             0000000140058334     libucrtd:errno.obj
 0002:00015334       $unwind$_invalid_parameter_noinfo 0000000140058334     libucrtd:invalid_parameter.obj
 0002:00015334       $unwind$abort              0000000140058334     libucrtd:abort.obj
 0002:00015334       $unwind$?is_managed_app@@YA_NXZ 0000000140058334     libucrtd:exit.obj
 0002:00015334       $unwind$?should_call_terminate_process@@YA_NXZ 0000000140058334     libucrtd:exit.obj
 0002:00015334       $unwind$__acrt_uninitialize_stdio 0000000140058334     libucrtd:_file.obj
 0002:00015334       $unwind$_clrfp             0000000140058334     libucrtd:fpctrl.obj
 0002:00015334       $unwind$_statfp            0000000140058334     libucrtd:fpctrl.obj
 0002:00015334       $unwind$_clearfp           0000000140058334     libucrtd:ieee.obj
 0002:00015334       $unwind$?get_machine_sse_control@@YA?AW4__acrt_fenv_machine_sse_control@@XZ 0000000140058334     libucrtd:_fenvutils.obj
 0002:00015334       $unwind$?get_machine_sse_status@@YA?AW4__acrt_fenv_machine_sse_status@@XZ 0000000140058334     libucrtd:_fenvutils.obj
 0002:00015334       $unwind$__acrt_fenv_get_control 0000000140058334     libucrtd:_fenvutils.obj
 0002:00015334       $unwind$__acrt_fenv_get_status 0000000140058334     libucrtd:_fenvutils.obj
 0002:00015334       $unwind$__acrt_has_user_matherr 0000000140058334     libucrtd:matherr.obj
 0002:0001533c       $unwind$?__scrt_common_main_seh@@YAHXZ 000000014005833c     LIBCMTD:exe_winmain.obj
 0002:0001535c       $unwind$?filt$0@?0??__scrt_common_main_seh@@YAHXZ@4HA 000000014005835c     LIBCMTD:exe_winmain.obj
 0002:0001535c       $unwind$_IsNonwritableInCurrentImage$filt$0 000000014005835c     LIBCMTD:pesect.obj
 0002:0001535c       $unwind$__scrt_is_nonwritable_in_current_image$filt$0 000000014005835c     LIBCMTD:utility.obj
 0002:0001535c       $unwind$__DestructExceptionObject$filt$0 000000014005835c     libvcruntimed:ehhelpers.obj
 0002:0001535c       $unwind$?filt$0@?0???$BuildCatchObjectHelperInternal@V__FrameHandler3@@@@YAHPEAUEHExceptionRecord@@PEAXPEBU_s_HandlerType@@PEBU_s_CatchableType@@@Z@4HA 000000014005835c     libvcruntimed:frame.obj
 0002:0001535c       $unwind$?filt$0@?0???$BuildCatchObjectInternal@V__FrameHandler3@@@@YAXPEAUEHExceptionRecord@@PEAXPEBU_s_HandlerType@@PEBU_s_CatchableType@@@Z@4HA 000000014005835c     libvcruntimed:frame.obj
 0002:0001535c       $unwind$?filt$0@?0??CxxCallCatchBlock@__FrameHandler3@@SAPEAXPEAU_EXCEPTION_RECORD@@@Z@4HA 000000014005835c     libvcruntimed:frame.obj
 0002:0001535c       $unwind$?filt$0@?0??FrameUnwindToState@__FrameHandler3@@SAXPEA_KPEAU_xDISPATCHER_CONTEXT@@PEBU_s_FuncInfo@@H@Z@4HA 000000014005835c     libvcruntimed:frame.obj
 0002:0001535c       $unwind$?fin$1@?0??CxxCallCatchBlock@__FrameHandler3@@SAPEAXPEAU_EXCEPTION_RECORD@@@Z@4HA 000000014005835c     libvcruntimed:frame.obj
 0002:0001535c       $unwind$?fin$1@?0??FrameUnwindToState@__FrameHandler3@@SAXPEA_KPEAU_xDISPATCHER_CONTEXT@@PEBU_s_FuncInfo@@H@Z@4HA 000000014005835c     libvcruntimed:frame.obj
 0002:0001535c       $unwind$?dtor$0@?0??fp_format_a@@YAHQEBNPEAD_KQEAD2H_NIQEAU__crt_locale_pointers@@W4__acrt_rounding_mode@@@Z@4HA 000000014005835c     libucrtd:cvt.obj
 0002:0001535c       $unwind$?dtor$0@?0??_wcstombs_l_helper@@YA_KPEADPEB_W_KPEAU__crt_locale_pointers@@@Z@4HA 000000014005835c     libucrtd:wcstombs.obj
 0002:0001535c       $unwind$?filt$0@?0??is_bad_read_pointer@@YA_NQEBX_K@Z@4HA 000000014005835c     libucrtd:debug_heap.obj
 0002:0001535c       $unwind$_free_dbg$fin$0    000000014005835c     libucrtd:debug_heap.obj
 0002:0001535c       $unwind$_query_new_handler$fin$0 000000014005835c     libucrtd:new_handler.obj
 0002:0001535c       $unwind$?fin$0@?0???$?RV<lambda_0ae27a3a962d80f24befdcbee591983d>@@AEAV<lambda_8d0ee55de4b1038c4002e0adecdf1839>@@V<lambda_dc504788e8f1664fe9b84e20bfb512f2>@@@?$__crt_seh_guarded_call@X@@QEAAX$$QEAV<lambda_0ae27a3a962d80f24befdcbee591983d>@@AEAV<lambda_8d0ee55de4b1038c4002e0adecdf1839>@@$$QEAV<lambda_dc504788e8f1664fe9b84e20bfb512f2>@@@Z@4HA 000000014005835c     libucrtd:per_thread_data.obj
 0002:0001535c       $unwind$?fin$0@?0???$?RV<lambda_2d41944a1d46af3157314b8a01080d33>@@AEAV<lambda_8f455de75cd7d7f24b4096f044d8b9e6>@@V<lambda_aa500f224e6afead328df44964fe2772>@@@?$__crt_seh_guarded_call@X@@QEAAX$$QEAV<lambda_2d41944a1d46af3157314b8a01080d33>@@AEAV<lambda_8f455de75cd7d7f24b4096f044d8b9e6>@@$$QEAV<lambda_aa500f224e6afead328df44964fe2772>@@@Z@4HA 000000014005835c     libucrtd:per_thread_data.obj
 0002:0001535c       $unwind$?fin$0@?0???$?RV<lambda_74a0ef281e44d15e1136f792f539efb3>@@AEAV<lambda_e157831efee4ea0afb0a2ace5dd5fd0d>@@V<lambda_04ddeca75b7c13fd67716e8dfcef87ee>@@@?$__crt_seh_guarded_call@X@@QEAAX$$QEAV<lambda_74a0ef281e44d15e1136f792f539efb3>@@AEAV<lambda_e157831efee4ea0afb0a2ace5dd5fd0d>@@$$QEAV<lambda_04ddeca75b7c13fd67716e8dfcef87ee>@@@Z@4HA 000000014005835c     libucrtd:per_thread_data.obj
 0002:0001535c       $unwind$?fin$0@?0???$?RV<lambda_aa87e3671a710a21b5dc78c0bdf72e11>@@AEAV<lambda_92619d2358a28f41a33ba319515a20b9>@@V<lambda_6992ecaafeb10aed2b74cb1fae11a551>@@@?$__crt_seh_guarded_call@X@@QEAAX$$QEAV<lambda_aa87e3671a710a21b5dc78c0bdf72e11>@@AEAV<lambda_92619d2358a28f41a33ba319515a20b9>@@$$QEAV<lambda_6992ecaafeb10aed2b74cb1fae11a551>@@@Z@4HA 000000014005835c     libucrtd:per_thread_data.obj
 0002:0001535c       $unwind$__acrt_update_thread_locale_data$fin$0 000000014005835c     libucrtd:locale_refcounting.obj
 0002:0001535c       $unwind$?fin$0@?0???$?RV<lambda_410d79af7f07d98d83a3f525b3859a53>@@AEAV<lambda_3e16ef9562a7dcce91392c22ab16ea36>@@V<lambda_38119f0e861e05405d8a144b9b982f0a>@@@?$__crt_seh_guarded_call@X@@QEAAX$$QEAV<lambda_410d79af7f07d98d83a3f525b3859a53>@@AEAV<lambda_3e16ef9562a7dcce91392c22ab16ea36>@@$$QEAV<lambda_38119f0e861e05405d8a144b9b982f0a>@@@Z@4HA 000000014005835c     libucrtd:wsetlocale.obj
 0002:0001535c       $unwind$?fin$0@?0???$?RV<lambda_53fc7fc888e23d815d7080162c0aeeb2>@@AEAV<lambda_4e7105787b7b0e0227fbf2b2d883fa65>@@V<lambda_8ddc48ad9d26c778cb15812d1d88fc8a>@@@?$__crt_seh_guarded_call@H@@QEAAH$$QEAV<lambda_53fc7fc888e23d815d7080162c0aeeb2>@@AEAV<lambda_4e7105787b7b0e0227fbf2b2d883fa65>@@$$QEAV<lambda_8ddc48ad9d26c778cb15812d1d88fc8a>@@@Z@4HA 000000014005835c     libucrtd:close.obj
 0002:0001535c       $unwind$?fin$0@?0???$?RV<lambda_4e3dbe6921bc0b5a1a6bc6573fdc859e>@@AEAV<lambda_5533cddd4bda0037814beee657757329>@@V<lambda_47cffbaa968af5c721c38a4a6f8da44d>@@@?$__crt_seh_guarded_call@H@@QEAAH$$QEAV<lambda_4e3dbe6921bc0b5a1a6bc6573fdc859e>@@AEAV<lambda_5533cddd4bda0037814beee657757329>@@$$QEAV<lambda_47cffbaa968af5c721c38a4a6f8da44d>@@@Z@4HA 000000014005835c     libucrtd:commit.obj
 0002:0001535c       $unwind$__acrt_initialize_lowio$fin$0 000000014005835c     libucrtd:ioinit.obj
 0002:0001535c       $unwind$?fin$0@?0???$?RV<lambda_efa02eb69bf647d2f7ff0dd6f1103f72>@@AEAV<lambda_bd5a608237428601b7e45fbdc72b1ae8>@@V<lambda_728235dc0fc2b1f82d1fa5b3e7102d8f>@@@?$__crt_seh_guarded_call@X@@QEAAX$$QEAV<lambda_efa02eb69bf647d2f7ff0dd6f1103f72>@@AEAV<lambda_bd5a608237428601b7e45fbdc72b1ae8>@@$$QEAV<lambda_728235dc0fc2b1f82d1fa5b3e7102d8f>@@@Z@4HA 000000014005835c     libucrtd:mbctype.obj
 0002:0001535c       $unwind$?fin$0@?0??update_thread_multibyte_data_internal@@YAPEAU__crt_multibyte_data@@QEAU__acrt_ptd@@QEAPEAU1@@Z@4HA 000000014005835c     libucrtd:mbctype.obj
 0002:0001535c       $unwind$?fin$0@?0???$?RV<lambda_450d765d439847d4c735a33c368b5fc0>@@AEAV<lambda_44731a7d0e6d81c3e6aa82d741081786>@@V<lambda_601a2a7da3b7a96e9554ac7215c4b07c>@@@?$__crt_seh_guarded_call@P6AXH@Z@@QEAAP6AXH@Z$$QEAV<lambda_450d765d439847d4c735a33c368b5fc0>@@AEAV<lambda_44731a7d0e6d81c3e6aa82d741081786>@@$$QEAV<lambda_601a2a7da3b7a96e9554ac7215c4b07c>@@@Z@4HA 000000014005835c     libucrtd:signal.obj
 0002:0001535c       $unwind$terminate$filt$0   000000014005835c     libucrtd:terminate.obj
 0002:0001535c       $unwind$?filt$0@?0???R<lambda_6e4b09c48022b2350581041d5f6b0c4c>@@QEBA@XZ@4HA 000000014005835c     libucrtd:exit.obj
 0002:0001535c       $unwind$?fin$0@?0???$?RV<lambda_d80eeec6fff315bfe5c115232f3240e3>@@AEAV<lambda_6e4b09c48022b2350581041d5f6b0c4c>@@V<lambda_2358e3775559c9db80273638284d5e45>@@@?$__crt_seh_guarded_call@X@@QEAAX$$QEAV<lambda_d80eeec6fff315bfe5c115232f3240e3>@@AEAV<lambda_6e4b09c48022b2350581041d5f6b0c4c>@@$$QEAV<lambda_2358e3775559c9db80273638284d5e45>@@@Z@4HA 000000014005835c     libucrtd:exit.obj
 0002:0001535c       $unwind$?dtor$0@?0???R<lambda_d121dba8a4adeaf3a9819e48611155df>@@QEBAHXZ@4HA 000000014005835c     libucrtd:onexit.obj
 0002:0001535c       $unwind$?fin$0@?0???$?RV<lambda_6a47f4c8fd0152770a780fc1d70204eb>@@AEAV<lambda_d121dba8a4adeaf3a9819e48611155df>@@V<lambda_6aaa2265f5b6a89667e7d7630012e97a>@@@?$__crt_seh_guarded_call@H@@QEAAH$$QEAV<lambda_6a47f4c8fd0152770a780fc1d70204eb>@@AEAV<lambda_d121dba8a4adeaf3a9819e48611155df>@@$$QEAV<lambda_6aaa2265f5b6a89667e7d7630012e97a>@@@Z@4HA 000000014005835c     libucrtd:onexit.obj
 0002:0001535c       $unwind$?fin$0@?0???$?RV<lambda_dce957679fd779aa27c4ca5c39e09098>@@AEAV<lambda_3b83eb014488ad801d84acef5aaf14d3>@@V<lambda_00e911965883f7966597d4c465c83ebc>@@@?$__crt_seh_guarded_call@H@@QEAAH$$QEAV<lambda_dce957679fd779aa27c4ca5c39e09098>@@AEAV<lambda_3b83eb014488ad801d84acef5aaf14d3>@@$$QEAV<lambda_00e911965883f7966597d4c465c83ebc>@@@Z@4HA 000000014005835c     libucrtd:onexit.obj
 0002:0001535c       $unwind$_fcloseall$fin$0   000000014005835c     libucrtd:closeall.obj
 0002:0001535c       $unwind$?fin$0@?0???$?RV<lambda_842d9ff0dc9ef11c61343bbaebe7f885>@@AEAV<lambda_c5860995281e5c4ce005b3de8f5874ee>@@V<lambda_d90129c13df834fdcbf8d2b88dafcf2d>@@@?$__crt_seh_guarded_call@X@@QEAAX$$QEAV<lambda_842d9ff0dc9ef11c61343bbaebe7f885>@@AEAV<lambda_c5860995281e5c4ce005b3de8f5874ee>@@$$QEAV<lambda_d90129c13df834fdcbf8d2b88dafcf2d>@@@Z@4HA 000000014005835c     libucrtd:fflush.obj
 0002:0001535c       $unwind$?fin$0@?0???$?RV<lambda_886d6c58226a84441f68b9f2b8217b83>@@AEAV<lambda_ab61a845afdef5b7c387490eaf3616ee>@@V<lambda_f7f22ab5edc0698d5f6905b0d3f44752>@@@?$__crt_seh_guarded_call@X@@QEAAX$$QEAV<lambda_886d6c58226a84441f68b9f2b8217b83>@@AEAV<lambda_ab61a845afdef5b7c387490eaf3616ee>@@$$QEAV<lambda_f7f22ab5edc0698d5f6905b0d3f44752>@@@Z@4HA 000000014005835c     libucrtd:fflush.obj
 0002:0001535c       $unwind$?fin$0@?0???$?RV<lambda_c376a267cfb53b6959b3b692ec76b120>@@AEAV<lambda_9a32fed5bf61b6b509b2d3f6003082a1>@@V<lambda_572fbb9fa0ab338edf41edfd4b5fcc8d>@@@?$__crt_seh_guarded_call@H@@QEAAH$$QEAV<lambda_c376a267cfb53b6959b3b692ec76b120>@@AEAV<lambda_9a32fed5bf61b6b509b2d3f6003082a1>@@$$QEAV<lambda_572fbb9fa0ab338edf41edfd4b5fcc8d>@@@Z@4HA 000000014005835c     libucrtd:fflush.obj
 0002:0001535c       $unwind$?fin$0@?0???$?RV<lambda_676bd5779251ec186b530f0a904b4b35>@@AEAV<lambda_b579ea784fd840951dfbcbdaebf709fd>@@V<lambda_10027885da78ada7fb00668d7e2e96b5>@@@?$__crt_seh_guarded_call@H@@QEAAH$$QEAV<lambda_676bd5779251ec186b530f0a904b4b35>@@AEAV<lambda_b579ea784fd840951dfbcbdaebf709fd>@@$$QEAV<lambda_10027885da78ada7fb00668d7e2e96b5>@@@Z@4HA 000000014005835c     libucrtd:output.obj
 0002:0001535c       $unwind$?fin$0@?0???$?RV<lambda_ee69b802af549e3a94c3585db2bd6467>@@AEAV<lambda_7d656854fecfa268884b8692ea29008b>@@V<lambda_05f0559a8855835fc49fa2f838446407>@@@?$__crt_seh_guarded_call@H@@QEAAH$$QEAV<lambda_ee69b802af549e3a94c3585db2bd6467>@@AEAV<lambda_7d656854fecfa268884b8692ea29008b>@@$$QEAV<lambda_05f0559a8855835fc49fa2f838446407>@@@Z@4HA 000000014005835c     libucrtd:setvbuf.obj
 0002:0001535c       $unwind$?dtor$0@?0??shortsort@@YAXPEAD0_KP6AHPEBX2@Z@Z@4HA 000000014005835c     libucrtd:qsort.obj
 0002:0001535c       $unwind$_ctrlfp$filt$0     000000014005835c     libucrtd:fpctrl.obj
 0002:00015364       $unwind$??3@YAXPEAX@Z      0000000140058364     LIBCMTD:delete_scalar.obj
 0002:00015364       $unwind$WinMainCRTStartup  0000000140058364     LIBCMTD:exe_winmain.obj
 0002:00015364       $unwind$__raise_securityfailure 0000000140058364     LIBCMTD:gs_report.obj
 0002:00015364       $unwind$ReadPointerNoFence 0000000140058364     LIBCMTD:guard_support.obj
 0002:00015364       $unwind$_ValidateImageBase 0000000140058364     LIBCMTD:pesect.obj
 0002:00015364       $unwind$?is_potentially_valid_image_base@@YA_NQEAX@Z 0000000140058364     LIBCMTD:utility.obj
 0002:00015364       $unwind$??0bad_exception@std@@QEAA@XZ 0000000140058364     libvcruntimed:frame.obj
 0002:00015364       $unwind$??1bad_exception@std@@UEAA@XZ 0000000140058364     libvcruntimed:frame.obj
 0002:00015364       $unwind$??1exception@std@@UEAA@XZ 0000000140058364     libvcruntimed:frame.obj
 0002:00015364       $unwind$?__RethrowException@@YAXPEAUEHExceptionRecord@@@Z 0000000140058364     libvcruntimed:frame.obj
 0002:00015364       $unwind$__vcrt_EncodePointer 0000000140058364     libvcruntimed:frame.obj
 0002:00015364       $unwind$??0scoped_get_last_error_reset@?A0x5de71e99@@QEAA@XZ 0000000140058364     libvcruntimed:per_thread_data.obj
 0002:00015364       $unwind$??1?$__crt_unique_heap_ptr@U__vcrt_ptd@@U__crt_internal_free_policy@@@@QEAA@XZ 0000000140058364     libvcruntimed:per_thread_data.obj
 0002:00015364       $unwind$??1scoped_get_last_error_reset@?A0x5de71e99@@QEAA@XZ 0000000140058364     libvcruntimed:per_thread_data.obj
 0002:00015364       $unwind$??B?$__crt_unique_heap_ptr@U__vcrt_ptd@@U__crt_internal_free_policy@@@@QEBA_NXZ 0000000140058364     libvcruntimed:per_thread_data.obj
 0002:00015364       $unwind$?store_and_initialize_ptd@@YA_NQEAU__vcrt_ptd@@@Z 0000000140058364     libvcruntimed:per_thread_data.obj
 0002:00015364       $unwind$__vcrt_freefls     0000000140058364     libvcruntimed:per_thread_data.obj
 0002:00015364       $unwind$_SetImageBase      0000000140058364     libvcruntimed:risctrnsctrl.obj
 0002:00015364       $unwind$_SetThrowImageBase 0000000140058364     libvcruntimed:risctrnsctrl.obj
 0002:00015364       $unwind$??1?$__crt_unique_heap_ptr@DU__crt_public_free_policy@@@@QEAA@XZ 0000000140058364     libvcruntimed:std_exception.obj
 0002:00015364       $unwind$??B?$__crt_unique_heap_ptr@DU__crt_public_free_policy@@@@QEBA_NXZ 0000000140058364     libvcruntimed:std_exception.obj
 0002:00015364       $unwind$__std_exception_destroy 0000000140058364     libvcruntimed:std_exception.obj
 0002:00015364       $unwind$??1?$__crt_unique_heap_ptr@DU__crt_internal_free_policy@@@@QEAA@XZ 0000000140058364     libvcruntimed:std_type_info.obj
 0002:00015364       $unwind$??B?$__crt_unique_heap_ptr@DU__crt_internal_free_policy@@@@QEBA_NXZ 0000000140058364     libvcruntimed:std_type_info.obj
 0002:00015364       $unwind$??$__crt_interlocked_read_pointer@UHINSTANCE__@@@@YAPEAUHINSTANCE__@@PEDSEAU0@@Z 0000000140058364     libvcruntimed:winapi_downlevel.obj
 0002:00015364       $unwind$??$__crt_interlocked_read_pointer@X@@YAPEAXPEDSEAX@Z 0000000140058364     libvcruntimed:winapi_downlevel.obj
 0002:00015364       $unwind$_putwch_nolock     0000000140058364     libucrtd:putwch.obj
 0002:00015364       $unwind$??0big_integer@__crt_strtox@@QEAA@XZ 0000000140058364     libucrtd:cfout.obj
 0002:00015364       $unwind$??0scoped_fp_state_reset@?A0x71ca7cfb@@QEAA@XZ 0000000140058364     libucrtd:cfout.obj
 0002:00015364       $unwind$??1scoped_fp_state_reset@?A0x71ca7cfb@@QEAA@XZ 0000000140058364     libucrtd:cfout.obj
 0002:00015364       $unwind$??1_LocaleUpdate@@QEAA@XZ 0000000140058364     libucrtd:debug_heap.obj
 0002:00015364       $unwind$_CrtIsValidHeapPointer 0000000140058364     libucrtd:debug_heap.obj
 0002:00015364       $unwind$malloc             0000000140058364     libucrtd:malloc.obj
 0002:00015364       $unwind$??$__crt_fast_decode_pointer@P6AH_K@Z@@YAP6AH_K@ZQ6AH0@Z@Z 0000000140058364     libucrtd:new_handler.obj
 0002:00015364       $unwind$?value@?$dual_state_global@P6AH_K@Z@__crt_state_management@@QEAAAEAP6AH_K@ZXZ 0000000140058364     libucrtd:new_handler.obj
 0002:00015364       $unwind$__acrt_initialize_new_handler 0000000140058364     libucrtd:new_handler.obj
 0002:00015364       $unwind$?value@?$dual_state_global@J@__crt_state_management@@QEAAAEAJXZ 0000000140058364     libucrtd:new_mode.obj
 0002:00015364       $unwind$?_deallocate@?$__crt_win32_buffer@DU__crt_win32_buffer_no_resizing@@@@AEAAXXZ 0000000140058364     libucrtd:getmodulefilenamea.obj
 0002:00015364       $unwind$?set_to_nullptr@?$__crt_win32_buffer@DU__crt_win32_buffer_no_resizing@@@@QEAAXXZ 0000000140058364     libucrtd:getmodulefilenamea.obj
 0002:00015364       $unwind$??$?BX@__crt_fast_encoded_nullptr_t@@QEBAPEAXXZ 0000000140058364     libucrtd:initialization.obj
 0002:00015364       $unwind$??$__crt_fast_encode_pointer@PEAX@@YAPEAXQEAX@Z 0000000140058364     libucrtd:initialization.obj
 0002:00015364       $unwind$??0__crt_scoped_get_last_error_reset@@QEAA@XZ 0000000140058364     libucrtd:per_thread_data.obj
 0002:00015364       $unwind$??1?$__crt_unique_heap_ptr@U__acrt_ptd@@U__crt_internal_free_policy@@@@QEAA@XZ 0000000140058364     libucrtd:per_thread_data.obj
 0002:00015364       $unwind$??1__crt_scoped_get_last_error_reset@@QEAA@XZ 0000000140058364     libucrtd:per_thread_data.obj
 0002:00015364       $unwind$??B?$__crt_unique_heap_ptr@U__acrt_ptd@@U__crt_internal_free_policy@@@@QEBA_NXZ 0000000140058364     libucrtd:per_thread_data.obj
 0002:00015364       $unwind$??R<lambda_04ddeca75b7c13fd67716e8dfcef87ee>@@QEBAXXZ 0000000140058364     libucrtd:per_thread_data.obj
 0002:00015364       $unwind$??R<lambda_0ae27a3a962d80f24befdcbee591983d>@@QEBAXXZ 0000000140058364     libucrtd:per_thread_data.obj
 0002:00015364       $unwind$??R<lambda_2d41944a1d46af3157314b8a01080d33>@@QEBAXXZ 0000000140058364     libucrtd:per_thread_data.obj
 0002:00015364       $unwind$??R<lambda_6992ecaafeb10aed2b74cb1fae11a551>@@QEBAXXZ 0000000140058364     libucrtd:per_thread_data.obj
 0002:00015364       $unwind$??R<lambda_74a0ef281e44d15e1136f792f539efb3>@@QEBAXXZ 0000000140058364     libucrtd:per_thread_data.obj
 0002:00015364       $unwind$??R<lambda_8f455de75cd7d7f24b4096f044d8b9e6>@@QEBAXXZ 0000000140058364     libucrtd:per_thread_data.obj
 0002:00015364       $unwind$??R<lambda_92619d2358a28f41a33ba319515a20b9>@@QEBAXXZ 0000000140058364     libucrtd:per_thread_data.obj
 0002:00015364       $unwind$??R<lambda_aa500f224e6afead328df44964fe2772>@@QEBAXXZ 0000000140058364     libucrtd:per_thread_data.obj
 0002:00015364       $unwind$??R<lambda_aa87e3671a710a21b5dc78c0bdf72e11>@@QEBAXXZ 0000000140058364     libucrtd:per_thread_data.obj
 0002:00015364       $unwind$??R<lambda_dc504788e8f1664fe9b84e20bfb512f2>@@QEBAXXZ 0000000140058364     libucrtd:per_thread_data.obj
 0002:00015364       $unwind$?destroy_fls@@YAXPEAX@Z 0000000140058364     libucrtd:per_thread_data.obj
 0002:00015364       $unwind$?appmodel_get_policy@developer_information_policy_properties@?1??__acrt_get_developer_information_policy@@YA?AW4developer_information_policy@@XZ@SAJPEAW4AppPolicyShowDeveloperDiagnostic@@@Z 0000000140058364     libucrtd:win_policies.obj
 0002:00015364       $unwind$?appmodel_get_policy@process_end_policy_properties@?1??__acrt_get_process_end_policy@@YA?AW4process_end_policy@@XZ@SAJPEAW4AppPolicyProcessTerminationMethod@@@Z 0000000140058364     libucrtd:win_policies.obj
 0002:00015364       $unwind$?appmodel_get_policy@windowing_model_policy_properties@?1??__acrt_get_windowing_model_policy@@YA?AW4windowing_model_policy@@XZ@SAJPEAW4AppPolicyWindowingModel@@@Z 0000000140058364     libucrtd:win_policies.obj
 0002:00015364       $unwind$??$__crt_fast_decode_pointer@PEAX@@YAPEAXQEAX@Z 0000000140058364     libucrtd:winapi_thunks.obj
 0002:00015364       $unwind$??1?$__crt_scoped_stack_ptr@_W@@QEAA@XZ 0000000140058364     libucrtd:getstringtypea.obj
 0002:00015364       $unwind$__acrt_locale_free_monetary 0000000140058364     libucrtd:initmon.obj
 0002:00015364       $unwind$__acrt_locale_free_numeric 0000000140058364     libucrtd:initnum.obj
 0002:00015364       $unwind$??$free_crt_array@D$01@@YAXAEAY01PEAD@Z 0000000140058364     libucrtd:inittime.obj
 0002:00015364       $unwind$??$free_crt_array@D$06@@YAXAEAY06PEAD@Z 0000000140058364     libucrtd:inittime.obj
 0002:00015364       $unwind$??$free_crt_array@D$0M@@@YAXAEAY0M@PEAD@Z 0000000140058364     libucrtd:inittime.obj
 0002:00015364       $unwind$??$free_crt_array@_W$01@@YAXAEAY01PEA_W@Z 0000000140058364     libucrtd:inittime.obj
 0002:00015364       $unwind$??$free_crt_array@_W$06@@YAXAEAY06PEA_W@Z 0000000140058364     libucrtd:inittime.obj
 0002:00015364       $unwind$??$free_crt_array@_W$0M@@@YAXAEAY0M@PEA_W@Z 0000000140058364     libucrtd:inittime.obj
 0002:00015364       $unwind$__acrt_locale_free_time 0000000140058364     libucrtd:inittime.obj
 0002:00015364       $unwind$__acrt_locale_free_lc_time_if_unreferenced 0000000140058364     libucrtd:locale_refcounting.obj
 0002:00015364       $unwind$??1?$__crt_unique_heap_ptr@U__crt_multibyte_data@@U__crt_internal_free_policy@@@@QEAA@XZ 0000000140058364     libucrtd:wsetlocale.obj
 0002:00015364       $unwind$??B?$__crt_unique_heap_ptr@U__crt_multibyte_data@@U__crt_internal_free_policy@@@@QEBA_NXZ 0000000140058364     libucrtd:wsetlocale.obj
 0002:00015364       $unwind$??R<lambda_38119f0e861e05405d8a144b9b982f0a>@@QEBAXXZ 0000000140058364     libucrtd:wsetlocale.obj
 0002:00015364       $unwind$??R<lambda_410d79af7f07d98d83a3f525b3859a53>@@QEBAXXZ 0000000140058364     libucrtd:wsetlocale.obj
 0002:00015364       $unwind$?value@?$dual_state_global@PEAU__crt_locale_data@@@__crt_state_management@@QEAAAEAPEAU__crt_locale_data@@XZ 0000000140058364     libucrtd:wsetlocale.obj
 0002:00015364       $unwind$??R<lambda_53fc7fc888e23d815d7080162c0aeeb2>@@QEBAXXZ 0000000140058364     libucrtd:close.obj
 0002:00015364       $unwind$??R<lambda_8ddc48ad9d26c778cb15812d1d88fc8a>@@QEBAXXZ 0000000140058364     libucrtd:close.obj
 0002:00015364       $unwind$??R<lambda_47cffbaa968af5c721c38a4a6f8da44d>@@QEBAXXZ 0000000140058364     libucrtd:commit.obj
 0002:00015364       $unwind$??R<lambda_4e3dbe6921bc0b5a1a6bc6573fdc859e>@@QEBAXXZ 0000000140058364     libucrtd:commit.obj
 0002:00015364       $unwind$??1?$__crt_unique_heap_ptr@U__crt_lowio_handle_data@@U__crt_internal_free_policy@@@@QEAA@XZ 0000000140058364     libucrtd:osfinfo.obj
 0002:00015364       $unwind$??B?$__crt_unique_heap_ptr@U__crt_lowio_handle_data@@U__crt_internal_free_policy@@@@QEBA_NXZ 0000000140058364     libucrtd:osfinfo.obj
 0002:00015364       $unwind$?value@?$dual_state_global@H@__crt_state_management@@QEAAAEAHXZ 0000000140058364     libucrtd:setmode.obj
 0002:00015364       $unwind$??R<lambda_728235dc0fc2b1f82d1fa5b3e7102d8f>@@QEBAXXZ 0000000140058364     libucrtd:mbctype.obj
 0002:00015364       $unwind$??R<lambda_efa02eb69bf647d2f7ff0dd6f1103f72>@@QEBAXXZ 0000000140058364     libucrtd:mbctype.obj
 0002:00015364       $unwind$?value@?$dual_state_global@PEAE@__crt_state_management@@QEAAAEAPEAEXZ 0000000140058364     libucrtd:mbctype.obj
 0002:00015364       $unwind$?value@?$dual_state_global@PEAU__crt_multibyte_data@@@__crt_state_management@@QEAAAEAPEAU__crt_multibyte_data@@XZ 0000000140058364     libucrtd:mbctype.obj
 0002:00015364       $unwind$??$output_debug_string@AEBQEB_W@?$__crt_char_traits@_W@@SAXAEBQEB_W@Z 0000000140058364     libucrtd:crtmbox.obj
 0002:00015364       $unwind$??$__crt_fast_decode_pointer@P6AXPEB_W00I_K@Z@@YAP6AXPEB_W00I_K@ZQ6AX000I1@Z@Z 0000000140058364     libucrtd:invalid_parameter.obj
 0002:00015364       $unwind$?value@?$dual_state_global@P6AXPEB_W00I_K@Z@__crt_state_management@@QEAAAEAP6AXPEB_W00I_K@ZXZ 0000000140058364     libucrtd:invalid_parameter.obj
 0002:00015364       $unwind$??$?B$$A6AXH@Z@__crt_fast_encoded_nullptr_t@@QEBAP6AXH@ZXZ 0000000140058364     libucrtd:signal.obj
 0002:00015364       $unwind$??$__crt_fast_decode_pointer@P6AXH@Z@@YAP6AXH@ZQ6AXH@Z@Z 0000000140058364     libucrtd:signal.obj
 0002:00015364       $unwind$??$__crt_fast_encode_pointer@P6AXH@Z@@YAP6AXH@ZQ6AXH@Z@Z 0000000140058364     libucrtd:signal.obj
 0002:00015364       $unwind$??R<lambda_44731a7d0e6d81c3e6aa82d741081786>@@QEBAP6AXH@ZXZ 0000000140058364     libucrtd:signal.obj
 0002:00015364       $unwind$??R<lambda_450d765d439847d4c735a33c368b5fc0>@@QEBAXXZ 0000000140058364     libucrtd:signal.obj
 0002:00015364       $unwind$??R<lambda_601a2a7da3b7a96e9554ac7215c4b07c>@@QEBAXXZ 0000000140058364     libucrtd:signal.obj
 0002:00015364       $unwind$?value@?$dual_state_global@P6AXH@Z@__crt_state_management@@QEAAAEAP6AXH@ZXZ 0000000140058364     libucrtd:signal.obj
 0002:00015364       $unwind$__acrt_initialize_signal_handlers 0000000140058364     libucrtd:signal.obj
 0002:00015364       $unwind$??$set_program_name@PEAD@?$__crt_char_traits@D@@SAX$$QEAPEAD@Z 0000000140058364     libucrtd:argv_parsing.obj
 0002:00015364       $unwind$??1?$__crt_unique_heap_ptr@EU__crt_internal_free_policy@@@@QEAA@XZ 0000000140058364     libucrtd:argv_parsing.obj
 0002:00015364       $unwind$??1?$__crt_unique_heap_ptr@PEADU__crt_internal_free_policy@@@@QEAA@XZ 0000000140058364     libucrtd:argv_parsing.obj
 0002:00015364       $unwind$??B?$__crt_unique_heap_ptr@EU__crt_internal_free_policy@@@@QEBA_NXZ 0000000140058364     libucrtd:argv_parsing.obj
 0002:00015364       $unwind$??1?$__crt_unique_handle_t@U__crt_findfile_traits@@@@QEAA@XZ 0000000140058364     libucrtd:argv_wildcards.obj
 0002:00015364       $unwind$?_deallocate@?$__crt_win32_buffer@DU__crt_win32_buffer_internal_dynamic_resizing@@@@AEAAXXZ 0000000140058364     libucrtd:argv_wildcards.obj
 0002:00015364       $unwind$?_deallocate@?$__crt_win32_buffer@_WU__crt_win32_buffer_internal_dynamic_resizing@@@@AEAAXXZ 0000000140058364     libucrtd:argv_wildcards.obj
 0002:00015364       $unwind$?close@?$__crt_unique_handle_t@U__crt_findfile_traits@@@@QEAAXXZ 0000000140058364     libucrtd:argv_wildcards.obj
 0002:00015364       $unwind$?set_to_nullptr@?$__crt_win32_buffer@DU__crt_win32_buffer_internal_dynamic_resizing@@@@QEAAXXZ 0000000140058364     libucrtd:argv_wildcards.obj
 0002:00015364       $unwind$?set_to_nullptr@?$__crt_win32_buffer@_WU__crt_win32_buffer_internal_dynamic_resizing@@@@QEAAXXZ 0000000140058364     libucrtd:argv_wildcards.obj
 0002:00015364       $unwind$??$__crt_interlocked_read@J@@YAJPEDJ@Z 0000000140058364     libucrtd:assert.obj
 0002:00015364       $unwind$??$tcslen@AEAY0BAF@D@?$__crt_char_traits@D@@SA_KAEAY0BAF@D@Z 0000000140058364     libucrtd:assert.obj
 0002:00015364       $unwind$??$tcslen@AEAY0BAF@_W@?$__crt_char_traits@_W@@SA_KAEAY0BAF@_W@Z 0000000140058364     libucrtd:assert.obj
 0002:00015364       $unwind$??$tcslen@AEBQEA_W@?$__crt_char_traits@_W@@SA_KAEBQEA_W@Z 0000000140058364     libucrtd:assert.obj
 0002:00015364       $unwind$??$tcslen@AEBQEBD@?$__crt_char_traits@D@@SA_KAEBQEBD@Z 0000000140058364     libucrtd:assert.obj
 0002:00015364       $unwind$??$tcslen@AEBQEB_W@?$__crt_char_traits@_W@@SA_KAEBQEB_W@Z 0000000140058364     libucrtd:assert.obj
 0002:00015364       $unwind$?get_flags@__crt_stdio_stream@@QEBAJXZ 0000000140058364     libucrtd:assert.obj
 0002:00015364       $unwind$?has_any_buffer@__crt_stdio_stream@@QEBA_NXZ 0000000140058364     libucrtd:assert.obj
 0002:00015364       $unwind$??$?B$$A6AXPEAXK0@Z@__crt_fast_encoded_nullptr_t@@QEBAP6AXPEAXK0@ZXZ 0000000140058364     libucrtd:exit.obj
 0002:00015364       $unwind$??$__crt_fast_decode_pointer@P6AXPEAXK0@Z@@YAP6AXPEAXK0@ZQ6AX0K0@Z@Z 0000000140058364     libucrtd:exit.obj
 0002:00015364       $unwind$??$__crt_fast_encode_pointer@P6AXPEAXK0@Z@@YAP6AXPEAXK0@ZQ6AX0K0@Z@Z 0000000140058364     libucrtd:exit.obj
 0002:00015364       $unwind$??1?$__crt_unique_handle_t@U__crt_hmodule_traits@@@@QEAA@XZ 0000000140058364     libucrtd:exit.obj
 0002:00015364       $unwind$??R<lambda_2358e3775559c9db80273638284d5e45>@@QEBAXXZ 0000000140058364     libucrtd:exit.obj
 0002:00015364       $unwind$??R<lambda_d80eeec6fff315bfe5c115232f3240e3>@@QEBAXXZ 0000000140058364     libucrtd:exit.obj
 0002:00015364       $unwind$?close@?$__crt_unique_handle_t@U__crt_hmodule_traits@@@@QEAAXXZ 0000000140058364     libucrtd:exit.obj
 0002:00015364       $unwind$??$?B$$A6AXXZ@__crt_fast_encoded_nullptr_t@@QEBAP6AXXZXZ 0000000140058364     libucrtd:onexit.obj
 0002:00015364       $unwind$??$?BP6AXXZ@__crt_fast_encoded_nullptr_t@@QEBAPEAP6AXXZXZ 0000000140058364     libucrtd:onexit.obj
 0002:00015364       $unwind$??$__crt_fast_decode_pointer@P6AXXZ@@YAP6AXXZQ6AXXZ@Z 0000000140058364     libucrtd:onexit.obj
 0002:00015364       $unwind$??$__crt_fast_decode_pointer@PEAP6AXXZ@@YAPEAP6AXXZQEAP6AXXZ@Z 0000000140058364     libucrtd:onexit.obj
 0002:00015364       $unwind$??$__crt_fast_encode_pointer@P6AHXZ@@YAP6AHXZQ6AHXZ@Z 0000000140058364     libucrtd:onexit.obj
 0002:00015364       $unwind$??$__crt_fast_encode_pointer@P6AXXZ@@YAP6AXXZQ6AXXZ@Z 0000000140058364     libucrtd:onexit.obj
 0002:00015364       $unwind$??$__crt_fast_encode_pointer@PEAP6AXXZ@@YAPEAP6AXXZQEAP6AXXZ@Z 0000000140058364     libucrtd:onexit.obj
 0002:00015364       $unwind$??1?$__crt_unique_heap_ptr@P6AXXZU__crt_internal_free_policy@@@@QEAA@XZ 0000000140058364     libucrtd:onexit.obj
 0002:00015364       $unwind$??R<lambda_00e911965883f7966597d4c465c83ebc>@@QEBAXXZ 0000000140058364     libucrtd:onexit.obj
 0002:00015364       $unwind$??R<lambda_6a47f4c8fd0152770a780fc1d70204eb>@@QEBAXXZ 0000000140058364     libucrtd:onexit.obj
 0002:00015364       $unwind$??R<lambda_6aaa2265f5b6a89667e7d7630012e97a>@@QEBAXXZ 0000000140058364     libucrtd:onexit.obj
 0002:00015364       $unwind$??R<lambda_dce957679fd779aa27c4ca5c39e09098>@@QEBAXXZ 0000000140058364     libucrtd:onexit.obj
 0002:00015364       $unwind$_crt_atexit        0000000140058364     libucrtd:onexit.obj
 0002:00015364       $unwind$??1?$__crt_unique_heap_ptr@PEAU__crt_stdio_stream_data@@U__crt_internal_free_policy@@@@QEAA@XZ 0000000140058364     libucrtd:_file.obj
 0002:00015364       $unwind$?has_big_buffer@__crt_stdio_stream@@QEBA_NXZ 0000000140058364     libucrtd:_flsbuf.obj
 0002:00015364       $unwind$?has_crt_buffer@__crt_stdio_stream@@QEBA_NXZ 0000000140058364     libucrtd:_freebuf.obj
 0002:00015364       $unwind$?has_temporary_buffer@__crt_stdio_stream@@QEBA_NXZ 0000000140058364     libucrtd:_sftbuf.obj
 0002:00015364       $unwind$__acrt_should_use_temporary_buffer 0000000140058364     libucrtd:_sftbuf.obj
 0002:00015364       $unwind$??R<lambda_572fbb9fa0ab338edf41edfd4b5fcc8d>@@QEBAXXZ 0000000140058364     libucrtd:fflush.obj
 0002:00015364       $unwind$??R<lambda_842d9ff0dc9ef11c61343bbaebe7f885>@@QEBAXXZ 0000000140058364     libucrtd:fflush.obj
 0002:00015364       $unwind$??R<lambda_886d6c58226a84441f68b9f2b8217b83>@@QEBAXXZ 0000000140058364     libucrtd:fflush.obj
 0002:00015364       $unwind$??R<lambda_9a32fed5bf61b6b509b2d3f6003082a1>@@QEBAHXZ 0000000140058364     libucrtd:fflush.obj
 0002:00015364       $unwind$??R<lambda_c376a267cfb53b6959b3b692ec76b120>@@QEBAXXZ 0000000140058364     libucrtd:fflush.obj
 0002:00015364       $unwind$??R<lambda_c5860995281e5c4ce005b3de8f5874ee>@@QEBAXXZ 0000000140058364     libucrtd:fflush.obj
 0002:00015364       $unwind$??R<lambda_d90129c13df834fdcbf8d2b88dafcf2d>@@QEBAXXZ 0000000140058364     libucrtd:fflush.obj
 0002:00015364       $unwind$??R<lambda_f7f22ab5edc0698d5f6905b0d3f44752>@@QEBAXXZ 0000000140058364     libucrtd:fflush.obj
 0002:00015364       $unwind$?lowio_handle@__crt_stdio_stream@@QEBAHXZ 0000000140058364     libucrtd:fileno.obj
 0002:00015364       $unwind$??$count@D@formatting_buffer@__crt_stdio_output@@QEBA_KXZ 0000000140058364     libucrtd:output.obj
 0002:00015364       $unwind$??$count@_W@formatting_buffer@__crt_stdio_output@@QEBA_KXZ 0000000140058364     libucrtd:output.obj
 0002:00015364       $unwind$??$data@D@formatting_buffer@__crt_stdio_output@@QEAAPEADXZ 0000000140058364     libucrtd:output.obj
 0002:00015364       $unwind$??$data@_W@formatting_buffer@__crt_stdio_output@@QEAAPEA_WXZ 0000000140058364     libucrtd:output.obj
 0002:00015364       $unwind$??$scratch_count@D@formatting_buffer@__crt_stdio_output@@QEBA_KXZ 0000000140058364     libucrtd:output.obj
 0002:00015364       $unwind$??0?$common_data@D@__crt_stdio_output@@IEAA@XZ 0000000140058364     libucrtd:output.obj
 0002:00015364       $unwind$??0?$common_data@_W@__crt_stdio_output@@IEAA@XZ 0000000140058364     libucrtd:output.obj
 0002:00015364       $unwind$??0formatting_buffer@__crt_stdio_output@@QEAA@XZ 0000000140058364     libucrtd:output.obj
 0002:00015364       $unwind$??1?$common_data@D@__crt_stdio_output@@QEAA@XZ 0000000140058364     libucrtd:output.obj
 0002:00015364       $unwind$??1?$common_data@_W@__crt_stdio_output@@QEAA@XZ 0000000140058364     libucrtd:output.obj
 0002:00015364       $unwind$??1?$format_validation_base@DV?$string_output_adapter@D@__crt_stdio_output@@@__crt_stdio_output@@QEAA@XZ 0000000140058364     libucrtd:output.obj
 0002:00015364       $unwind$??1?$format_validation_base@_WV?$string_output_adapter@_W@__crt_stdio_output@@@__crt_stdio_output@@QEAA@XZ 0000000140058364     libucrtd:output.obj
 0002:00015364       $unwind$??1?$output_adapter_data@DV?$string_output_adapter@D@__crt_stdio_output@@@__crt_stdio_output@@QEAA@XZ 0000000140058364     libucrtd:output.obj
 0002:00015364       $unwind$??1?$output_adapter_data@_WV?$stream_output_adapter@_W@__crt_stdio_output@@@__crt_stdio_output@@QEAA@XZ 0000000140058364     libucrtd:output.obj
 0002:00015364       $unwind$??1?$output_adapter_data@_WV?$string_output_adapter@_W@__crt_stdio_output@@@__crt_stdio_output@@QEAA@XZ 0000000140058364     libucrtd:output.obj
 0002:00015364       $unwind$??1?$output_processor@DV?$string_output_adapter@D@__crt_stdio_output@@V?$format_validation_base@DV?$string_output_adapter@D@__crt_stdio_output@@@2@@__crt_stdio_output@@QEAA@XZ 0000000140058364     libucrtd:output.obj
 0002:00015364       $unwind$??1?$output_processor@_WV?$stream_output_adapter@_W@__crt_stdio_output@@V?$standard_base@_WV?$stream_output_adapter@_W@__crt_stdio_output@@@2@@__crt_stdio_output@@QEAA@XZ 0000000140058364     libucrtd:output.obj
 0002:00015364       $unwind$??1?$output_processor@_WV?$string_output_adapter@_W@__crt_stdio_output@@V?$format_validation_base@_WV?$string_output_adapter@_W@__crt_stdio_output@@@2@@__crt_stdio_output@@QEAA@XZ 0000000140058364     libucrtd:output.obj
 0002:00015364       $unwind$??1?$output_processor@_WV?$string_output_adapter@_W@__crt_stdio_output@@V?$standard_base@_WV?$string_output_adapter@_W@__crt_stdio_output@@@2@@__crt_stdio_output@@QEAA@XZ 0000000140058364     libucrtd:output.obj
 0002:00015364       $unwind$??1?$standard_base@DV?$string_output_adapter@D@__crt_stdio_output@@@__crt_stdio_output@@QEAA@XZ 0000000140058364     libucrtd:output.obj
 0002:00015364       $unwind$??1?$standard_base@_WV?$stream_output_adapter@_W@__crt_stdio_output@@@__crt_stdio_output@@QEAA@XZ 0000000140058364     libucrtd:output.obj
 0002:00015364       $unwind$??1?$standard_base@_WV?$string_output_adapter@_W@__crt_stdio_output@@@__crt_stdio_output@@QEAA@XZ 0000000140058364     libucrtd:output.obj
 0002:00015364       $unwind$??1__acrt_stdio_temporary_buffering_guard@@QEAA@XZ 0000000140058364     libucrtd:output.obj
 0002:00015364       $unwind$??1formatting_buffer@__crt_stdio_output@@QEAA@XZ 0000000140058364     libucrtd:output.obj
 0002:00015364       $unwind$??R<lambda_10027885da78ada7fb00668d7e2e96b5>@@QEBAXXZ 0000000140058364     libucrtd:output.obj
 0002:00015364       $unwind$??R<lambda_676bd5779251ec186b530f0a904b4b35>@@QEBAXXZ 0000000140058364     libucrtd:output.obj
 0002:00015364       $unwind$?get@__crt_deferred_errno_cache@@QEAAAEAHXZ 0000000140058364     libucrtd:output.obj
 0002:00015364       $unwind$?state_case_normal_common@?$output_processor@DV?$string_output_adapter@D@__crt_stdio_output@@V?$format_validation_base@DV?$string_output_adapter@D@__crt_stdio_output@@@2@@__crt_stdio_output@@AEAA_NXZ 0000000140058364     libucrtd:output.obj
 0002:00015364       $unwind$?state_case_normal_common@?$output_processor@_WV?$stream_output_adapter@_W@__crt_stdio_output@@V?$standard_base@_WV?$stream_output_adapter@_W@__crt_stdio_output@@@2@@__crt_stdio_output@@AEAA_NXZ 0000000140058364     libucrtd:output.obj
 0002:00015364       $unwind$?state_case_normal_common@?$output_processor@_WV?$string_output_adapter@_W@__crt_stdio_output@@V?$format_validation_base@_WV?$string_output_adapter@_W@__crt_stdio_output@@@2@@__crt_stdio_output@@AEAA_NXZ 0000000140058364     libucrtd:output.obj
 0002:00015364       $unwind$?state_case_normal_common@?$output_processor@_WV?$string_output_adapter@_W@__crt_stdio_output@@V?$standard_base@_WV?$string_output_adapter@_W@__crt_stdio_output@@@2@@__crt_stdio_output@@AEAA_NXZ 0000000140058364     libucrtd:output.obj
 0002:00015364       $unwind$?state_case_precision@?$output_processor@DV?$string_output_adapter@D@__crt_stdio_output@@V?$format_validation_base@DV?$string_output_adapter@D@__crt_stdio_output@@@2@@__crt_stdio_output@@AEAA_NXZ 0000000140058364     libucrtd:output.obj
 0002:00015364       $unwind$?state_case_precision@?$output_processor@_WV?$stream_output_adapter@_W@__crt_stdio_output@@V?$standard_base@_WV?$stream_output_adapter@_W@__crt_stdio_output@@@2@@__crt_stdio_output@@AEAA_NXZ 0000000140058364     libucrtd:output.obj
 0002:00015364       $unwind$?state_case_precision@?$output_processor@_WV?$string_output_adapter@_W@__crt_stdio_output@@V?$format_validation_base@_WV?$string_output_adapter@_W@__crt_stdio_output@@@2@@__crt_stdio_output@@AEAA_NXZ 0000000140058364     libucrtd:output.obj
 0002:00015364       $unwind$?state_case_precision@?$output_processor@_WV?$string_output_adapter@_W@__crt_stdio_output@@V?$standard_base@_WV?$string_output_adapter@_W@__crt_stdio_output@@@2@@__crt_stdio_output@@AEAA_NXZ 0000000140058364     libucrtd:output.obj
 0002:00015364       $unwind$?state_case_width@?$output_processor@DV?$string_output_adapter@D@__crt_stdio_output@@V?$format_validation_base@DV?$string_output_adapter@D@__crt_stdio_output@@@2@@__crt_stdio_output@@AEAA_NXZ 0000000140058364     libucrtd:output.obj
 0002:00015364       $unwind$?state_case_width@?$output_processor@_WV?$stream_output_adapter@_W@__crt_stdio_output@@V?$standard_base@_WV?$stream_output_adapter@_W@__crt_stdio_output@@@2@@__crt_stdio_output@@AEAA_NXZ 0000000140058364     libucrtd:output.obj
 0002:00015364       $unwind$?state_case_width@?$output_processor@_WV?$string_output_adapter@_W@__crt_stdio_output@@V?$format_validation_base@_WV?$string_output_adapter@_W@__crt_stdio_output@@@2@@__crt_stdio_output@@AEAA_NXZ 0000000140058364     libucrtd:output.obj
 0002:00015364       $unwind$?state_case_width@?$output_processor@_WV?$string_output_adapter@_W@__crt_stdio_output@@V?$standard_base@_WV?$string_output_adapter@_W@__crt_stdio_output@@@2@@__crt_stdio_output@@AEAA_NXZ 0000000140058364     libucrtd:output.obj
 0002:00015364       $unwind$?tchar_string@?$common_data@D@__crt_stdio_output@@IEAAAEAPEADXZ 0000000140058364     libucrtd:output.obj
 0002:00015364       $unwind$?tchar_string@?$common_data@_W@__crt_stdio_output@@IEAAAEAPEA_WXZ 0000000140058364     libucrtd:output.obj
 0002:00015364       $unwind$?type_case_X@?$output_processor@DV?$string_output_adapter@D@__crt_stdio_output@@V?$format_validation_base@DV?$string_output_adapter@D@__crt_stdio_output@@@2@@__crt_stdio_output@@AEAA_NXZ 0000000140058364     libucrtd:output.obj
 0002:00015364       $unwind$?type_case_X@?$output_processor@_WV?$stream_output_adapter@_W@__crt_stdio_output@@V?$standard_base@_WV?$stream_output_adapter@_W@__crt_stdio_output@@@2@@__crt_stdio_output@@AEAA_NXZ 0000000140058364     libucrtd:output.obj
 0002:00015364       $unwind$?type_case_X@?$output_processor@_WV?$string_output_adapter@_W@__crt_stdio_output@@V?$format_validation_base@_WV?$string_output_adapter@_W@__crt_stdio_output@@@2@@__crt_stdio_output@@AEAA_NXZ 0000000140058364     libucrtd:output.obj
 0002:00015364       $unwind$?type_case_X@?$output_processor@_WV?$string_output_adapter@_W@__crt_stdio_output@@V?$standard_base@_WV?$string_output_adapter@_W@__crt_stdio_output@@@2@@__crt_stdio_output@@AEAA_NXZ 0000000140058364     libucrtd:output.obj
 0002:00015364       $unwind$?type_case_c@?$output_processor@DV?$string_output_adapter@D@__crt_stdio_output@@V?$format_validation_base@DV?$string_output_adapter@D@__crt_stdio_output@@@2@@__crt_stdio_output@@AEAA_NXZ 0000000140058364     libucrtd:output.obj
 0002:00015364       $unwind$?type_case_c@?$output_processor@_WV?$stream_output_adapter@_W@__crt_stdio_output@@V?$standard_base@_WV?$stream_output_adapter@_W@__crt_stdio_output@@@2@@__crt_stdio_output@@AEAA_NXZ 0000000140058364     libucrtd:output.obj
 0002:00015364       $unwind$?type_case_c@?$output_processor@_WV?$string_output_adapter@_W@__crt_stdio_output@@V?$format_validation_base@_WV?$string_output_adapter@_W@__crt_stdio_output@@@2@@__crt_stdio_output@@AEAA_NXZ 0000000140058364     libucrtd:output.obj
 0002:00015364       $unwind$?type_case_c@?$output_processor@_WV?$string_output_adapter@_W@__crt_stdio_output@@V?$standard_base@_WV?$string_output_adapter@_W@__crt_stdio_output@@@2@@__crt_stdio_output@@AEAA_NXZ 0000000140058364     libucrtd:output.obj
 0002:00015364       $unwind$?type_case_d@?$output_processor@DV?$string_output_adapter@D@__crt_stdio_output@@V?$format_validation_base@DV?$string_output_adapter@D@__crt_stdio_output@@@2@@__crt_stdio_output@@AEAA_NXZ 0000000140058364     libucrtd:output.obj
 0002:00015364       $unwind$?type_case_d@?$output_processor@_WV?$stream_output_adapter@_W@__crt_stdio_output@@V?$standard_base@_WV?$stream_output_adapter@_W@__crt_stdio_output@@@2@@__crt_stdio_output@@AEAA_NXZ 0000000140058364     libucrtd:output.obj
 0002:00015364       $unwind$?type_case_d@?$output_processor@_WV?$string_output_adapter@_W@__crt_stdio_output@@V?$format_validation_base@_WV?$string_output_adapter@_W@__crt_stdio_output@@@2@@__crt_stdio_output@@AEAA_NXZ 0000000140058364     libucrtd:output.obj
